ARM GAS  C:\Users\Erik\AppData\Local\Temp\cc3TePUC.s 			page 1


   1              		.syntax unified
   2              		.cpu cortex-m0
   3              		.fpu softvfp
   4              		.eabi_attribute 20, 1
   5              		.eabi_attribute 21, 1
   6              		.eabi_attribute 23, 3
   7              		.eabi_attribute 24, 1
   8              		.eabi_attribute 25, 1
   9              		.eabi_attribute 26, 1
  10              		.eabi_attribute 30, 1
  11              		.eabi_attribute 34, 0
  12              		.eabi_attribute 18, 4
  13              		.thumb
  14              		.syntax unified
  15              		.file	"CapSense_Structure.c"
  16              		.text
  17              	.Ltext0:
  18              		.cfi_sections	.debug_frame
  19              		.section	.text.DsParseParamId,"ax",%progbits
  20              		.align	2
  21              		.code	16
  22              		.thumb_func
  23              		.type	DsParseParamId, %function
  24              	DsParseParamId:
  25              	.LFB2:
  26              		.file 1 "Generated_Source\\PSoC4\\CapSense_Structure.c"
   1:Generated_Source\PSoC4/CapSense_Structure.c **** /***************************************************************************//**
   2:Generated_Source\PSoC4/CapSense_Structure.c **** * \file CapSense_Structure.c
   3:Generated_Source\PSoC4/CapSense_Structure.c **** * \version 7.0
   4:Generated_Source\PSoC4/CapSense_Structure.c **** *
   5:Generated_Source\PSoC4/CapSense_Structure.c **** * \brief
   6:Generated_Source\PSoC4/CapSense_Structure.c **** *   This file defines the data structure global variables and provides implementation
   7:Generated_Source\PSoC4/CapSense_Structure.c **** *   for the high-level and low-level APIs of the Data Structure module.
   8:Generated_Source\PSoC4/CapSense_Structure.c **** *
   9:Generated_Source\PSoC4/CapSense_Structure.c **** * \see CapSense v7.0 Datasheet
  10:Generated_Source\PSoC4/CapSense_Structure.c **** *
  11:Generated_Source\PSoC4/CapSense_Structure.c **** *//*****************************************************************************
  12:Generated_Source\PSoC4/CapSense_Structure.c **** * Copyright (2016-2019), Cypress Semiconductor Corporation.
  13:Generated_Source\PSoC4/CapSense_Structure.c **** ********************************************************************************
  14:Generated_Source\PSoC4/CapSense_Structure.c **** * This software is owned by Cypress Semiconductor Corporation (Cypress) and is
  15:Generated_Source\PSoC4/CapSense_Structure.c **** * protected by and subject to worldwide patent protection (United States and
  16:Generated_Source\PSoC4/CapSense_Structure.c **** * foreign), United States copyright laws and international treaty provisions.
  17:Generated_Source\PSoC4/CapSense_Structure.c **** * Cypress hereby grants to licensee a personal, non-exclusive, non-transferable
  18:Generated_Source\PSoC4/CapSense_Structure.c **** * license to copy, use, modify, create derivative works of, and compile the
  19:Generated_Source\PSoC4/CapSense_Structure.c **** * Cypress Source Code and derivative works for the sole purpose of creating
  20:Generated_Source\PSoC4/CapSense_Structure.c **** * custom software in support of licensee product to be used only in conjunction
  21:Generated_Source\PSoC4/CapSense_Structure.c **** * with a Cypress integrated circuit as specified in the applicable agreement.
  22:Generated_Source\PSoC4/CapSense_Structure.c **** * Any reproduction, modification, translation, compilation, or representation of
  23:Generated_Source\PSoC4/CapSense_Structure.c **** * this software except as specified above is prohibited without the express
  24:Generated_Source\PSoC4/CapSense_Structure.c **** * written permission of Cypress.
  25:Generated_Source\PSoC4/CapSense_Structure.c **** *
  26:Generated_Source\PSoC4/CapSense_Structure.c **** * Disclaimer: CYPRESS MAKES NO WARRANTY OF ANY KIND, EXPRESS OR IMPLIED, WITH
  27:Generated_Source\PSoC4/CapSense_Structure.c **** * REGARD TO THIS MATERIAL, INCLUDING, BUT NOT LIMITED TO, THE IMPLIED
  28:Generated_Source\PSoC4/CapSense_Structure.c **** * WARRANTIES OF MERCHANTABILITY AND FITNESS FOR A PARTICULAR PURPOSE.
  29:Generated_Source\PSoC4/CapSense_Structure.c **** * Cypress reserves the right to make changes without further notice to the
  30:Generated_Source\PSoC4/CapSense_Structure.c **** * materials described herein. Cypress does not assume any liability arising out
  31:Generated_Source\PSoC4/CapSense_Structure.c **** * of the application or use of any product or circuit described herein. Cypress
ARM GAS  C:\Users\Erik\AppData\Local\Temp\cc3TePUC.s 			page 2


  32:Generated_Source\PSoC4/CapSense_Structure.c **** * does not authorize its products for use as critical components in life-support
  33:Generated_Source\PSoC4/CapSense_Structure.c **** * systems where a malfunction or failure may reasonably be expected to result in
  34:Generated_Source\PSoC4/CapSense_Structure.c **** * significant injury to the user. The inclusion of Cypress' product in a life-
  35:Generated_Source\PSoC4/CapSense_Structure.c **** * support systems application implies that the manufacturer assumes all risk of
  36:Generated_Source\PSoC4/CapSense_Structure.c **** * such use and in doing so indemnifies Cypress against all charges. Use may be
  37:Generated_Source\PSoC4/CapSense_Structure.c **** * limited by and subject to the applicable Cypress software license agreement.
  38:Generated_Source\PSoC4/CapSense_Structure.c **** *******************************************************************************/
  39:Generated_Source\PSoC4/CapSense_Structure.c **** 
  40:Generated_Source\PSoC4/CapSense_Structure.c **** #include <cytypes.h>
  41:Generated_Source\PSoC4/CapSense_Structure.c **** #include "CyLib.h"
  42:Generated_Source\PSoC4/CapSense_Structure.c **** #include "CapSense_Structure.h"
  43:Generated_Source\PSoC4/CapSense_Structure.c **** #include "CapSense_Configuration.h"
  44:Generated_Source\PSoC4/CapSense_Structure.c **** 
  45:Generated_Source\PSoC4/CapSense_Structure.c **** #if (0u != CapSense_ADC_EN)
  46:Generated_Source\PSoC4/CapSense_Structure.c ****     #include "CapSense_Adc.h"
  47:Generated_Source\PSoC4/CapSense_Structure.c **** #endif /* (0u != CapSense_ADC_EN) */
  48:Generated_Source\PSoC4/CapSense_Structure.c **** 
  49:Generated_Source\PSoC4/CapSense_Structure.c **** #if (CapSense_ENABLE == CapSense_SELF_TEST_EN)
  50:Generated_Source\PSoC4/CapSense_Structure.c ****     #include "CapSense_SelfTest.h"
  51:Generated_Source\PSoC4/CapSense_Structure.c **** #endif
  52:Generated_Source\PSoC4/CapSense_Structure.c **** 
  53:Generated_Source\PSoC4/CapSense_Structure.c **** #if (CapSense_ENABLE == CapSense_CENTROID_5X5_CSD_EN)
  54:Generated_Source\PSoC4/CapSense_Structure.c ****     #include "CapSense_AdvancedCentroid_LL.h"
  55:Generated_Source\PSoC4/CapSense_Structure.c **** #endif
  56:Generated_Source\PSoC4/CapSense_Structure.c **** 
  57:Generated_Source\PSoC4/CapSense_Structure.c **** #if (CapSense_ENABLE == CapSense_GES_GLOBAL_EN)
  58:Generated_Source\PSoC4/CapSense_Structure.c ****     #include "CapSense_Gesture.h"
  59:Generated_Source\PSoC4/CapSense_Structure.c **** #endif /* (CapSense_ENABLE == CapSense_GES_GLOBAL_EN) */
  60:Generated_Source\PSoC4/CapSense_Structure.c **** 
  61:Generated_Source\PSoC4/CapSense_Structure.c **** /*******************************************************************************
  62:Generated_Source\PSoC4/CapSense_Structure.c **** * Defines the RAM Data Structure variables and their init data in flash
  63:Generated_Source\PSoC4/CapSense_Structure.c **** *******************************************************************************/
  64:Generated_Source\PSoC4/CapSense_Structure.c **** /**
  65:Generated_Source\PSoC4/CapSense_Structure.c **** * \cond SECTION_GLOBAL_VARIABLES
  66:Generated_Source\PSoC4/CapSense_Structure.c **** * \addtogroup group_global_variables
  67:Generated_Source\PSoC4/CapSense_Structure.c **** * \{
  68:Generated_Source\PSoC4/CapSense_Structure.c **** */
  69:Generated_Source\PSoC4/CapSense_Structure.c **** 
  70:Generated_Source\PSoC4/CapSense_Structure.c **** /**
  71:Generated_Source\PSoC4/CapSense_Structure.c **** * The variable that contains the CapSense configuration, settings and
  72:Generated_Source\PSoC4/CapSense_Structure.c **** * scanning results. CapSense_dsRam represents RAM Data Structure.
  73:Generated_Source\PSoC4/CapSense_Structure.c **** */
  74:Generated_Source\PSoC4/CapSense_Structure.c **** CapSense_RAM_STRUCT CapSense_dsRam;
  75:Generated_Source\PSoC4/CapSense_Structure.c **** /** \}
  76:Generated_Source\PSoC4/CapSense_Structure.c **** * \endcond */
  77:Generated_Source\PSoC4/CapSense_Structure.c **** 
  78:Generated_Source\PSoC4/CapSense_Structure.c **** /*******************************************************************************
  79:Generated_Source\PSoC4/CapSense_Structure.c **** * Declares Widget's De-bounce Counters
  80:Generated_Source\PSoC4/CapSense_Structure.c **** *******************************************************************************/
  81:Generated_Source\PSoC4/CapSense_Structure.c **** static uint8 CapSense_debounceSlider[CapSense_SLIDER_NUM_SENSORS];
  82:Generated_Source\PSoC4/CapSense_Structure.c **** 
  83:Generated_Source\PSoC4/CapSense_Structure.c **** 
  84:Generated_Source\PSoC4/CapSense_Structure.c **** /***************************************************************************//**
  85:Generated_Source\PSoC4/CapSense_Structure.c **** * Declares Noise Envelope data structures
  86:Generated_Source\PSoC4/CapSense_Structure.c **** *******************************************************************************/
  87:Generated_Source\PSoC4/CapSense_Structure.c **** static SMARTSENSE_CSD_NOISE_ENVELOPE_STRUCT CapSense_noiseEnvlpSlider[CapSense_SLIDER_NUM_SENSORS];
  88:Generated_Source\PSoC4/CapSense_Structure.c **** 
ARM GAS  C:\Users\Erik\AppData\Local\Temp\cc3TePUC.s 			page 3


  89:Generated_Source\PSoC4/CapSense_Structure.c **** /***************************************************************************//**
  90:Generated_Source\PSoC4/CapSense_Structure.c **** * Declares Filter History Objects
  91:Generated_Source\PSoC4/CapSense_Structure.c **** *******************************************************************************/
  92:Generated_Source\PSoC4/CapSense_Structure.c **** static CapSense_REGULAR_FLTR_STRUCT CapSense_fltrHistorySlider[CapSense_SLIDER_NUM_SENSORS];
  93:Generated_Source\PSoC4/CapSense_Structure.c **** 
  94:Generated_Source\PSoC4/CapSense_Structure.c **** /*******************************************************************************
  95:Generated_Source\PSoC4/CapSense_Structure.c **** * Defines and initializes the Flash Data Structure
  96:Generated_Source\PSoC4/CapSense_Structure.c **** *******************************************************************************/
  97:Generated_Source\PSoC4/CapSense_Structure.c **** 
  98:Generated_Source\PSoC4/CapSense_Structure.c **** 
  99:Generated_Source\PSoC4/CapSense_Structure.c **** 
 100:Generated_Source\PSoC4/CapSense_Structure.c **** /**
 101:Generated_Source\PSoC4/CapSense_Structure.c **** * \cond SECTION_API_CONSTANTS
 102:Generated_Source\PSoC4/CapSense_Structure.c **** * \addtogroup group_api_constants
 103:Generated_Source\PSoC4/CapSense_Structure.c **** * \{
 104:Generated_Source\PSoC4/CapSense_Structure.c **** */
 105:Generated_Source\PSoC4/CapSense_Structure.c **** /**
 106:Generated_Source\PSoC4/CapSense_Structure.c **** * Constant for the FLASH Data Structure
 107:Generated_Source\PSoC4/CapSense_Structure.c **** */
 108:Generated_Source\PSoC4/CapSense_Structure.c **** const CapSense_FLASH_STRUCT CapSense_dsFlash =
 109:Generated_Source\PSoC4/CapSense_Structure.c **** {
 110:Generated_Source\PSoC4/CapSense_Structure.c ****     /* Flash Widget Initialization Data */
 111:Generated_Source\PSoC4/CapSense_Structure.c ****     {
 112:Generated_Source\PSoC4/CapSense_Structure.c ****         { /* Slider */
 113:Generated_Source\PSoC4/CapSense_Structure.c ****             &CapSense_ioList[0u],
 114:Generated_Source\PSoC4/CapSense_Structure.c ****             (void *)&CapSense_dsRam.wdgtList.slider,
 115:Generated_Source\PSoC4/CapSense_Structure.c ****             CapSense_dsRam.snsList.slider,
 116:Generated_Source\PSoC4/CapSense_Structure.c ****             (void *)CapSense_fltrHistorySlider,
 117:Generated_Source\PSoC4/CapSense_Structure.c ****             CapSense_debounceSlider,
 118:Generated_Source\PSoC4/CapSense_Structure.c ****             CapSense_SLIDER_STATIC_CONFIG,
 119:Generated_Source\PSoC4/CapSense_Structure.c ****             CapSense_SLIDER_NUM_SENSORS,
 120:Generated_Source\PSoC4/CapSense_Structure.c ****             (uint8)CapSense_WD_BUTTON_E,
 121:Generated_Source\PSoC4/CapSense_Structure.c ****             CapSense_SLIDER_NUM_SENSORS,
 122:Generated_Source\PSoC4/CapSense_Structure.c ****             CapSense_noiseEnvlpSlider,
 123:Generated_Source\PSoC4/CapSense_Structure.c ****         },
 124:Generated_Source\PSoC4/CapSense_Structure.c ****     },
 125:Generated_Source\PSoC4/CapSense_Structure.c **** };
 126:Generated_Source\PSoC4/CapSense_Structure.c **** 
 127:Generated_Source\PSoC4/CapSense_Structure.c **** /**
 128:Generated_Source\PSoC4/CapSense_Structure.c **** * The array of the pointers to the electrode specific register.
 129:Generated_Source\PSoC4/CapSense_Structure.c **** */
 130:Generated_Source\PSoC4/CapSense_Structure.c **** const CapSense_FLASH_IO_STRUCT CapSense_ioList[CapSense_TOTAL_ELECTRODES] =
 131:Generated_Source\PSoC4/CapSense_Structure.c **** {
 132:Generated_Source\PSoC4/CapSense_Structure.c ****     { /* 0: Slider_Sns0 */
 133:Generated_Source\PSoC4/CapSense_Structure.c ****         (reg32 *)CapSense_Sns__0__HSIOM,
 134:Generated_Source\PSoC4/CapSense_Structure.c ****         (reg32 *)CapSense_Sns__0__PC,
 135:Generated_Source\PSoC4/CapSense_Structure.c ****         (reg32 *)CapSense_Sns__0__DR,
 136:Generated_Source\PSoC4/CapSense_Structure.c ****         (reg32 *)CapSense_Sns__0__PS,
 137:Generated_Source\PSoC4/CapSense_Structure.c ****         CapSense_Sns__0__HSIOM_MASK,
 138:Generated_Source\PSoC4/CapSense_Structure.c ****         CapSense_Sns__0__MASK,
 139:Generated_Source\PSoC4/CapSense_Structure.c ****         CapSense_Sns__0__HSIOM_SHIFT,
 140:Generated_Source\PSoC4/CapSense_Structure.c ****         (uint8)CapSense_Sns__0__SHIFT,
 141:Generated_Source\PSoC4/CapSense_Structure.c ****         (uint8)CapSense_Sns__0__SHIFT * 3u,
 142:Generated_Source\PSoC4/CapSense_Structure.c ****     },
 143:Generated_Source\PSoC4/CapSense_Structure.c ****     { /* 1: Slider_Sns1 */
 144:Generated_Source\PSoC4/CapSense_Structure.c ****         (reg32 *)CapSense_Sns__1__HSIOM,
 145:Generated_Source\PSoC4/CapSense_Structure.c ****         (reg32 *)CapSense_Sns__1__PC,
ARM GAS  C:\Users\Erik\AppData\Local\Temp\cc3TePUC.s 			page 4


 146:Generated_Source\PSoC4/CapSense_Structure.c ****         (reg32 *)CapSense_Sns__1__DR,
 147:Generated_Source\PSoC4/CapSense_Structure.c ****         (reg32 *)CapSense_Sns__1__PS,
 148:Generated_Source\PSoC4/CapSense_Structure.c ****         CapSense_Sns__1__HSIOM_MASK,
 149:Generated_Source\PSoC4/CapSense_Structure.c ****         CapSense_Sns__1__MASK,
 150:Generated_Source\PSoC4/CapSense_Structure.c ****         CapSense_Sns__1__HSIOM_SHIFT,
 151:Generated_Source\PSoC4/CapSense_Structure.c ****         (uint8)CapSense_Sns__1__SHIFT,
 152:Generated_Source\PSoC4/CapSense_Structure.c ****         (uint8)CapSense_Sns__1__SHIFT * 3u,
 153:Generated_Source\PSoC4/CapSense_Structure.c ****     },
 154:Generated_Source\PSoC4/CapSense_Structure.c ****     { /* 2: Slider_Sns2 */
 155:Generated_Source\PSoC4/CapSense_Structure.c ****         (reg32 *)CapSense_Sns__2__HSIOM,
 156:Generated_Source\PSoC4/CapSense_Structure.c ****         (reg32 *)CapSense_Sns__2__PC,
 157:Generated_Source\PSoC4/CapSense_Structure.c ****         (reg32 *)CapSense_Sns__2__DR,
 158:Generated_Source\PSoC4/CapSense_Structure.c ****         (reg32 *)CapSense_Sns__2__PS,
 159:Generated_Source\PSoC4/CapSense_Structure.c ****         CapSense_Sns__2__HSIOM_MASK,
 160:Generated_Source\PSoC4/CapSense_Structure.c ****         CapSense_Sns__2__MASK,
 161:Generated_Source\PSoC4/CapSense_Structure.c ****         CapSense_Sns__2__HSIOM_SHIFT,
 162:Generated_Source\PSoC4/CapSense_Structure.c ****         (uint8)CapSense_Sns__2__SHIFT,
 163:Generated_Source\PSoC4/CapSense_Structure.c ****         (uint8)CapSense_Sns__2__SHIFT * 3u,
 164:Generated_Source\PSoC4/CapSense_Structure.c ****     },
 165:Generated_Source\PSoC4/CapSense_Structure.c ****     { /* 3: Slider_Sns3 */
 166:Generated_Source\PSoC4/CapSense_Structure.c ****         (reg32 *)CapSense_Sns__3__HSIOM,
 167:Generated_Source\PSoC4/CapSense_Structure.c ****         (reg32 *)CapSense_Sns__3__PC,
 168:Generated_Source\PSoC4/CapSense_Structure.c ****         (reg32 *)CapSense_Sns__3__DR,
 169:Generated_Source\PSoC4/CapSense_Structure.c ****         (reg32 *)CapSense_Sns__3__PS,
 170:Generated_Source\PSoC4/CapSense_Structure.c ****         CapSense_Sns__3__HSIOM_MASK,
 171:Generated_Source\PSoC4/CapSense_Structure.c ****         CapSense_Sns__3__MASK,
 172:Generated_Source\PSoC4/CapSense_Structure.c ****         CapSense_Sns__3__HSIOM_SHIFT,
 173:Generated_Source\PSoC4/CapSense_Structure.c ****         (uint8)CapSense_Sns__3__SHIFT,
 174:Generated_Source\PSoC4/CapSense_Structure.c ****         (uint8)CapSense_Sns__3__SHIFT * 3u,
 175:Generated_Source\PSoC4/CapSense_Structure.c ****     },
 176:Generated_Source\PSoC4/CapSense_Structure.c ****     { /* 4: Slider_Sns4 */
 177:Generated_Source\PSoC4/CapSense_Structure.c ****         (reg32 *)CapSense_Sns__4__HSIOM,
 178:Generated_Source\PSoC4/CapSense_Structure.c ****         (reg32 *)CapSense_Sns__4__PC,
 179:Generated_Source\PSoC4/CapSense_Structure.c ****         (reg32 *)CapSense_Sns__4__DR,
 180:Generated_Source\PSoC4/CapSense_Structure.c ****         (reg32 *)CapSense_Sns__4__PS,
 181:Generated_Source\PSoC4/CapSense_Structure.c ****         CapSense_Sns__4__HSIOM_MASK,
 182:Generated_Source\PSoC4/CapSense_Structure.c ****         CapSense_Sns__4__MASK,
 183:Generated_Source\PSoC4/CapSense_Structure.c ****         CapSense_Sns__4__HSIOM_SHIFT,
 184:Generated_Source\PSoC4/CapSense_Structure.c ****         (uint8)CapSense_Sns__4__SHIFT,
 185:Generated_Source\PSoC4/CapSense_Structure.c ****         (uint8)CapSense_Sns__4__SHIFT * 3u,
 186:Generated_Source\PSoC4/CapSense_Structure.c ****     },
 187:Generated_Source\PSoC4/CapSense_Structure.c ****     { /* 5: Slider_Sns5 */
 188:Generated_Source\PSoC4/CapSense_Structure.c ****         (reg32 *)CapSense_Sns__5__HSIOM,
 189:Generated_Source\PSoC4/CapSense_Structure.c ****         (reg32 *)CapSense_Sns__5__PC,
 190:Generated_Source\PSoC4/CapSense_Structure.c ****         (reg32 *)CapSense_Sns__5__DR,
 191:Generated_Source\PSoC4/CapSense_Structure.c ****         (reg32 *)CapSense_Sns__5__PS,
 192:Generated_Source\PSoC4/CapSense_Structure.c ****         CapSense_Sns__5__HSIOM_MASK,
 193:Generated_Source\PSoC4/CapSense_Structure.c ****         CapSense_Sns__5__MASK,
 194:Generated_Source\PSoC4/CapSense_Structure.c ****         CapSense_Sns__5__HSIOM_SHIFT,
 195:Generated_Source\PSoC4/CapSense_Structure.c ****         (uint8)CapSense_Sns__5__SHIFT,
 196:Generated_Source\PSoC4/CapSense_Structure.c ****         (uint8)CapSense_Sns__5__SHIFT * 3u,
 197:Generated_Source\PSoC4/CapSense_Structure.c ****     },
 198:Generated_Source\PSoC4/CapSense_Structure.c ****     { /* 6: Slider_Sns6 */
 199:Generated_Source\PSoC4/CapSense_Structure.c ****         (reg32 *)CapSense_Sns__6__HSIOM,
 200:Generated_Source\PSoC4/CapSense_Structure.c ****         (reg32 *)CapSense_Sns__6__PC,
 201:Generated_Source\PSoC4/CapSense_Structure.c ****         (reg32 *)CapSense_Sns__6__DR,
 202:Generated_Source\PSoC4/CapSense_Structure.c ****         (reg32 *)CapSense_Sns__6__PS,
ARM GAS  C:\Users\Erik\AppData\Local\Temp\cc3TePUC.s 			page 5


 203:Generated_Source\PSoC4/CapSense_Structure.c ****         CapSense_Sns__6__HSIOM_MASK,
 204:Generated_Source\PSoC4/CapSense_Structure.c ****         CapSense_Sns__6__MASK,
 205:Generated_Source\PSoC4/CapSense_Structure.c ****         CapSense_Sns__6__HSIOM_SHIFT,
 206:Generated_Source\PSoC4/CapSense_Structure.c ****         (uint8)CapSense_Sns__6__SHIFT,
 207:Generated_Source\PSoC4/CapSense_Structure.c ****         (uint8)CapSense_Sns__6__SHIFT * 3u,
 208:Generated_Source\PSoC4/CapSense_Structure.c ****     },
 209:Generated_Source\PSoC4/CapSense_Structure.c ****     { /* 7: Slider_Sns7 */
 210:Generated_Source\PSoC4/CapSense_Structure.c ****         (reg32 *)CapSense_Sns__7__HSIOM,
 211:Generated_Source\PSoC4/CapSense_Structure.c ****         (reg32 *)CapSense_Sns__7__PC,
 212:Generated_Source\PSoC4/CapSense_Structure.c ****         (reg32 *)CapSense_Sns__7__DR,
 213:Generated_Source\PSoC4/CapSense_Structure.c ****         (reg32 *)CapSense_Sns__7__PS,
 214:Generated_Source\PSoC4/CapSense_Structure.c ****         CapSense_Sns__7__HSIOM_MASK,
 215:Generated_Source\PSoC4/CapSense_Structure.c ****         CapSense_Sns__7__MASK,
 216:Generated_Source\PSoC4/CapSense_Structure.c ****         CapSense_Sns__7__HSIOM_SHIFT,
 217:Generated_Source\PSoC4/CapSense_Structure.c ****         (uint8)CapSense_Sns__7__SHIFT,
 218:Generated_Source\PSoC4/CapSense_Structure.c ****         (uint8)CapSense_Sns__7__SHIFT * 3u,
 219:Generated_Source\PSoC4/CapSense_Structure.c ****     },
 220:Generated_Source\PSoC4/CapSense_Structure.c ****     { /* 8: Slider_Sns8 */
 221:Generated_Source\PSoC4/CapSense_Structure.c ****         (reg32 *)CapSense_Sns__8__HSIOM,
 222:Generated_Source\PSoC4/CapSense_Structure.c ****         (reg32 *)CapSense_Sns__8__PC,
 223:Generated_Source\PSoC4/CapSense_Structure.c ****         (reg32 *)CapSense_Sns__8__DR,
 224:Generated_Source\PSoC4/CapSense_Structure.c ****         (reg32 *)CapSense_Sns__8__PS,
 225:Generated_Source\PSoC4/CapSense_Structure.c ****         CapSense_Sns__8__HSIOM_MASK,
 226:Generated_Source\PSoC4/CapSense_Structure.c ****         CapSense_Sns__8__MASK,
 227:Generated_Source\PSoC4/CapSense_Structure.c ****         CapSense_Sns__8__HSIOM_SHIFT,
 228:Generated_Source\PSoC4/CapSense_Structure.c ****         (uint8)CapSense_Sns__8__SHIFT,
 229:Generated_Source\PSoC4/CapSense_Structure.c ****         (uint8)CapSense_Sns__8__SHIFT * 3u,
 230:Generated_Source\PSoC4/CapSense_Structure.c ****     },
 231:Generated_Source\PSoC4/CapSense_Structure.c ****     { /* 9: Slider_Sns9 */
 232:Generated_Source\PSoC4/CapSense_Structure.c ****         (reg32 *)CapSense_Sns__9__HSIOM,
 233:Generated_Source\PSoC4/CapSense_Structure.c ****         (reg32 *)CapSense_Sns__9__PC,
 234:Generated_Source\PSoC4/CapSense_Structure.c ****         (reg32 *)CapSense_Sns__9__DR,
 235:Generated_Source\PSoC4/CapSense_Structure.c ****         (reg32 *)CapSense_Sns__9__PS,
 236:Generated_Source\PSoC4/CapSense_Structure.c ****         CapSense_Sns__9__HSIOM_MASK,
 237:Generated_Source\PSoC4/CapSense_Structure.c ****         CapSense_Sns__9__MASK,
 238:Generated_Source\PSoC4/CapSense_Structure.c ****         CapSense_Sns__9__HSIOM_SHIFT,
 239:Generated_Source\PSoC4/CapSense_Structure.c ****         (uint8)CapSense_Sns__9__SHIFT,
 240:Generated_Source\PSoC4/CapSense_Structure.c ****         (uint8)CapSense_Sns__9__SHIFT * 3u,
 241:Generated_Source\PSoC4/CapSense_Structure.c ****     },
 242:Generated_Source\PSoC4/CapSense_Structure.c ****     { /* 10: Slider_Sns10 */
 243:Generated_Source\PSoC4/CapSense_Structure.c ****         (reg32 *)CapSense_Sns__10__HSIOM,
 244:Generated_Source\PSoC4/CapSense_Structure.c ****         (reg32 *)CapSense_Sns__10__PC,
 245:Generated_Source\PSoC4/CapSense_Structure.c ****         (reg32 *)CapSense_Sns__10__DR,
 246:Generated_Source\PSoC4/CapSense_Structure.c ****         (reg32 *)CapSense_Sns__10__PS,
 247:Generated_Source\PSoC4/CapSense_Structure.c ****         CapSense_Sns__10__HSIOM_MASK,
 248:Generated_Source\PSoC4/CapSense_Structure.c ****         CapSense_Sns__10__MASK,
 249:Generated_Source\PSoC4/CapSense_Structure.c ****         CapSense_Sns__10__HSIOM_SHIFT,
 250:Generated_Source\PSoC4/CapSense_Structure.c ****         (uint8)CapSense_Sns__10__SHIFT,
 251:Generated_Source\PSoC4/CapSense_Structure.c ****         (uint8)CapSense_Sns__10__SHIFT * 3u,
 252:Generated_Source\PSoC4/CapSense_Structure.c ****     },
 253:Generated_Source\PSoC4/CapSense_Structure.c ****     { /* 11: Slider_Sns11 */
 254:Generated_Source\PSoC4/CapSense_Structure.c ****         (reg32 *)CapSense_Sns__11__HSIOM,
 255:Generated_Source\PSoC4/CapSense_Structure.c ****         (reg32 *)CapSense_Sns__11__PC,
 256:Generated_Source\PSoC4/CapSense_Structure.c ****         (reg32 *)CapSense_Sns__11__DR,
 257:Generated_Source\PSoC4/CapSense_Structure.c ****         (reg32 *)CapSense_Sns__11__PS,
 258:Generated_Source\PSoC4/CapSense_Structure.c ****         CapSense_Sns__11__HSIOM_MASK,
 259:Generated_Source\PSoC4/CapSense_Structure.c ****         CapSense_Sns__11__MASK,
ARM GAS  C:\Users\Erik\AppData\Local\Temp\cc3TePUC.s 			page 6


 260:Generated_Source\PSoC4/CapSense_Structure.c ****         CapSense_Sns__11__HSIOM_SHIFT,
 261:Generated_Source\PSoC4/CapSense_Structure.c ****         (uint8)CapSense_Sns__11__SHIFT,
 262:Generated_Source\PSoC4/CapSense_Structure.c ****         (uint8)CapSense_Sns__11__SHIFT * 3u,
 263:Generated_Source\PSoC4/CapSense_Structure.c ****     },
 264:Generated_Source\PSoC4/CapSense_Structure.c ****     { /* 12: Slider_Sns12 */
 265:Generated_Source\PSoC4/CapSense_Structure.c ****         (reg32 *)CapSense_Sns__12__HSIOM,
 266:Generated_Source\PSoC4/CapSense_Structure.c ****         (reg32 *)CapSense_Sns__12__PC,
 267:Generated_Source\PSoC4/CapSense_Structure.c ****         (reg32 *)CapSense_Sns__12__DR,
 268:Generated_Source\PSoC4/CapSense_Structure.c ****         (reg32 *)CapSense_Sns__12__PS,
 269:Generated_Source\PSoC4/CapSense_Structure.c ****         CapSense_Sns__12__HSIOM_MASK,
 270:Generated_Source\PSoC4/CapSense_Structure.c ****         CapSense_Sns__12__MASK,
 271:Generated_Source\PSoC4/CapSense_Structure.c ****         CapSense_Sns__12__HSIOM_SHIFT,
 272:Generated_Source\PSoC4/CapSense_Structure.c ****         (uint8)CapSense_Sns__12__SHIFT,
 273:Generated_Source\PSoC4/CapSense_Structure.c ****         (uint8)CapSense_Sns__12__SHIFT * 3u,
 274:Generated_Source\PSoC4/CapSense_Structure.c ****     },
 275:Generated_Source\PSoC4/CapSense_Structure.c ****     { /* 13: Slider_Sns13 */
 276:Generated_Source\PSoC4/CapSense_Structure.c ****         (reg32 *)CapSense_Sns__13__HSIOM,
 277:Generated_Source\PSoC4/CapSense_Structure.c ****         (reg32 *)CapSense_Sns__13__PC,
 278:Generated_Source\PSoC4/CapSense_Structure.c ****         (reg32 *)CapSense_Sns__13__DR,
 279:Generated_Source\PSoC4/CapSense_Structure.c ****         (reg32 *)CapSense_Sns__13__PS,
 280:Generated_Source\PSoC4/CapSense_Structure.c ****         CapSense_Sns__13__HSIOM_MASK,
 281:Generated_Source\PSoC4/CapSense_Structure.c ****         CapSense_Sns__13__MASK,
 282:Generated_Source\PSoC4/CapSense_Structure.c ****         CapSense_Sns__13__HSIOM_SHIFT,
 283:Generated_Source\PSoC4/CapSense_Structure.c ****         (uint8)CapSense_Sns__13__SHIFT,
 284:Generated_Source\PSoC4/CapSense_Structure.c ****         (uint8)CapSense_Sns__13__SHIFT * 3u,
 285:Generated_Source\PSoC4/CapSense_Structure.c ****     },
 286:Generated_Source\PSoC4/CapSense_Structure.c ****     { /* 14: Slider_Sns14 */
 287:Generated_Source\PSoC4/CapSense_Structure.c ****         (reg32 *)CapSense_Sns__14__HSIOM,
 288:Generated_Source\PSoC4/CapSense_Structure.c ****         (reg32 *)CapSense_Sns__14__PC,
 289:Generated_Source\PSoC4/CapSense_Structure.c ****         (reg32 *)CapSense_Sns__14__DR,
 290:Generated_Source\PSoC4/CapSense_Structure.c ****         (reg32 *)CapSense_Sns__14__PS,
 291:Generated_Source\PSoC4/CapSense_Structure.c ****         CapSense_Sns__14__HSIOM_MASK,
 292:Generated_Source\PSoC4/CapSense_Structure.c ****         CapSense_Sns__14__MASK,
 293:Generated_Source\PSoC4/CapSense_Structure.c ****         CapSense_Sns__14__HSIOM_SHIFT,
 294:Generated_Source\PSoC4/CapSense_Structure.c ****         (uint8)CapSense_Sns__14__SHIFT,
 295:Generated_Source\PSoC4/CapSense_Structure.c ****         (uint8)CapSense_Sns__14__SHIFT * 3u,
 296:Generated_Source\PSoC4/CapSense_Structure.c ****     },
 297:Generated_Source\PSoC4/CapSense_Structure.c ****     { /* 15: Slider_Sns15 */
 298:Generated_Source\PSoC4/CapSense_Structure.c ****         (reg32 *)CapSense_Sns__15__HSIOM,
 299:Generated_Source\PSoC4/CapSense_Structure.c ****         (reg32 *)CapSense_Sns__15__PC,
 300:Generated_Source\PSoC4/CapSense_Structure.c ****         (reg32 *)CapSense_Sns__15__DR,
 301:Generated_Source\PSoC4/CapSense_Structure.c ****         (reg32 *)CapSense_Sns__15__PS,
 302:Generated_Source\PSoC4/CapSense_Structure.c ****         CapSense_Sns__15__HSIOM_MASK,
 303:Generated_Source\PSoC4/CapSense_Structure.c ****         CapSense_Sns__15__MASK,
 304:Generated_Source\PSoC4/CapSense_Structure.c ****         CapSense_Sns__15__HSIOM_SHIFT,
 305:Generated_Source\PSoC4/CapSense_Structure.c ****         (uint8)CapSense_Sns__15__SHIFT,
 306:Generated_Source\PSoC4/CapSense_Structure.c ****         (uint8)CapSense_Sns__15__SHIFT * 3u,
 307:Generated_Source\PSoC4/CapSense_Structure.c ****     },
 308:Generated_Source\PSoC4/CapSense_Structure.c ****     { /* 16: Slider_Sns16 */
 309:Generated_Source\PSoC4/CapSense_Structure.c ****         (reg32 *)CapSense_Sns__16__HSIOM,
 310:Generated_Source\PSoC4/CapSense_Structure.c ****         (reg32 *)CapSense_Sns__16__PC,
 311:Generated_Source\PSoC4/CapSense_Structure.c ****         (reg32 *)CapSense_Sns__16__DR,
 312:Generated_Source\PSoC4/CapSense_Structure.c ****         (reg32 *)CapSense_Sns__16__PS,
 313:Generated_Source\PSoC4/CapSense_Structure.c ****         CapSense_Sns__16__HSIOM_MASK,
 314:Generated_Source\PSoC4/CapSense_Structure.c ****         CapSense_Sns__16__MASK,
 315:Generated_Source\PSoC4/CapSense_Structure.c ****         CapSense_Sns__16__HSIOM_SHIFT,
 316:Generated_Source\PSoC4/CapSense_Structure.c ****         (uint8)CapSense_Sns__16__SHIFT,
ARM GAS  C:\Users\Erik\AppData\Local\Temp\cc3TePUC.s 			page 7


 317:Generated_Source\PSoC4/CapSense_Structure.c ****         (uint8)CapSense_Sns__16__SHIFT * 3u,
 318:Generated_Source\PSoC4/CapSense_Structure.c ****     },
 319:Generated_Source\PSoC4/CapSense_Structure.c ****     { /* 17: Slider_Sns17 */
 320:Generated_Source\PSoC4/CapSense_Structure.c ****         (reg32 *)CapSense_Sns__17__HSIOM,
 321:Generated_Source\PSoC4/CapSense_Structure.c ****         (reg32 *)CapSense_Sns__17__PC,
 322:Generated_Source\PSoC4/CapSense_Structure.c ****         (reg32 *)CapSense_Sns__17__DR,
 323:Generated_Source\PSoC4/CapSense_Structure.c ****         (reg32 *)CapSense_Sns__17__PS,
 324:Generated_Source\PSoC4/CapSense_Structure.c ****         CapSense_Sns__17__HSIOM_MASK,
 325:Generated_Source\PSoC4/CapSense_Structure.c ****         CapSense_Sns__17__MASK,
 326:Generated_Source\PSoC4/CapSense_Structure.c ****         CapSense_Sns__17__HSIOM_SHIFT,
 327:Generated_Source\PSoC4/CapSense_Structure.c ****         (uint8)CapSense_Sns__17__SHIFT,
 328:Generated_Source\PSoC4/CapSense_Structure.c ****         (uint8)CapSense_Sns__17__SHIFT * 3u,
 329:Generated_Source\PSoC4/CapSense_Structure.c ****     },
 330:Generated_Source\PSoC4/CapSense_Structure.c ****     { /* 18: Slider_Sns18 */
 331:Generated_Source\PSoC4/CapSense_Structure.c ****         (reg32 *)CapSense_Sns__18__HSIOM,
 332:Generated_Source\PSoC4/CapSense_Structure.c ****         (reg32 *)CapSense_Sns__18__PC,
 333:Generated_Source\PSoC4/CapSense_Structure.c ****         (reg32 *)CapSense_Sns__18__DR,
 334:Generated_Source\PSoC4/CapSense_Structure.c ****         (reg32 *)CapSense_Sns__18__PS,
 335:Generated_Source\PSoC4/CapSense_Structure.c ****         CapSense_Sns__18__HSIOM_MASK,
 336:Generated_Source\PSoC4/CapSense_Structure.c ****         CapSense_Sns__18__MASK,
 337:Generated_Source\PSoC4/CapSense_Structure.c ****         CapSense_Sns__18__HSIOM_SHIFT,
 338:Generated_Source\PSoC4/CapSense_Structure.c ****         (uint8)CapSense_Sns__18__SHIFT,
 339:Generated_Source\PSoC4/CapSense_Structure.c ****         (uint8)CapSense_Sns__18__SHIFT * 3u,
 340:Generated_Source\PSoC4/CapSense_Structure.c ****     },
 341:Generated_Source\PSoC4/CapSense_Structure.c ****     { /* 19: Slider_Sns19 */
 342:Generated_Source\PSoC4/CapSense_Structure.c ****         (reg32 *)CapSense_Sns__19__HSIOM,
 343:Generated_Source\PSoC4/CapSense_Structure.c ****         (reg32 *)CapSense_Sns__19__PC,
 344:Generated_Source\PSoC4/CapSense_Structure.c ****         (reg32 *)CapSense_Sns__19__DR,
 345:Generated_Source\PSoC4/CapSense_Structure.c ****         (reg32 *)CapSense_Sns__19__PS,
 346:Generated_Source\PSoC4/CapSense_Structure.c ****         CapSense_Sns__19__HSIOM_MASK,
 347:Generated_Source\PSoC4/CapSense_Structure.c ****         CapSense_Sns__19__MASK,
 348:Generated_Source\PSoC4/CapSense_Structure.c ****         CapSense_Sns__19__HSIOM_SHIFT,
 349:Generated_Source\PSoC4/CapSense_Structure.c ****         (uint8)CapSense_Sns__19__SHIFT,
 350:Generated_Source\PSoC4/CapSense_Structure.c ****         (uint8)CapSense_Sns__19__SHIFT * 3u,
 351:Generated_Source\PSoC4/CapSense_Structure.c ****     },
 352:Generated_Source\PSoC4/CapSense_Structure.c ****     { /* 20: Slider_Sns20 */
 353:Generated_Source\PSoC4/CapSense_Structure.c ****         (reg32 *)CapSense_Sns__20__HSIOM,
 354:Generated_Source\PSoC4/CapSense_Structure.c ****         (reg32 *)CapSense_Sns__20__PC,
 355:Generated_Source\PSoC4/CapSense_Structure.c ****         (reg32 *)CapSense_Sns__20__DR,
 356:Generated_Source\PSoC4/CapSense_Structure.c ****         (reg32 *)CapSense_Sns__20__PS,
 357:Generated_Source\PSoC4/CapSense_Structure.c ****         CapSense_Sns__20__HSIOM_MASK,
 358:Generated_Source\PSoC4/CapSense_Structure.c ****         CapSense_Sns__20__MASK,
 359:Generated_Source\PSoC4/CapSense_Structure.c ****         CapSense_Sns__20__HSIOM_SHIFT,
 360:Generated_Source\PSoC4/CapSense_Structure.c ****         (uint8)CapSense_Sns__20__SHIFT,
 361:Generated_Source\PSoC4/CapSense_Structure.c ****         (uint8)CapSense_Sns__20__SHIFT * 3u,
 362:Generated_Source\PSoC4/CapSense_Structure.c ****     },
 363:Generated_Source\PSoC4/CapSense_Structure.c ****     { /* 21: Slider_Sns21 */
 364:Generated_Source\PSoC4/CapSense_Structure.c ****         (reg32 *)CapSense_Sns__21__HSIOM,
 365:Generated_Source\PSoC4/CapSense_Structure.c ****         (reg32 *)CapSense_Sns__21__PC,
 366:Generated_Source\PSoC4/CapSense_Structure.c ****         (reg32 *)CapSense_Sns__21__DR,
 367:Generated_Source\PSoC4/CapSense_Structure.c ****         (reg32 *)CapSense_Sns__21__PS,
 368:Generated_Source\PSoC4/CapSense_Structure.c ****         CapSense_Sns__21__HSIOM_MASK,
 369:Generated_Source\PSoC4/CapSense_Structure.c ****         CapSense_Sns__21__MASK,
 370:Generated_Source\PSoC4/CapSense_Structure.c ****         CapSense_Sns__21__HSIOM_SHIFT,
 371:Generated_Source\PSoC4/CapSense_Structure.c ****         (uint8)CapSense_Sns__21__SHIFT,
 372:Generated_Source\PSoC4/CapSense_Structure.c ****         (uint8)CapSense_Sns__21__SHIFT * 3u,
 373:Generated_Source\PSoC4/CapSense_Structure.c ****     },
ARM GAS  C:\Users\Erik\AppData\Local\Temp\cc3TePUC.s 			page 8


 374:Generated_Source\PSoC4/CapSense_Structure.c ****     { /* 22: Slider_Sns22 */
 375:Generated_Source\PSoC4/CapSense_Structure.c ****         (reg32 *)CapSense_Sns__22__HSIOM,
 376:Generated_Source\PSoC4/CapSense_Structure.c ****         (reg32 *)CapSense_Sns__22__PC,
 377:Generated_Source\PSoC4/CapSense_Structure.c ****         (reg32 *)CapSense_Sns__22__DR,
 378:Generated_Source\PSoC4/CapSense_Structure.c ****         (reg32 *)CapSense_Sns__22__PS,
 379:Generated_Source\PSoC4/CapSense_Structure.c ****         CapSense_Sns__22__HSIOM_MASK,
 380:Generated_Source\PSoC4/CapSense_Structure.c ****         CapSense_Sns__22__MASK,
 381:Generated_Source\PSoC4/CapSense_Structure.c ****         CapSense_Sns__22__HSIOM_SHIFT,
 382:Generated_Source\PSoC4/CapSense_Structure.c ****         (uint8)CapSense_Sns__22__SHIFT,
 383:Generated_Source\PSoC4/CapSense_Structure.c ****         (uint8)CapSense_Sns__22__SHIFT * 3u,
 384:Generated_Source\PSoC4/CapSense_Structure.c ****     },
 385:Generated_Source\PSoC4/CapSense_Structure.c ****     { /* 23: Slider_Sns23 */
 386:Generated_Source\PSoC4/CapSense_Structure.c ****         (reg32 *)CapSense_Sns__23__HSIOM,
 387:Generated_Source\PSoC4/CapSense_Structure.c ****         (reg32 *)CapSense_Sns__23__PC,
 388:Generated_Source\PSoC4/CapSense_Structure.c ****         (reg32 *)CapSense_Sns__23__DR,
 389:Generated_Source\PSoC4/CapSense_Structure.c ****         (reg32 *)CapSense_Sns__23__PS,
 390:Generated_Source\PSoC4/CapSense_Structure.c ****         CapSense_Sns__23__HSIOM_MASK,
 391:Generated_Source\PSoC4/CapSense_Structure.c ****         CapSense_Sns__23__MASK,
 392:Generated_Source\PSoC4/CapSense_Structure.c ****         CapSense_Sns__23__HSIOM_SHIFT,
 393:Generated_Source\PSoC4/CapSense_Structure.c ****         (uint8)CapSense_Sns__23__SHIFT,
 394:Generated_Source\PSoC4/CapSense_Structure.c ****         (uint8)CapSense_Sns__23__SHIFT * 3u,
 395:Generated_Source\PSoC4/CapSense_Structure.c ****     },
 396:Generated_Source\PSoC4/CapSense_Structure.c ****     { /* 24: Slider_Sns24 */
 397:Generated_Source\PSoC4/CapSense_Structure.c ****         (reg32 *)CapSense_Sns__24__HSIOM,
 398:Generated_Source\PSoC4/CapSense_Structure.c ****         (reg32 *)CapSense_Sns__24__PC,
 399:Generated_Source\PSoC4/CapSense_Structure.c ****         (reg32 *)CapSense_Sns__24__DR,
 400:Generated_Source\PSoC4/CapSense_Structure.c ****         (reg32 *)CapSense_Sns__24__PS,
 401:Generated_Source\PSoC4/CapSense_Structure.c ****         CapSense_Sns__24__HSIOM_MASK,
 402:Generated_Source\PSoC4/CapSense_Structure.c ****         CapSense_Sns__24__MASK,
 403:Generated_Source\PSoC4/CapSense_Structure.c ****         CapSense_Sns__24__HSIOM_SHIFT,
 404:Generated_Source\PSoC4/CapSense_Structure.c ****         (uint8)CapSense_Sns__24__SHIFT,
 405:Generated_Source\PSoC4/CapSense_Structure.c ****         (uint8)CapSense_Sns__24__SHIFT * 3u,
 406:Generated_Source\PSoC4/CapSense_Structure.c ****     },
 407:Generated_Source\PSoC4/CapSense_Structure.c ****     { /* 25: Slider_Sns25 */
 408:Generated_Source\PSoC4/CapSense_Structure.c ****         (reg32 *)CapSense_Sns__25__HSIOM,
 409:Generated_Source\PSoC4/CapSense_Structure.c ****         (reg32 *)CapSense_Sns__25__PC,
 410:Generated_Source\PSoC4/CapSense_Structure.c ****         (reg32 *)CapSense_Sns__25__DR,
 411:Generated_Source\PSoC4/CapSense_Structure.c ****         (reg32 *)CapSense_Sns__25__PS,
 412:Generated_Source\PSoC4/CapSense_Structure.c ****         CapSense_Sns__25__HSIOM_MASK,
 413:Generated_Source\PSoC4/CapSense_Structure.c ****         CapSense_Sns__25__MASK,
 414:Generated_Source\PSoC4/CapSense_Structure.c ****         CapSense_Sns__25__HSIOM_SHIFT,
 415:Generated_Source\PSoC4/CapSense_Structure.c ****         (uint8)CapSense_Sns__25__SHIFT,
 416:Generated_Source\PSoC4/CapSense_Structure.c ****         (uint8)CapSense_Sns__25__SHIFT * 3u,
 417:Generated_Source\PSoC4/CapSense_Structure.c ****     },
 418:Generated_Source\PSoC4/CapSense_Structure.c ****     { /* 26: Slider_Sns26 */
 419:Generated_Source\PSoC4/CapSense_Structure.c ****         (reg32 *)CapSense_Sns__26__HSIOM,
 420:Generated_Source\PSoC4/CapSense_Structure.c ****         (reg32 *)CapSense_Sns__26__PC,
 421:Generated_Source\PSoC4/CapSense_Structure.c ****         (reg32 *)CapSense_Sns__26__DR,
 422:Generated_Source\PSoC4/CapSense_Structure.c ****         (reg32 *)CapSense_Sns__26__PS,
 423:Generated_Source\PSoC4/CapSense_Structure.c ****         CapSense_Sns__26__HSIOM_MASK,
 424:Generated_Source\PSoC4/CapSense_Structure.c ****         CapSense_Sns__26__MASK,
 425:Generated_Source\PSoC4/CapSense_Structure.c ****         CapSense_Sns__26__HSIOM_SHIFT,
 426:Generated_Source\PSoC4/CapSense_Structure.c ****         (uint8)CapSense_Sns__26__SHIFT,
 427:Generated_Source\PSoC4/CapSense_Structure.c ****         (uint8)CapSense_Sns__26__SHIFT * 3u,
 428:Generated_Source\PSoC4/CapSense_Structure.c ****     },
 429:Generated_Source\PSoC4/CapSense_Structure.c ****     { /* 27: Slider_Sns27 */
 430:Generated_Source\PSoC4/CapSense_Structure.c ****         (reg32 *)CapSense_Sns__27__HSIOM,
ARM GAS  C:\Users\Erik\AppData\Local\Temp\cc3TePUC.s 			page 9


 431:Generated_Source\PSoC4/CapSense_Structure.c ****         (reg32 *)CapSense_Sns__27__PC,
 432:Generated_Source\PSoC4/CapSense_Structure.c ****         (reg32 *)CapSense_Sns__27__DR,
 433:Generated_Source\PSoC4/CapSense_Structure.c ****         (reg32 *)CapSense_Sns__27__PS,
 434:Generated_Source\PSoC4/CapSense_Structure.c ****         CapSense_Sns__27__HSIOM_MASK,
 435:Generated_Source\PSoC4/CapSense_Structure.c ****         CapSense_Sns__27__MASK,
 436:Generated_Source\PSoC4/CapSense_Structure.c ****         CapSense_Sns__27__HSIOM_SHIFT,
 437:Generated_Source\PSoC4/CapSense_Structure.c ****         (uint8)CapSense_Sns__27__SHIFT,
 438:Generated_Source\PSoC4/CapSense_Structure.c ****         (uint8)CapSense_Sns__27__SHIFT * 3u,
 439:Generated_Source\PSoC4/CapSense_Structure.c ****     },
 440:Generated_Source\PSoC4/CapSense_Structure.c ****     { /* 28: Slider_Sns28 */
 441:Generated_Source\PSoC4/CapSense_Structure.c ****         (reg32 *)CapSense_Sns__28__HSIOM,
 442:Generated_Source\PSoC4/CapSense_Structure.c ****         (reg32 *)CapSense_Sns__28__PC,
 443:Generated_Source\PSoC4/CapSense_Structure.c ****         (reg32 *)CapSense_Sns__28__DR,
 444:Generated_Source\PSoC4/CapSense_Structure.c ****         (reg32 *)CapSense_Sns__28__PS,
 445:Generated_Source\PSoC4/CapSense_Structure.c ****         CapSense_Sns__28__HSIOM_MASK,
 446:Generated_Source\PSoC4/CapSense_Structure.c ****         CapSense_Sns__28__MASK,
 447:Generated_Source\PSoC4/CapSense_Structure.c ****         CapSense_Sns__28__HSIOM_SHIFT,
 448:Generated_Source\PSoC4/CapSense_Structure.c ****         (uint8)CapSense_Sns__28__SHIFT,
 449:Generated_Source\PSoC4/CapSense_Structure.c ****         (uint8)CapSense_Sns__28__SHIFT * 3u,
 450:Generated_Source\PSoC4/CapSense_Structure.c ****     },
 451:Generated_Source\PSoC4/CapSense_Structure.c ****     { /* 29: Slider_Sns29 */
 452:Generated_Source\PSoC4/CapSense_Structure.c ****         (reg32 *)CapSense_Sns__29__HSIOM,
 453:Generated_Source\PSoC4/CapSense_Structure.c ****         (reg32 *)CapSense_Sns__29__PC,
 454:Generated_Source\PSoC4/CapSense_Structure.c ****         (reg32 *)CapSense_Sns__29__DR,
 455:Generated_Source\PSoC4/CapSense_Structure.c ****         (reg32 *)CapSense_Sns__29__PS,
 456:Generated_Source\PSoC4/CapSense_Structure.c ****         CapSense_Sns__29__HSIOM_MASK,
 457:Generated_Source\PSoC4/CapSense_Structure.c ****         CapSense_Sns__29__MASK,
 458:Generated_Source\PSoC4/CapSense_Structure.c ****         CapSense_Sns__29__HSIOM_SHIFT,
 459:Generated_Source\PSoC4/CapSense_Structure.c ****         (uint8)CapSense_Sns__29__SHIFT,
 460:Generated_Source\PSoC4/CapSense_Structure.c ****         (uint8)CapSense_Sns__29__SHIFT * 3u,
 461:Generated_Source\PSoC4/CapSense_Structure.c ****     },
 462:Generated_Source\PSoC4/CapSense_Structure.c ****     { /* 30: Slider_Sns30 */
 463:Generated_Source\PSoC4/CapSense_Structure.c ****         (reg32 *)CapSense_Sns__30__HSIOM,
 464:Generated_Source\PSoC4/CapSense_Structure.c ****         (reg32 *)CapSense_Sns__30__PC,
 465:Generated_Source\PSoC4/CapSense_Structure.c ****         (reg32 *)CapSense_Sns__30__DR,
 466:Generated_Source\PSoC4/CapSense_Structure.c ****         (reg32 *)CapSense_Sns__30__PS,
 467:Generated_Source\PSoC4/CapSense_Structure.c ****         CapSense_Sns__30__HSIOM_MASK,
 468:Generated_Source\PSoC4/CapSense_Structure.c ****         CapSense_Sns__30__MASK,
 469:Generated_Source\PSoC4/CapSense_Structure.c ****         CapSense_Sns__30__HSIOM_SHIFT,
 470:Generated_Source\PSoC4/CapSense_Structure.c ****         (uint8)CapSense_Sns__30__SHIFT,
 471:Generated_Source\PSoC4/CapSense_Structure.c ****         (uint8)CapSense_Sns__30__SHIFT * 3u,
 472:Generated_Source\PSoC4/CapSense_Structure.c ****     },
 473:Generated_Source\PSoC4/CapSense_Structure.c ****     { /* 31: Slider_Sns31 */
 474:Generated_Source\PSoC4/CapSense_Structure.c ****         (reg32 *)CapSense_Sns__31__HSIOM,
 475:Generated_Source\PSoC4/CapSense_Structure.c ****         (reg32 *)CapSense_Sns__31__PC,
 476:Generated_Source\PSoC4/CapSense_Structure.c ****         (reg32 *)CapSense_Sns__31__DR,
 477:Generated_Source\PSoC4/CapSense_Structure.c ****         (reg32 *)CapSense_Sns__31__PS,
 478:Generated_Source\PSoC4/CapSense_Structure.c ****         CapSense_Sns__31__HSIOM_MASK,
 479:Generated_Source\PSoC4/CapSense_Structure.c ****         CapSense_Sns__31__MASK,
 480:Generated_Source\PSoC4/CapSense_Structure.c ****         CapSense_Sns__31__HSIOM_SHIFT,
 481:Generated_Source\PSoC4/CapSense_Structure.c ****         (uint8)CapSense_Sns__31__SHIFT,
 482:Generated_Source\PSoC4/CapSense_Structure.c ****         (uint8)CapSense_Sns__31__SHIFT * 3u,
 483:Generated_Source\PSoC4/CapSense_Structure.c ****     },
 484:Generated_Source\PSoC4/CapSense_Structure.c **** };
 485:Generated_Source\PSoC4/CapSense_Structure.c **** 
 486:Generated_Source\PSoC4/CapSense_Structure.c **** 
 487:Generated_Source\PSoC4/CapSense_Structure.c **** 
ARM GAS  C:\Users\Erik\AppData\Local\Temp\cc3TePUC.s 			page 10


 488:Generated_Source\PSoC4/CapSense_Structure.c **** /** \}
 489:Generated_Source\PSoC4/CapSense_Structure.c **** * \endcond */
 490:Generated_Source\PSoC4/CapSense_Structure.c **** 
 491:Generated_Source\PSoC4/CapSense_Structure.c **** /* Initialization data for RAM widget list */
 492:Generated_Source\PSoC4/CapSense_Structure.c **** const CapSense_RAM_WD_LIST_STRUCT CapSense_ramWidgetInit =
 493:Generated_Source\PSoC4/CapSense_Structure.c **** {
 494:Generated_Source\PSoC4/CapSense_Structure.c ****     { /* Slider */
 495:Generated_Source\PSoC4/CapSense_Structure.c ****         CapSense_SLIDER_RESOLUTION,
 496:Generated_Source\PSoC4/CapSense_Structure.c ****         CapSense_SLIDER_FINGER_TH,
 497:Generated_Source\PSoC4/CapSense_Structure.c ****         CapSense_SLIDER_NOISE_TH,
 498:Generated_Source\PSoC4/CapSense_Structure.c ****         CapSense_SLIDER_NNOISE_TH,
 499:Generated_Source\PSoC4/CapSense_Structure.c ****         CapSense_SLIDER_HYSTERESIS,
 500:Generated_Source\PSoC4/CapSense_Structure.c ****         CapSense_SLIDER_ON_DEBOUNCE,
 501:Generated_Source\PSoC4/CapSense_Structure.c ****         CapSense_SLIDER_LOW_BSLN_RST,
 502:Generated_Source\PSoC4/CapSense_Structure.c ****         {
 503:Generated_Source\PSoC4/CapSense_Structure.c ****             CapSense_SLIDER_IDAC_MOD0,
 504:Generated_Source\PSoC4/CapSense_Structure.c ****         },
 505:Generated_Source\PSoC4/CapSense_Structure.c ****         CapSense_SLIDER_IDAC_GAIN_INDEX,
 506:Generated_Source\PSoC4/CapSense_Structure.c ****         CapSense_SLIDER_SNS_CLK,
 507:Generated_Source\PSoC4/CapSense_Structure.c ****         CapSense_SLIDER_SNS_CLK_SOURCE,
 508:Generated_Source\PSoC4/CapSense_Structure.c ****         CapSense_SLIDER_FINGER_CAP,
 509:Generated_Source\PSoC4/CapSense_Structure.c ****         CapSense_SLIDER_SIGPFC,
 510:Generated_Source\PSoC4/CapSense_Structure.c ****     },
 511:Generated_Source\PSoC4/CapSense_Structure.c **** };
 512:Generated_Source\PSoC4/CapSense_Structure.c **** 
 513:Generated_Source\PSoC4/CapSense_Structure.c **** 
 514:Generated_Source\PSoC4/CapSense_Structure.c **** /* IDAC Initialization Data */
 515:Generated_Source\PSoC4/CapSense_Structure.c **** const uint8 CapSense_ramIdacInit[CapSense_TOTAL_SENSORS] =
 516:Generated_Source\PSoC4/CapSense_Structure.c **** {
 517:Generated_Source\PSoC4/CapSense_Structure.c ****     /* Slider */
 518:Generated_Source\PSoC4/CapSense_Structure.c ****     CapSense_SLIDER_SNS0_IDAC_COMP0,
 519:Generated_Source\PSoC4/CapSense_Structure.c ****     CapSense_SLIDER_SNS1_IDAC_COMP0,
 520:Generated_Source\PSoC4/CapSense_Structure.c ****     CapSense_SLIDER_SNS2_IDAC_COMP0,
 521:Generated_Source\PSoC4/CapSense_Structure.c ****     CapSense_SLIDER_SNS3_IDAC_COMP0,
 522:Generated_Source\PSoC4/CapSense_Structure.c ****     CapSense_SLIDER_SNS4_IDAC_COMP0,
 523:Generated_Source\PSoC4/CapSense_Structure.c ****     CapSense_SLIDER_SNS5_IDAC_COMP0,
 524:Generated_Source\PSoC4/CapSense_Structure.c ****     CapSense_SLIDER_SNS6_IDAC_COMP0,
 525:Generated_Source\PSoC4/CapSense_Structure.c ****     CapSense_SLIDER_SNS7_IDAC_COMP0,
 526:Generated_Source\PSoC4/CapSense_Structure.c ****     CapSense_SLIDER_SNS8_IDAC_COMP0,
 527:Generated_Source\PSoC4/CapSense_Structure.c ****     CapSense_SLIDER_SNS9_IDAC_COMP0,
 528:Generated_Source\PSoC4/CapSense_Structure.c ****     CapSense_SLIDER_SNS10_IDAC_COMP0,
 529:Generated_Source\PSoC4/CapSense_Structure.c ****     CapSense_SLIDER_SNS11_IDAC_COMP0,
 530:Generated_Source\PSoC4/CapSense_Structure.c ****     CapSense_SLIDER_SNS12_IDAC_COMP0,
 531:Generated_Source\PSoC4/CapSense_Structure.c ****     CapSense_SLIDER_SNS13_IDAC_COMP0,
 532:Generated_Source\PSoC4/CapSense_Structure.c ****     CapSense_SLIDER_SNS14_IDAC_COMP0,
 533:Generated_Source\PSoC4/CapSense_Structure.c ****     CapSense_SLIDER_SNS15_IDAC_COMP0,
 534:Generated_Source\PSoC4/CapSense_Structure.c ****     CapSense_SLIDER_SNS16_IDAC_COMP0,
 535:Generated_Source\PSoC4/CapSense_Structure.c ****     CapSense_SLIDER_SNS17_IDAC_COMP0,
 536:Generated_Source\PSoC4/CapSense_Structure.c ****     CapSense_SLIDER_SNS18_IDAC_COMP0,
 537:Generated_Source\PSoC4/CapSense_Structure.c ****     CapSense_SLIDER_SNS19_IDAC_COMP0,
 538:Generated_Source\PSoC4/CapSense_Structure.c ****     CapSense_SLIDER_SNS20_IDAC_COMP0,
 539:Generated_Source\PSoC4/CapSense_Structure.c ****     CapSense_SLIDER_SNS21_IDAC_COMP0,
 540:Generated_Source\PSoC4/CapSense_Structure.c ****     CapSense_SLIDER_SNS22_IDAC_COMP0,
 541:Generated_Source\PSoC4/CapSense_Structure.c ****     CapSense_SLIDER_SNS23_IDAC_COMP0,
 542:Generated_Source\PSoC4/CapSense_Structure.c ****     CapSense_SLIDER_SNS24_IDAC_COMP0,
 543:Generated_Source\PSoC4/CapSense_Structure.c ****     CapSense_SLIDER_SNS25_IDAC_COMP0,
 544:Generated_Source\PSoC4/CapSense_Structure.c ****     CapSense_SLIDER_SNS26_IDAC_COMP0,
ARM GAS  C:\Users\Erik\AppData\Local\Temp\cc3TePUC.s 			page 11


 545:Generated_Source\PSoC4/CapSense_Structure.c ****     CapSense_SLIDER_SNS27_IDAC_COMP0,
 546:Generated_Source\PSoC4/CapSense_Structure.c ****     CapSense_SLIDER_SNS28_IDAC_COMP0,
 547:Generated_Source\PSoC4/CapSense_Structure.c ****     CapSense_SLIDER_SNS29_IDAC_COMP0,
 548:Generated_Source\PSoC4/CapSense_Structure.c ****     CapSense_SLIDER_SNS30_IDAC_COMP0,
 549:Generated_Source\PSoC4/CapSense_Structure.c ****     CapSense_SLIDER_SNS31_IDAC_COMP0,
 550:Generated_Source\PSoC4/CapSense_Structure.c **** };
 551:Generated_Source\PSoC4/CapSense_Structure.c **** 
 552:Generated_Source\PSoC4/CapSense_Structure.c **** 
 553:Generated_Source\PSoC4/CapSense_Structure.c **** 
 554:Generated_Source\PSoC4/CapSense_Structure.c **** 
 555:Generated_Source\PSoC4/CapSense_Structure.c **** 
 556:Generated_Source\PSoC4/CapSense_Structure.c **** /*******************************************************************************
 557:Generated_Source\PSoC4/CapSense_Structure.c **** * Defines internal data types and statements
 558:Generated_Source\PSoC4/CapSense_Structure.c **** *******************************************************************************/
 559:Generated_Source\PSoC4/CapSense_Structure.c **** #define PARAM_TYPE_OFFSET       (30u)
 560:Generated_Source\PSoC4/CapSense_Structure.c **** #define PARAM_TYPE_MASK         (3Lu << PARAM_TYPE_OFFSET)
 561:Generated_Source\PSoC4/CapSense_Structure.c **** #define PARAM_RWBIT_OFFSET      (29u)
 562:Generated_Source\PSoC4/CapSense_Structure.c **** #define PARAM_RWBIT_MASK        (1Lu << PARAM_RWBIT_OFFSET)
 563:Generated_Source\PSoC4/CapSense_Structure.c **** #define PARAM_FBIT_OFFSET       (28u)
 564:Generated_Source\PSoC4/CapSense_Structure.c **** #define PARAM_FBIT_MASK         (1Lu << PARAM_FBIT_OFFSET)
 565:Generated_Source\PSoC4/CapSense_Structure.c **** #define PARAM_UBIT_OFFSET       (23u)
 566:Generated_Source\PSoC4/CapSense_Structure.c **** #define PARAM_UBIT_MASK         (1Lu << PARAM_UBIT_OFFSET)
 567:Generated_Source\PSoC4/CapSense_Structure.c **** #define PARAM_WDID_OFFSET       (16u)
 568:Generated_Source\PSoC4/CapSense_Structure.c **** #define PARAM_WDID_MASK         (0x7FLu << PARAM_WDID_OFFSET)
 569:Generated_Source\PSoC4/CapSense_Structure.c **** #define PARAM_CRC_OFFSET        (24u)
 570:Generated_Source\PSoC4/CapSense_Structure.c **** #define PARAM_CRC_MASK          (0x0FLu << PARAM_CRC_OFFSET)
 571:Generated_Source\PSoC4/CapSense_Structure.c **** 
 572:Generated_Source\PSoC4/CapSense_Structure.c **** /* Defines align masks for uint16 and uint32 */
 573:Generated_Source\PSoC4/CapSense_Structure.c **** #define UINT16_ALIGN_MASK       (1Lu)
 574:Generated_Source\PSoC4/CapSense_Structure.c **** #define UINT32_ALIGN_MASK       (3Lu)
 575:Generated_Source\PSoC4/CapSense_Structure.c **** 
 576:Generated_Source\PSoC4/CapSense_Structure.c **** /* Defines supported parameter types */
 577:Generated_Source\PSoC4/CapSense_Structure.c **** #define DS_PARAM_TYPE_UINT8     (0x01u)
 578:Generated_Source\PSoC4/CapSense_Structure.c **** #define DS_PARAM_TYPE_UINT16    (0x02u)
 579:Generated_Source\PSoC4/CapSense_Structure.c **** #define DS_PARAM_TYPE_UINT32    (0x03u)
 580:Generated_Source\PSoC4/CapSense_Structure.c **** 
 581:Generated_Source\PSoC4/CapSense_Structure.c **** 
 582:Generated_Source\PSoC4/CapSense_Structure.c **** /* Defines PARAM_ID structure */
 583:Generated_Source\PSoC4/CapSense_Structure.c **** typedef struct
 584:Generated_Source\PSoC4/CapSense_Structure.c **** {
 585:Generated_Source\PSoC4/CapSense_Structure.c ****     uint16 offset;      /* parameter offset */
 586:Generated_Source\PSoC4/CapSense_Structure.c ****     uint8  widgetId;    /* widget Id parameter belongs to */
 587:Generated_Source\PSoC4/CapSense_Structure.c ****     uint8  affectsCrc;  /* parameter affects widget CRC */
 588:Generated_Source\PSoC4/CapSense_Structure.c ****     uint8  crc;         /* parameter CRC */
 589:Generated_Source\PSoC4/CapSense_Structure.c ****     uint8  flash;       /* parameter located in FLASH flag */
 590:Generated_Source\PSoC4/CapSense_Structure.c ****     uint8  rw;          /* parameter is read/write flag */
 591:Generated_Source\PSoC4/CapSense_Structure.c ****     uint8  type;        /* parameter type: uint8/uint16/uint32 */
 592:Generated_Source\PSoC4/CapSense_Structure.c **** } PARAM_ID_STRUCT;
 593:Generated_Source\PSoC4/CapSense_Structure.c **** 
 594:Generated_Source\PSoC4/CapSense_Structure.c **** 
 595:Generated_Source\PSoC4/CapSense_Structure.c **** /*******************************************************************************
 596:Generated_Source\PSoC4/CapSense_Structure.c **** * Static Function Prototypes
 597:Generated_Source\PSoC4/CapSense_Structure.c **** *******************************************************************************/
 598:Generated_Source\PSoC4/CapSense_Structure.c **** /**
 599:Generated_Source\PSoC4/CapSense_Structure.c **** * \cond SECTION_C_INTERNAL
 600:Generated_Source\PSoC4/CapSense_Structure.c **** * \addtogroup group_c_internal
 601:Generated_Source\PSoC4/CapSense_Structure.c **** * \{
ARM GAS  C:\Users\Erik\AppData\Local\Temp\cc3TePUC.s 			page 12


 602:Generated_Source\PSoC4/CapSense_Structure.c **** */
 603:Generated_Source\PSoC4/CapSense_Structure.c **** 
 604:Generated_Source\PSoC4/CapSense_Structure.c **** 
 605:Generated_Source\PSoC4/CapSense_Structure.c **** 
 606:Generated_Source\PSoC4/CapSense_Structure.c **** static cystatus DsParseParamId(uint32 paramId, PARAM_ID_STRUCT *pData);
 607:Generated_Source\PSoC4/CapSense_Structure.c **** 
 608:Generated_Source\PSoC4/CapSense_Structure.c **** /** \}
 609:Generated_Source\PSoC4/CapSense_Structure.c **** * \endcond */
 610:Generated_Source\PSoC4/CapSense_Structure.c **** 
 611:Generated_Source\PSoC4/CapSense_Structure.c **** 
 612:Generated_Source\PSoC4/CapSense_Structure.c **** /*******************************************************************************
 613:Generated_Source\PSoC4/CapSense_Structure.c **** * Function Name: CapSense_DsInitialize
 614:Generated_Source\PSoC4/CapSense_Structure.c **** ****************************************************************************//**
 615:Generated_Source\PSoC4/CapSense_Structure.c **** *
 616:Generated_Source\PSoC4/CapSense_Structure.c **** * \brief
 617:Generated_Source\PSoC4/CapSense_Structure.c **** *   This function initializes the Data Structure storage.
 618:Generated_Source\PSoC4/CapSense_Structure.c **** *
 619:Generated_Source\PSoC4/CapSense_Structure.c **** * \details
 620:Generated_Source\PSoC4/CapSense_Structure.c **** *   This function copies the default widget configuration parameters
 621:Generated_Source\PSoC4/CapSense_Structure.c **** *   from the Flash storage into the RAM Data Structure.
 622:Generated_Source\PSoC4/CapSense_Structure.c **** *
 623:Generated_Source\PSoC4/CapSense_Structure.c **** *******************************************************************************/
 624:Generated_Source\PSoC4/CapSense_Structure.c **** void CapSense_DsInitialize(void)
 625:Generated_Source\PSoC4/CapSense_Structure.c **** {
 626:Generated_Source\PSoC4/CapSense_Structure.c ****     #if ((CapSense_ENABLE == CapSense_CSX_EN) || \
 627:Generated_Source\PSoC4/CapSense_Structure.c ****          (CapSense_ENABLE == CapSense_CSD_IDAC_COMP_EN) || \
 628:Generated_Source\PSoC4/CapSense_Structure.c ****         ((CapSense_ENABLE == CapSense_CSX_EN) && \
 629:Generated_Source\PSoC4/CapSense_Structure.c ****          (CapSense_ENABLE == CapSense_CSX_SKIP_OVSMPL_SPECIFIC_NODES)))
 630:Generated_Source\PSoC4/CapSense_Structure.c ****         uint32 snsId;
 631:Generated_Source\PSoC4/CapSense_Structure.c ****         uint32 wdgtId;
 632:Generated_Source\PSoC4/CapSense_Structure.c ****         CapSense_RAM_SNS_STRUCT * ptrSnsTmp;
 633:Generated_Source\PSoC4/CapSense_Structure.c ****         CapSense_FLASH_WD_STRUCT const * ptrFlashWdgt;
 634:Generated_Source\PSoC4/CapSense_Structure.c ****     #endif
 635:Generated_Source\PSoC4/CapSense_Structure.c **** 
 636:Generated_Source\PSoC4/CapSense_Structure.c ****     #if ((CapSense_ENABLE == CapSense_CSX_EN) && \
 637:Generated_Source\PSoC4/CapSense_Structure.c ****          (CapSense_ENABLE == CapSense_CSX_SKIP_OVSMPL_SPECIFIC_NODES))
 638:Generated_Source\PSoC4/CapSense_Structure.c ****         uint16 subConvNumber;
 639:Generated_Source\PSoC4/CapSense_Structure.c ****     #endif
 640:Generated_Source\PSoC4/CapSense_Structure.c **** 
 641:Generated_Source\PSoC4/CapSense_Structure.c ****     #if ((0u != CapSense_CSX_EN) || (0 != CapSense_CSD_IDAC_COMP_EN))
 642:Generated_Source\PSoC4/CapSense_Structure.c ****         uint8 const * ptrIdacInit = CapSense_ramIdacInit;
 643:Generated_Source\PSoC4/CapSense_Structure.c ****     #endif
 644:Generated_Source\PSoC4/CapSense_Structure.c **** 
 645:Generated_Source\PSoC4/CapSense_Structure.c ****     /* Reset RAM data structure content */
 646:Generated_Source\PSoC4/CapSense_Structure.c ****     (void)memset(&CapSense_dsRam, 0, sizeof(CapSense_dsRam));
 647:Generated_Source\PSoC4/CapSense_Structure.c **** 
 648:Generated_Source\PSoC4/CapSense_Structure.c ****     /* Initialize configId, deviceId and hwClock registers */
 649:Generated_Source\PSoC4/CapSense_Structure.c ****     CapSense_dsRam.configId = CapSense_CONFIG_ID;
 650:Generated_Source\PSoC4/CapSense_Structure.c ****     CapSense_dsRam.deviceId = CapSense_DEVICE_ID;
 651:Generated_Source\PSoC4/CapSense_Structure.c ****     CapSense_dsRam.hwClock = CapSense_HW_CLOCK;
 652:Generated_Source\PSoC4/CapSense_Structure.c **** 
 653:Generated_Source\PSoC4/CapSense_Structure.c ****     /* Initialize global RAM data */
 654:Generated_Source\PSoC4/CapSense_Structure.c ****     CapSense_dsRam.csd0Config = CapSense_CSD0_CONFIG;
 655:Generated_Source\PSoC4/CapSense_Structure.c **** 
 656:Generated_Source\PSoC4/CapSense_Structure.c ****     CapSense_dsRam.scanCurrentISC = CapSense_SNS_CONNECTION_UNDEFINED;
 657:Generated_Source\PSoC4/CapSense_Structure.c ****     #if (0u != CapSense_TOTAL_CSD_WIDGETS)
 658:Generated_Source\PSoC4/CapSense_Structure.c ****         CapSense_dsRam.modCsdClk = CapSense_CSD_SCANSPEED_DIVIDER;
ARM GAS  C:\Users\Erik\AppData\Local\Temp\cc3TePUC.s 			page 13


 659:Generated_Source\PSoC4/CapSense_Structure.c ****         CapSense_dsRam.scanCsdISC = CapSense_CSD_INACTIVE_SNS_CONNECTION;
 660:Generated_Source\PSoC4/CapSense_Structure.c **** 
 661:Generated_Source\PSoC4/CapSense_Structure.c ****         #if (0u != CapSense_CSD_COMMON_SNS_CLK_EN)
 662:Generated_Source\PSoC4/CapSense_Structure.c ****             CapSense_dsRam.snsCsdClk = CapSense_CSD_SNS_CLK_DIVIDER;
 663:Generated_Source\PSoC4/CapSense_Structure.c ****         #endif /* #if (0u != CapSense_CSD_COMMON_SNS_CLK_EN) */
 664:Generated_Source\PSoC4/CapSense_Structure.c ****     #endif /* #if (0u != CapSense_TOTAL_CSD_WIDGETS) */
 665:Generated_Source\PSoC4/CapSense_Structure.c **** 
 666:Generated_Source\PSoC4/CapSense_Structure.c ****     #if (CapSense_ENABLE == CapSense_CSX_EN)
 667:Generated_Source\PSoC4/CapSense_Structure.c ****         CapSense_dsRam.modCsxClk = CapSense_CSX_SCANSPEED_DIVIDER;
 668:Generated_Source\PSoC4/CapSense_Structure.c ****         CapSense_dsRam.scanCsxISC = CapSense_CSX_INACTIVE_SNS_CONNECTION;
 669:Generated_Source\PSoC4/CapSense_Structure.c **** 
 670:Generated_Source\PSoC4/CapSense_Structure.c ****         #if (0u != CapSense_CSX_COMMON_TX_CLK_EN)
 671:Generated_Source\PSoC4/CapSense_Structure.c ****             CapSense_dsRam.snsCsxClk = CapSense_CSX_TX_CLK_DIVIDER;
 672:Generated_Source\PSoC4/CapSense_Structure.c ****         #endif /* #if (0u != CapSense_CSX_COMMON_TX_CLK_EN) */
 673:Generated_Source\PSoC4/CapSense_Structure.c ****     #endif /* #if (CapSense_ENABLE == CapSense_CSX_EN) */
 674:Generated_Source\PSoC4/CapSense_Structure.c **** 
 675:Generated_Source\PSoC4/CapSense_Structure.c ****     #if (CapSense_ENABLE == CapSense_ISX_EN)
 676:Generated_Source\PSoC4/CapSense_Structure.c ****         CapSense_dsRam.modIsxClk = CapSense_ISX_SCANSPEED_DIVIDER;
 677:Generated_Source\PSoC4/CapSense_Structure.c ****     #endif /* #if (0u != CapSense_ISX_EN) */
 678:Generated_Source\PSoC4/CapSense_Structure.c **** 
 679:Generated_Source\PSoC4/CapSense_Structure.c ****     #if (0u != CapSense_SELF_TEST_EN)
 680:Generated_Source\PSoC4/CapSense_Structure.c **** 
 681:Generated_Source\PSoC4/CapSense_Structure.c ****         CapSense_dsRam.glbCrc = CapSense_GLB_CRC;
 682:Generated_Source\PSoC4/CapSense_Structure.c ****         CapSense_dsRam.selfTestConfig.fineInitTime = (uint8)CapSense_TST_FINE_INIT_TIME;
 683:Generated_Source\PSoC4/CapSense_Structure.c ****         CapSense_dsRam.selfTestConfig.startupDelay = CapSense_TST_ANALOG_STARTUP_DELAY_US;
 684:Generated_Source\PSoC4/CapSense_Structure.c **** 
 685:Generated_Source\PSoC4/CapSense_Structure.c ****         #if (0u != CapSense_TST_SNS_SHORT_EN)
 686:Generated_Source\PSoC4/CapSense_Structure.c ****             CapSense_dsRam.selfTestConfig.snsShortTimeUs = CapSense_TST_SNS_SHORT_TIME;
 687:Generated_Source\PSoC4/CapSense_Structure.c ****         #endif
 688:Generated_Source\PSoC4/CapSense_Structure.c **** 
 689:Generated_Source\PSoC4/CapSense_Structure.c ****         #if ((0u != CapSense_TST_SNS_CAP_EN) ||\
 690:Generated_Source\PSoC4/CapSense_Structure.c ****              (0u != CapSense_TST_SH_CAP_EN))
 691:Generated_Source\PSoC4/CapSense_Structure.c ****             CapSense_dsRam.selfTestConfig.snsCapSnsClkDivider = CapSense_TST_SNS_CAP_SNS_CLK_DIVIDE
 692:Generated_Source\PSoC4/CapSense_Structure.c ****             CapSense_dsRam.selfTestConfig.snsCapSnsClkHz = CapSense_TST_SNS_CAP_SNS_CLK_HZ;
 693:Generated_Source\PSoC4/CapSense_Structure.c ****             CapSense_dsRam.selfTestConfig.snsCapResolution = CapSense_TST_SNS_CAP_RESOLUTION;
 694:Generated_Source\PSoC4/CapSense_Structure.c ****             CapSense_dsRam.selfTestConfig.snsCapVrefGain = CapSense_TST_SNS_CAP_VREF_GAIN ;
 695:Generated_Source\PSoC4/CapSense_Structure.c ****             CapSense_dsRam.selfTestConfig.snsCapVrefVoltage = CapSense_TST_SNS_CAP_VREF_MV;
 696:Generated_Source\PSoC4/CapSense_Structure.c ****             CapSense_dsRam.selfTestConfig.snsCapModClkDivider = CapSense_TST_MOD_CLK_DIVIDER ;
 697:Generated_Source\PSoC4/CapSense_Structure.c ****             CapSense_dsRam.selfTestConfig.snsCapModClkKHz = CapSense_TST_MOD_CLK_KHZ ;
 698:Generated_Source\PSoC4/CapSense_Structure.c ****         #endif /* ((0u != CapSense_TST_SNS_CAP_EN) ||
 699:Generated_Source\PSoC4/CapSense_Structure.c ****                    (0u != CapSense_TST_SH_CAP_EN)) */
 700:Generated_Source\PSoC4/CapSense_Structure.c **** 
 701:Generated_Source\PSoC4/CapSense_Structure.c ****         #if (0u != CapSense_TST_SNS_CAP_EN)
 702:Generated_Source\PSoC4/CapSense_Structure.c ****             #if (0u != CapSense_CSD_EN)
 703:Generated_Source\PSoC4/CapSense_Structure.c ****                 CapSense_dsRam.selfTestConfig.bistCsdSnsCapISC = CapSense_SNS_CAP_CSD_INACTIVE_CONN
 704:Generated_Source\PSoC4/CapSense_Structure.c ****             #endif /* (0u != CapSense_CSD_EN) */
 705:Generated_Source\PSoC4/CapSense_Structure.c ****             #if (0u != CapSense_CSX_EN)
 706:Generated_Source\PSoC4/CapSense_Structure.c ****                 CapSense_dsRam.selfTestConfig.bistCsxSnsCapISC = CapSense_SNS_CAP_CSX_INACTIVE_CONN
 707:Generated_Source\PSoC4/CapSense_Structure.c ****             #endif /* (0u != CapSense_CSX_EN) */
 708:Generated_Source\PSoC4/CapSense_Structure.c ****         #endif /* (0u != CapSense_TST_SNS_CAP_EN) */
 709:Generated_Source\PSoC4/CapSense_Structure.c **** 
 710:Generated_Source\PSoC4/CapSense_Structure.c ****         #if (0u != CapSense_TST_SH_CAP_EN)
 711:Generated_Source\PSoC4/CapSense_Structure.c ****             #if ((0u != CapSense_CSD_EN) && (0u != CapSense_CSD_SHIELD_EN))
 712:Generated_Source\PSoC4/CapSense_Structure.c ****                 CapSense_dsRam.selfTestConfig.bistCsdShCapISC = CapSense_SHIELD_CAP_INACTIVE_CONNEC
 713:Generated_Source\PSoC4/CapSense_Structure.c ****             #endif /* ((0u != CapSense_CSD_EN) && (0u != CapSense_CSD_SHIELD_EN)) */
 714:Generated_Source\PSoC4/CapSense_Structure.c ****         #endif /* (0u != CapSense_TST_SH_CAP_EN) */
 715:Generated_Source\PSoC4/CapSense_Structure.c **** 
ARM GAS  C:\Users\Erik\AppData\Local\Temp\cc3TePUC.s 			page 14


 716:Generated_Source\PSoC4/CapSense_Structure.c ****         #if (0u != CapSense_TST_EXTERNAL_CAP_EN)
 717:Generated_Source\PSoC4/CapSense_Structure.c ****             CapSense_dsRam.selfTestConfig.extCapVrefGain = CapSense_TST_EXT_CAP_VREF_GAIN;
 718:Generated_Source\PSoC4/CapSense_Structure.c ****             CapSense_dsRam.selfTestConfig.extCapVrefVoltage = CapSense_TST_EXT_CAP_VREF_MV;
 719:Generated_Source\PSoC4/CapSense_Structure.c ****         #endif /* #if (0u != CapSense_TST_EXTERNAL_CAP_EN) */
 720:Generated_Source\PSoC4/CapSense_Structure.c **** 
 721:Generated_Source\PSoC4/CapSense_Structure.c ****         #if (0u != CapSense_TST_VDDA_EN)
 722:Generated_Source\PSoC4/CapSense_Structure.c ****             CapSense_dsRam.selfTestConfig.vddaResolution = CapSense_TST_VDDA_RESOLUTION;
 723:Generated_Source\PSoC4/CapSense_Structure.c ****             CapSense_dsRam.selfTestConfig.vddaModClkDivider = CapSense_TST_VDDA_MOD_CLK_DIVIDER;
 724:Generated_Source\PSoC4/CapSense_Structure.c **** 
 725:Generated_Source\PSoC4/CapSense_Structure.c ****             CapSense_dsRam.selfTestConfig.vddaVrefGain = CapSense_TST_VDDA_VREF_GAIN;
 726:Generated_Source\PSoC4/CapSense_Structure.c ****             CapSense_dsRam.selfTestConfig.vddaVrefVoltage = CapSense_TST_VDDA_VREF_MV;
 727:Generated_Source\PSoC4/CapSense_Structure.c ****         #endif /* #if (0u != CapSense_TST_VDDA_EN) */
 728:Generated_Source\PSoC4/CapSense_Structure.c **** 
 729:Generated_Source\PSoC4/CapSense_Structure.c ****     #endif /* #if (0u != CapSense_SELF_TEST_EN) */
 730:Generated_Source\PSoC4/CapSense_Structure.c **** 
 731:Generated_Source\PSoC4/CapSense_Structure.c ****     /* Initialize RAM widget data */
 732:Generated_Source\PSoC4/CapSense_Structure.c ****     CapSense_dsRam.wdgtList = CapSense_ramWidgetInit;
 733:Generated_Source\PSoC4/CapSense_Structure.c **** 
 734:Generated_Source\PSoC4/CapSense_Structure.c ****     /* Initialize Gesture configuration structure */
 735:Generated_Source\PSoC4/CapSense_Structure.c ****     #if ((0u != CapSense_GES_GLOBAL_EN) || (0u != CapSense_BALLISTIC_MULTIPLIER_EN))
 736:Generated_Source\PSoC4/CapSense_Structure.c ****         CapSense_dsRam.timestampInterval = CapSense_TIMESTAMP_INTERVAL;
 737:Generated_Source\PSoC4/CapSense_Structure.c ****     #endif /* ((0u != CapSense_GES_GLOBAL_EN) || (0u != CapSense_BALLISTIC_MULTIPLIER_EN)) */
 738:Generated_Source\PSoC4/CapSense_Structure.c **** 
 739:Generated_Source\PSoC4/CapSense_Structure.c ****     #if (0u != CapSense_GES_GLOBAL_EN)
 740:Generated_Source\PSoC4/CapSense_Structure.c ****         CapSense_dsRam.gestures = CapSense_ramGesturesInit;
 741:Generated_Source\PSoC4/CapSense_Structure.c ****     #endif /* (0u != CapSense_GES_GLOBAL_EN) */
 742:Generated_Source\PSoC4/CapSense_Structure.c **** 
 743:Generated_Source\PSoC4/CapSense_Structure.c ****     #if (0u != CapSense_BALLISTIC_MULTIPLIER_EN)
 744:Generated_Source\PSoC4/CapSense_Structure.c ****         CapSense_dsRam.ballisticConfig = CapSense_ramBallisticInit;
 745:Generated_Source\PSoC4/CapSense_Structure.c ****     #endif /* (0u != CapSense_BALLISTIC_MULTIPLIER_EN) */
 746:Generated_Source\PSoC4/CapSense_Structure.c **** 
 747:Generated_Source\PSoC4/CapSense_Structure.c ****     #if (0u != CapSense_CSX_EN) || (0 != CapSense_CSD_IDAC_COMP_EN)
 748:Generated_Source\PSoC4/CapSense_Structure.c ****         /* Initialize IDAC data */
 749:Generated_Source\PSoC4/CapSense_Structure.c ****         ptrFlashWdgt = CapSense_dsFlash.wdgtArray;
 750:Generated_Source\PSoC4/CapSense_Structure.c **** 
 751:Generated_Source\PSoC4/CapSense_Structure.c ****         for (wdgtId = CapSense_TOTAL_WIDGETS; wdgtId-- > 0u; )
 752:Generated_Source\PSoC4/CapSense_Structure.c ****         {
 753:Generated_Source\PSoC4/CapSense_Structure.c ****             ptrSnsTmp = ptrFlashWdgt->ptr2SnsRam;
 754:Generated_Source\PSoC4/CapSense_Structure.c **** 
 755:Generated_Source\PSoC4/CapSense_Structure.c ****             for (snsId = CapSense_GET_SNS_CNT_BY_PTR(ptrFlashWdgt); snsId-- > 0u;)
 756:Generated_Source\PSoC4/CapSense_Structure.c ****             {
 757:Generated_Source\PSoC4/CapSense_Structure.c ****                 ptrSnsTmp->idacComp[0u] = *ptrIdacInit;
 758:Generated_Source\PSoC4/CapSense_Structure.c ****                 ptrIdacInit++;
 759:Generated_Source\PSoC4/CapSense_Structure.c **** 
 760:Generated_Source\PSoC4/CapSense_Structure.c ****                 #if (0u != CapSense_MULTI_FREQ_SCAN_EN)
 761:Generated_Source\PSoC4/CapSense_Structure.c ****                     ptrSnsTmp->idacComp[1u] = *ptrIdacInit;
 762:Generated_Source\PSoC4/CapSense_Structure.c ****                     ptrIdacInit++;
 763:Generated_Source\PSoC4/CapSense_Structure.c **** 
 764:Generated_Source\PSoC4/CapSense_Structure.c ****                     ptrSnsTmp->idacComp[2u] = *ptrIdacInit;
 765:Generated_Source\PSoC4/CapSense_Structure.c ****                     ptrIdacInit++;
 766:Generated_Source\PSoC4/CapSense_Structure.c ****                 #endif /* #if (0u != CapSense_MULTI_FREQ_SCAN_EN) */
 767:Generated_Source\PSoC4/CapSense_Structure.c **** 
 768:Generated_Source\PSoC4/CapSense_Structure.c ****                 ptrSnsTmp++;
 769:Generated_Source\PSoC4/CapSense_Structure.c ****             }
 770:Generated_Source\PSoC4/CapSense_Structure.c **** 
 771:Generated_Source\PSoC4/CapSense_Structure.c ****             ptrFlashWdgt++; /* Move to next widget */
 772:Generated_Source\PSoC4/CapSense_Structure.c ****         }
ARM GAS  C:\Users\Erik\AppData\Local\Temp\cc3TePUC.s 			page 15


 773:Generated_Source\PSoC4/CapSense_Structure.c ****     #endif /*(0u != CapSense_CSX_EN) || (0 != CapSense_CSD_IDAC_COMP_EN)*/
 774:Generated_Source\PSoC4/CapSense_Structure.c **** 
 775:Generated_Source\PSoC4/CapSense_Structure.c ****     #if ((CapSense_ENABLE == CapSense_CSX_EN) && \
 776:Generated_Source\PSoC4/CapSense_Structure.c ****          (CapSense_ENABLE == CapSense_CSX_SKIP_OVSMPL_SPECIFIC_NODES))
 777:Generated_Source\PSoC4/CapSense_Structure.c ****         /* Initialize Sub-Conversion Number for each node of each CSX widget */
 778:Generated_Source\PSoC4/CapSense_Structure.c ****         ptrFlashWdgt = CapSense_dsFlash.wdgtArray;
 779:Generated_Source\PSoC4/CapSense_Structure.c ****         for (wdgtId = CapSense_TOTAL_WIDGETS; wdgtId-- > 0u;)
 780:Generated_Source\PSoC4/CapSense_Structure.c ****         {
 781:Generated_Source\PSoC4/CapSense_Structure.c ****             /* Check for widget sense method */
 782:Generated_Source\PSoC4/CapSense_Structure.c ****             if (CapSense_SENSE_METHOD_CSX_E == CapSense_GET_SENSE_METHOD(ptrFlashWdgt))
 783:Generated_Source\PSoC4/CapSense_Structure.c ****             {
 784:Generated_Source\PSoC4/CapSense_Structure.c ****                 /* Take the sub-convesion number of a CSX widget and initialize each node of this w
 785:Generated_Source\PSoC4/CapSense_Structure.c ****                 subConvNumber = ((CapSense_RAM_WD_BASE_STRUCT *)(ptrFlashWdgt->ptr2WdgtRam))->resol
 786:Generated_Source\PSoC4/CapSense_Structure.c ****                 ptrSnsTmp = ptrFlashWdgt->ptr2SnsRam;
 787:Generated_Source\PSoC4/CapSense_Structure.c ****                 for (snsId = CapSense_GET_SNS_CNT_BY_PTR(ptrFlashWdgt); snsId-- > 0u;)
 788:Generated_Source\PSoC4/CapSense_Structure.c ****                 {
 789:Generated_Source\PSoC4/CapSense_Structure.c ****                     ptrSnsTmp->subConvNum = subConvNumber;
 790:Generated_Source\PSoC4/CapSense_Structure.c ****                     ptrSnsTmp++;
 791:Generated_Source\PSoC4/CapSense_Structure.c ****                 }
 792:Generated_Source\PSoC4/CapSense_Structure.c ****             }
 793:Generated_Source\PSoC4/CapSense_Structure.c ****             /* Move to the next widget */
 794:Generated_Source\PSoC4/CapSense_Structure.c ****             ptrFlashWdgt++;
 795:Generated_Source\PSoC4/CapSense_Structure.c ****         }
 796:Generated_Source\PSoC4/CapSense_Structure.c ****     #endif /* ((CapSense_ENABLE == CapSense_CSX_EN) && \
 797:Generated_Source\PSoC4/CapSense_Structure.c ****                (CapSense_ENABLE == CapSense_CSX_SKIP_OVSMPL_SPECIFIC_NODES)) */
 798:Generated_Source\PSoC4/CapSense_Structure.c **** 
 799:Generated_Source\PSoC4/CapSense_Structure.c ****     #if (0u != CapSense_ADC_EN)
 800:Generated_Source\PSoC4/CapSense_Structure.c ****         CapSense_AdcDsInitialize();
 801:Generated_Source\PSoC4/CapSense_Structure.c ****     #endif /* (0u != CapSense_ADC_EN) */
 802:Generated_Source\PSoC4/CapSense_Structure.c **** }
 803:Generated_Source\PSoC4/CapSense_Structure.c **** 
 804:Generated_Source\PSoC4/CapSense_Structure.c **** 
 805:Generated_Source\PSoC4/CapSense_Structure.c **** #if (0u != CapSense_ADC_EN)
 806:Generated_Source\PSoC4/CapSense_Structure.c ****     /*******************************************************************************
 807:Generated_Source\PSoC4/CapSense_Structure.c ****     * Function Name: CapSense_AdcDsInitialize
 808:Generated_Source\PSoC4/CapSense_Structure.c ****     ****************************************************************************//**
 809:Generated_Source\PSoC4/CapSense_Structure.c ****     *
 810:Generated_Source\PSoC4/CapSense_Structure.c ****     * \brief
 811:Generated_Source\PSoC4/CapSense_Structure.c ****     *   Configures the initial Adc datastructure members.
 812:Generated_Source\PSoC4/CapSense_Structure.c ****     *
 813:Generated_Source\PSoC4/CapSense_Structure.c ****     *******************************************************************************/
 814:Generated_Source\PSoC4/CapSense_Structure.c ****     void CapSense_AdcDsInitialize(void)
 815:Generated_Source\PSoC4/CapSense_Structure.c ****     {
 816:Generated_Source\PSoC4/CapSense_Structure.c ****         CapSense_dsRam.adcResolution = CapSense_ADC_RESOLUTION;
 817:Generated_Source\PSoC4/CapSense_Structure.c ****         CapSense_dsRam.adcIdac = (uint8)(CapSense_ADC_IDAC_DEFAULT);
 818:Generated_Source\PSoC4/CapSense_Structure.c ****         CapSense_dsRam.adcActiveCh = CapSense_AdcNO_CHANNEL;
 819:Generated_Source\PSoC4/CapSense_Structure.c ****     }
 820:Generated_Source\PSoC4/CapSense_Structure.c **** #endif /* (0u != CapSense_ADC_EN) */
 821:Generated_Source\PSoC4/CapSense_Structure.c **** 
 822:Generated_Source\PSoC4/CapSense_Structure.c **** 
 823:Generated_Source\PSoC4/CapSense_Structure.c **** /*******************************************************************************
 824:Generated_Source\PSoC4/CapSense_Structure.c **** * Function Name: DsParseParamId
 825:Generated_Source\PSoC4/CapSense_Structure.c **** ****************************************************************************//**
 826:Generated_Source\PSoC4/CapSense_Structure.c **** *
 827:Generated_Source\PSoC4/CapSense_Structure.c **** * \brief
 828:Generated_Source\PSoC4/CapSense_Structure.c **** *   This function parses the parameter ID and checks its correctness.
 829:Generated_Source\PSoC4/CapSense_Structure.c **** *
ARM GAS  C:\Users\Erik\AppData\Local\Temp\cc3TePUC.s 			page 16


 830:Generated_Source\PSoC4/CapSense_Structure.c **** * \details
 831:Generated_Source\PSoC4/CapSense_Structure.c **** *   This function checks the parameter CRC if the self-test is enabled,
 832:Generated_Source\PSoC4/CapSense_Structure.c **** *   validates the offset value and parameter type.
 833:Generated_Source\PSoC4/CapSense_Structure.c **** *
 834:Generated_Source\PSoC4/CapSense_Structure.c **** * \param paramId The parameter to parse.
 835:Generated_Source\PSoC4/CapSense_Structure.c **** * \param pData   The pointer to the structure that will hold parsed data.
 836:Generated_Source\PSoC4/CapSense_Structure.c **** *
 837:Generated_Source\PSoC4/CapSense_Structure.c **** * \return CYRET_SUCCESS     If the parameter is valid
 838:Generated_Source\PSoC4/CapSense_Structure.c **** *         CYRET_BAD_PARAM   If the parameter is invalid
 839:Generated_Source\PSoC4/CapSense_Structure.c **** *
 840:Generated_Source\PSoC4/CapSense_Structure.c **** *******************************************************************************/
 841:Generated_Source\PSoC4/CapSense_Structure.c **** static cystatus DsParseParamId(uint32 paramId, PARAM_ID_STRUCT *pData)
 842:Generated_Source\PSoC4/CapSense_Structure.c **** {
  27              		.loc 1 842 0
  28              		.cfi_startproc
  29              		@ args = 0, pretend = 0, frame = 0
  30              		@ frame_needed = 0, uses_anonymous_args = 0
  31              	.LVL0:
  32 0000 70B5     		push	{r4, r5, r6, lr}
  33              		.cfi_def_cfa_offset 16
  34              		.cfi_offset 4, -16
  35              		.cfi_offset 5, -12
  36              		.cfi_offset 6, -8
  37              		.cfi_offset 14, -4
  38              	.LVL1:
 843:Generated_Source\PSoC4/CapSense_Structure.c ****     cystatus result = CYRET_SUCCESS;
 844:Generated_Source\PSoC4/CapSense_Structure.c **** 
 845:Generated_Source\PSoC4/CapSense_Structure.c ****     #if (0u != CapSense_SELF_TEST_EN)
 846:Generated_Source\PSoC4/CapSense_Structure.c ****         const uint8 crcTable[] =
 847:Generated_Source\PSoC4/CapSense_Structure.c ****         {
 848:Generated_Source\PSoC4/CapSense_Structure.c ****             0x00u, 0x09u, 0x0Bu, 0x02u, 0x0Fu, 0x06u, 0x04u, 0x0Du,
 849:Generated_Source\PSoC4/CapSense_Structure.c ****             0x07u, 0x0Eu, 0x0Cu, 0x05u, 0x08u, 0x01u, 0x03u, 0x0Au
 850:Generated_Source\PSoC4/CapSense_Structure.c ****         };
 851:Generated_Source\PSoC4/CapSense_Structure.c **** 
 852:Generated_Source\PSoC4/CapSense_Structure.c ****         uint32 i;
 853:Generated_Source\PSoC4/CapSense_Structure.c ****         uint32 actualCrc = 0u;
 854:Generated_Source\PSoC4/CapSense_Structure.c ****         uint32 crcIndex;
 855:Generated_Source\PSoC4/CapSense_Structure.c ****     #endif /* #if (0u != CapSense_SELF_TEST_EN) */
 856:Generated_Source\PSoC4/CapSense_Structure.c **** 
 857:Generated_Source\PSoC4/CapSense_Structure.c ****     /* Extract parameter data */
 858:Generated_Source\PSoC4/CapSense_Structure.c ****     pData->offset     = LO16(paramId);
  39              		.loc 1 858 0
  40 0002 85B2     		uxth	r5, r0
  41 0004 0D80     		strh	r5, [r1]
 859:Generated_Source\PSoC4/CapSense_Structure.c ****     pData->affectsCrc = LO8((paramId & PARAM_UBIT_MASK)  >> PARAM_UBIT_OFFSET);
  42              		.loc 1 859 0
  43 0006 C30D     		lsrs	r3, r0, #23
  44 0008 0124     		movs	r4, #1
  45 000a 2340     		ands	r3, r4
  46 000c CB70     		strb	r3, [r1, #3]
 860:Generated_Source\PSoC4/CapSense_Structure.c ****     pData->widgetId   = LO8((paramId & PARAM_WDID_MASK)  >> PARAM_WDID_OFFSET);
  47              		.loc 1 860 0
  48 000e 030C     		lsrs	r3, r0, #16
  49 0010 7F22     		movs	r2, #127
  50 0012 1340     		ands	r3, r2
  51 0014 8B70     		strb	r3, [r1, #2]
 861:Generated_Source\PSoC4/CapSense_Structure.c ****     pData->type       = LO8((paramId & PARAM_TYPE_MASK)  >> PARAM_TYPE_OFFSET);
ARM GAS  C:\Users\Erik\AppData\Local\Temp\cc3TePUC.s 			page 17


  52              		.loc 1 861 0
  53 0016 860F     		lsrs	r6, r0, #30
  54 0018 CE71     		strb	r6, [r1, #7]
 862:Generated_Source\PSoC4/CapSense_Structure.c ****     pData->flash      = LO8((paramId & PARAM_FBIT_MASK)  >> PARAM_FBIT_OFFSET);
  55              		.loc 1 862 0
  56 001a 030F     		lsrs	r3, r0, #28
  57 001c 2340     		ands	r3, r4
  58 001e 4B71     		strb	r3, [r1, #5]
 863:Generated_Source\PSoC4/CapSense_Structure.c ****     pData->rw         = LO8((paramId & PARAM_RWBIT_MASK) >> PARAM_RWBIT_OFFSET);
  59              		.loc 1 863 0
  60 0020 420F     		lsrs	r2, r0, #29
  61 0022 2240     		ands	r2, r4
  62 0024 8A71     		strb	r2, [r1, #6]
 864:Generated_Source\PSoC4/CapSense_Structure.c ****     pData->crc        = LO8((paramId & PARAM_CRC_MASK)   >> PARAM_CRC_OFFSET);
  63              		.loc 1 864 0
  64 0026 000E     		lsrs	r0, r0, #24
  65              	.LVL2:
  66 0028 0E34     		adds	r4, r4, #14
  67 002a 2040     		ands	r0, r4
  68 002c 0871     		strb	r0, [r1, #4]
 865:Generated_Source\PSoC4/CapSense_Structure.c **** 
 866:Generated_Source\PSoC4/CapSense_Structure.c ****     /* Check parameter CRC if self-test is enabled */
 867:Generated_Source\PSoC4/CapSense_Structure.c ****     #if (0u != CapSense_SELF_TEST_EN)
 868:Generated_Source\PSoC4/CapSense_Structure.c **** 
 869:Generated_Source\PSoC4/CapSense_Structure.c ****         /* Calculate CRC for bits 0..24.
 870:Generated_Source\PSoC4/CapSense_Structure.c ****          * The CRC is calculated using nibbles (4-bits).
 871:Generated_Source\PSoC4/CapSense_Structure.c ****          * So for 0..24 bits there are in total 6 nibbles. */
 872:Generated_Source\PSoC4/CapSense_Structure.c ****         for (i = 6u; i > 0u; i--)
 873:Generated_Source\PSoC4/CapSense_Structure.c ****         {
 874:Generated_Source\PSoC4/CapSense_Structure.c ****             crcIndex = actualCrc ^ (paramId & 0x0Fu);
 875:Generated_Source\PSoC4/CapSense_Structure.c ****             actualCrc = crcTable[crcIndex];
 876:Generated_Source\PSoC4/CapSense_Structure.c ****             paramId >>= 4u;
 877:Generated_Source\PSoC4/CapSense_Structure.c ****         }
 878:Generated_Source\PSoC4/CapSense_Structure.c **** 
 879:Generated_Source\PSoC4/CapSense_Structure.c ****         /* Add bits 28..32 */
 880:Generated_Source\PSoC4/CapSense_Structure.c ****         crcIndex = actualCrc ^ ((paramId >> 4u) & 0x0Fu);
 881:Generated_Source\PSoC4/CapSense_Structure.c ****         actualCrc = crcTable[crcIndex];
 882:Generated_Source\PSoC4/CapSense_Structure.c **** 
 883:Generated_Source\PSoC4/CapSense_Structure.c ****         /* Add bits 24..28 (CRC) */
 884:Generated_Source\PSoC4/CapSense_Structure.c ****         crcIndex = actualCrc ^ (paramId & 0x0Fu);
 885:Generated_Source\PSoC4/CapSense_Structure.c ****         actualCrc = crcTable[crcIndex];
 886:Generated_Source\PSoC4/CapSense_Structure.c **** 
 887:Generated_Source\PSoC4/CapSense_Structure.c ****         if (0u != actualCrc)
 888:Generated_Source\PSoC4/CapSense_Structure.c ****         {
 889:Generated_Source\PSoC4/CapSense_Structure.c ****             /* CRC mismatch */
 890:Generated_Source\PSoC4/CapSense_Structure.c ****             result = CYRET_BAD_PARAM;
 891:Generated_Source\PSoC4/CapSense_Structure.c ****         }
 892:Generated_Source\PSoC4/CapSense_Structure.c **** 
 893:Generated_Source\PSoC4/CapSense_Structure.c ****         if ((CYRET_SUCCESS == result) &&
 894:Generated_Source\PSoC4/CapSense_Structure.c ****             (0u != pData->affectsCrc) && (pData->widgetId >= CapSense_TOTAL_WIDGETS ))
 895:Generated_Source\PSoC4/CapSense_Structure.c ****         {
 896:Generated_Source\PSoC4/CapSense_Structure.c ****             /* Wrong widgetId for protected parameter */
 897:Generated_Source\PSoC4/CapSense_Structure.c ****             result = CYRET_BAD_PARAM;
 898:Generated_Source\PSoC4/CapSense_Structure.c ****         }
 899:Generated_Source\PSoC4/CapSense_Structure.c **** 
 900:Generated_Source\PSoC4/CapSense_Structure.c ****         /* Check offset value range */
 901:Generated_Source\PSoC4/CapSense_Structure.c ****         if (CYRET_SUCCESS == result)
ARM GAS  C:\Users\Erik\AppData\Local\Temp\cc3TePUC.s 			page 18


 902:Generated_Source\PSoC4/CapSense_Structure.c ****         {
 903:Generated_Source\PSoC4/CapSense_Structure.c ****             if (0u == pData->flash)
 904:Generated_Source\PSoC4/CapSense_Structure.c ****             {
 905:Generated_Source\PSoC4/CapSense_Structure.c ****                 /* Check offset for RAM Data Structure range */
 906:Generated_Source\PSoC4/CapSense_Structure.c ****                 if (pData->offset >= sizeof(CapSense_dsRam))
 907:Generated_Source\PSoC4/CapSense_Structure.c ****                 {
 908:Generated_Source\PSoC4/CapSense_Structure.c ****                     result = CYRET_BAD_PARAM;
 909:Generated_Source\PSoC4/CapSense_Structure.c ****                 }
 910:Generated_Source\PSoC4/CapSense_Structure.c ****             }
 911:Generated_Source\PSoC4/CapSense_Structure.c ****             else
 912:Generated_Source\PSoC4/CapSense_Structure.c ****             {
 913:Generated_Source\PSoC4/CapSense_Structure.c ****                 /* Check offset for Flash Data Structure range */
 914:Generated_Source\PSoC4/CapSense_Structure.c ****                 if (pData->offset >= sizeof(CapSense_dsFlash))
 915:Generated_Source\PSoC4/CapSense_Structure.c ****                 {
 916:Generated_Source\PSoC4/CapSense_Structure.c ****                     result = CYRET_BAD_PARAM;
 917:Generated_Source\PSoC4/CapSense_Structure.c ****                 }
 918:Generated_Source\PSoC4/CapSense_Structure.c **** 
 919:Generated_Source\PSoC4/CapSense_Structure.c ****                 /* Check if it is marked as Read Only */
 920:Generated_Source\PSoC4/CapSense_Structure.c ****                 if (0u != pData->rw)
 921:Generated_Source\PSoC4/CapSense_Structure.c ****                 {
 922:Generated_Source\PSoC4/CapSense_Structure.c ****                     result = CYRET_BAD_PARAM;
 923:Generated_Source\PSoC4/CapSense_Structure.c ****                 }
 924:Generated_Source\PSoC4/CapSense_Structure.c ****             }
 925:Generated_Source\PSoC4/CapSense_Structure.c ****         }
 926:Generated_Source\PSoC4/CapSense_Structure.c ****     #else /* #if (0u != CapSense_SELF_TEST_EN) */
 927:Generated_Source\PSoC4/CapSense_Structure.c ****         /* Check offset value range */
 928:Generated_Source\PSoC4/CapSense_Structure.c ****         if (0u == pData->flash)
  69              		.loc 1 928 0
  70 002e 002B     		cmp	r3, #0
  71 0030 05D1     		bne	.L2
 929:Generated_Source\PSoC4/CapSense_Structure.c ****         {
 930:Generated_Source\PSoC4/CapSense_Structure.c ****             /* Check offset for RAM Data Structure range */
 931:Generated_Source\PSoC4/CapSense_Structure.c ****             if (pData->offset >= sizeof(CapSense_dsRam))
  72              		.loc 1 931 0
  73 0032 7C23     		movs	r3, #124
  74 0034 FF33     		adds	r3, r3, #255
  75 0036 9D42     		cmp	r5, r3
  76 0038 09D8     		bhi	.L9
 843:Generated_Source\PSoC4/CapSense_Structure.c **** 
  77              		.loc 1 843 0
  78 003a 0020     		movs	r0, #0
  79 003c 0AE0     		b	.L3
  80              	.L2:
 932:Generated_Source\PSoC4/CapSense_Structure.c ****             {
 933:Generated_Source\PSoC4/CapSense_Structure.c ****                 result = CYRET_BAD_PARAM;
 934:Generated_Source\PSoC4/CapSense_Structure.c ****             }
 935:Generated_Source\PSoC4/CapSense_Structure.c ****         }
 936:Generated_Source\PSoC4/CapSense_Structure.c ****         else
 937:Generated_Source\PSoC4/CapSense_Structure.c ****         {
 938:Generated_Source\PSoC4/CapSense_Structure.c ****             /* Check offset for Flash Data Structure range */
 939:Generated_Source\PSoC4/CapSense_Structure.c ****             if (pData->offset >= sizeof(CapSense_dsFlash))
  81              		.loc 1 939 0
  82 003e 1F2D     		cmp	r5, #31
  83 0040 01D8     		bhi	.L10
 843:Generated_Source\PSoC4/CapSense_Structure.c **** 
  84              		.loc 1 843 0
  85 0042 0020     		movs	r0, #0
ARM GAS  C:\Users\Erik\AppData\Local\Temp\cc3TePUC.s 			page 19


  86 0044 00E0     		b	.L4
  87              	.L10:
 940:Generated_Source\PSoC4/CapSense_Structure.c ****             {
 941:Generated_Source\PSoC4/CapSense_Structure.c ****                 result = CYRET_BAD_PARAM;
  88              		.loc 1 941 0
  89 0046 0120     		movs	r0, #1
  90              	.L4:
  91              	.LVL3:
 942:Generated_Source\PSoC4/CapSense_Structure.c ****             }
 943:Generated_Source\PSoC4/CapSense_Structure.c **** 
 944:Generated_Source\PSoC4/CapSense_Structure.c ****             /* Check if it is marked as Read Only */
 945:Generated_Source\PSoC4/CapSense_Structure.c ****             if (0u != pData->rw)
  92              		.loc 1 945 0
  93 0048 002A     		cmp	r2, #0
  94 004a 02D1     		bne	.L11
  95 004c 02E0     		b	.L3
  96              	.LVL4:
  97              	.L9:
 933:Generated_Source\PSoC4/CapSense_Structure.c ****             }
  98              		.loc 1 933 0
  99 004e 0120     		movs	r0, #1
 100 0050 00E0     		b	.L3
 101              	.LVL5:
 102              	.L11:
 946:Generated_Source\PSoC4/CapSense_Structure.c ****             {
 947:Generated_Source\PSoC4/CapSense_Structure.c ****                 result = CYRET_BAD_PARAM;
 103              		.loc 1 947 0
 104 0052 0120     		movs	r0, #1
 105              	.LVL6:
 106              	.L3:
 948:Generated_Source\PSoC4/CapSense_Structure.c ****             }
 949:Generated_Source\PSoC4/CapSense_Structure.c ****         }
 950:Generated_Source\PSoC4/CapSense_Structure.c ****     #endif /* #if (0u != CapSense_SELF_TEST_EN) */
 951:Generated_Source\PSoC4/CapSense_Structure.c **** 
 952:Generated_Source\PSoC4/CapSense_Structure.c ****     if (CYRET_SUCCESS == result)
 107              		.loc 1 952 0
 108 0054 0028     		cmp	r0, #0
 109 0056 11D1     		bne	.L5
 953:Generated_Source\PSoC4/CapSense_Structure.c ****     {
 954:Generated_Source\PSoC4/CapSense_Structure.c ****         /* Check parameter type, offset alignment */
 955:Generated_Source\PSoC4/CapSense_Structure.c ****         switch (pData->type)
 110              		.loc 1 955 0
 111 0058 022E     		cmp	r6, #2
 112 005a 04D0     		beq	.L6
 113 005c 032E     		cmp	r6, #3
 114 005e 05D0     		beq	.L7
 115 0060 012E     		cmp	r6, #1
 116 0062 06D1     		bne	.L15
 117 0064 0AE0     		b	.L5
 118              	.L6:
 956:Generated_Source\PSoC4/CapSense_Structure.c ****         {
 957:Generated_Source\PSoC4/CapSense_Structure.c ****         case DS_PARAM_TYPE_UINT16:
 958:Generated_Source\PSoC4/CapSense_Structure.c ****             if (0u != (pData->offset & UINT16_ALIGN_MASK))
 119              		.loc 1 958 0
 120 0066 EB07     		lsls	r3, r5, #31
 121 0068 05D4     		bmi	.L13
 122 006a 07E0     		b	.L5
ARM GAS  C:\Users\Erik\AppData\Local\Temp\cc3TePUC.s 			page 20


 123              	.L7:
 959:Generated_Source\PSoC4/CapSense_Structure.c ****             {
 960:Generated_Source\PSoC4/CapSense_Structure.c ****                 result = CYRET_BAD_PARAM;
 961:Generated_Source\PSoC4/CapSense_Structure.c ****             }
 962:Generated_Source\PSoC4/CapSense_Structure.c ****             break;
 963:Generated_Source\PSoC4/CapSense_Structure.c **** 
 964:Generated_Source\PSoC4/CapSense_Structure.c ****         case DS_PARAM_TYPE_UINT32:
 965:Generated_Source\PSoC4/CapSense_Structure.c ****             if (0u != (pData->offset & UINT32_ALIGN_MASK))
 124              		.loc 1 965 0
 125 006c AB07     		lsls	r3, r5, #30
 126 006e 04D1     		bne	.L14
 127 0070 04E0     		b	.L5
 128              	.L15:
 966:Generated_Source\PSoC4/CapSense_Structure.c ****             {
 967:Generated_Source\PSoC4/CapSense_Structure.c ****                 result = CYRET_BAD_PARAM;
 968:Generated_Source\PSoC4/CapSense_Structure.c ****             }
 969:Generated_Source\PSoC4/CapSense_Structure.c ****             break;
 970:Generated_Source\PSoC4/CapSense_Structure.c **** 
 971:Generated_Source\PSoC4/CapSense_Structure.c ****         case DS_PARAM_TYPE_UINT8:
 972:Generated_Source\PSoC4/CapSense_Structure.c ****             break;
 973:Generated_Source\PSoC4/CapSense_Structure.c **** 
 974:Generated_Source\PSoC4/CapSense_Structure.c ****         default:
 975:Generated_Source\PSoC4/CapSense_Structure.c ****             result = CYRET_BAD_PARAM;
 129              		.loc 1 975 0
 130 0072 0120     		movs	r0, #1
 131              	.LVL7:
 132 0074 02E0     		b	.L5
 133              	.LVL8:
 134              	.L13:
 960:Generated_Source\PSoC4/CapSense_Structure.c ****             }
 135              		.loc 1 960 0
 136 0076 0120     		movs	r0, #1
 137              	.LVL9:
 138 0078 00E0     		b	.L5
 139              	.LVL10:
 140              	.L14:
 967:Generated_Source\PSoC4/CapSense_Structure.c ****             }
 141              		.loc 1 967 0
 142 007a 0120     		movs	r0, #1
 143              	.LVL11:
 144              	.L5:
 976:Generated_Source\PSoC4/CapSense_Structure.c ****             break;
 977:Generated_Source\PSoC4/CapSense_Structure.c ****         }
 978:Generated_Source\PSoC4/CapSense_Structure.c ****     }
 979:Generated_Source\PSoC4/CapSense_Structure.c **** 
 980:Generated_Source\PSoC4/CapSense_Structure.c ****     return result;
 981:Generated_Source\PSoC4/CapSense_Structure.c **** }
 145              		.loc 1 981 0
 146              		@ sp needed
 147 007c 70BD     		pop	{r4, r5, r6, pc}
 148              		.cfi_endproc
 149              	.LFE2:
 150              		.size	DsParseParamId, .-DsParseParamId
 151 007e C046     		.section	.text.CapSense_DsInitialize,"ax",%progbits
 152              		.align	2
 153              		.global	CapSense_DsInitialize
 154              		.code	16
ARM GAS  C:\Users\Erik\AppData\Local\Temp\cc3TePUC.s 			page 21


 155              		.thumb_func
 156              		.type	CapSense_DsInitialize, %function
 157              	CapSense_DsInitialize:
 158              	.LFB1:
 625:Generated_Source\PSoC4/CapSense_Structure.c ****     #if ((CapSense_ENABLE == CapSense_CSX_EN) || \
 159              		.loc 1 625 0
 160              		.cfi_startproc
 161              		@ args = 0, pretend = 0, frame = 0
 162              		@ frame_needed = 0, uses_anonymous_args = 0
 163 0000 70B5     		push	{r4, r5, r6, lr}
 164              		.cfi_def_cfa_offset 16
 165              		.cfi_offset 4, -16
 166              		.cfi_offset 5, -12
 167              		.cfi_offset 6, -8
 168              		.cfi_offset 14, -4
 169              	.LVL12:
 646:Generated_Source\PSoC4/CapSense_Structure.c **** 
 170              		.loc 1 646 0
 171 0002 184C     		ldr	r4, .L21
 172 0004 BE22     		movs	r2, #190
 173 0006 5200     		lsls	r2, r2, #1
 174 0008 0021     		movs	r1, #0
 175 000a 2000     		movs	r0, r4
 176 000c FFF7FEFF 		bl	memset
 177              	.LVL13:
 649:Generated_Source\PSoC4/CapSense_Structure.c ****     CapSense_dsRam.deviceId = CapSense_DEVICE_ID;
 178              		.loc 1 649 0
 179 0010 154B     		ldr	r3, .L21+4
 180 0012 2380     		strh	r3, [r4]
 651:Generated_Source\PSoC4/CapSense_Structure.c **** 
 181              		.loc 1 651 0
 182 0014 154B     		ldr	r3, .L21+8
 183 0016 A380     		strh	r3, [r4, #4]
 656:Generated_Source\PSoC4/CapSense_Structure.c ****     #if (0u != CapSense_TOTAL_CSD_WIDGETS)
 184              		.loc 1 656 0
 185 0018 0322     		movs	r2, #3
 186 001a 7C23     		movs	r3, #124
 187 001c FF33     		adds	r3, r3, #255
 188 001e E254     		strb	r2, [r4, r3]
 658:Generated_Source\PSoC4/CapSense_Structure.c ****         CapSense_dsRam.scanCsdISC = CapSense_CSD_INACTIVE_SNS_CONNECTION;
 189              		.loc 1 658 0
 190 0020 7A3B     		subs	r3, r3, #122
 191 0022 FF3B     		subs	r3, r3, #255
 192 0024 A377     		strb	r3, [r4, #30]
 732:Generated_Source\PSoC4/CapSense_Structure.c **** 
 193              		.loc 1 732 0
 194 0026 1249     		ldr	r1, .L21+12
 195 0028 2000     		movs	r0, r4
 196 002a 2030     		adds	r0, r0, #32
 197 002c 0B00     		movs	r3, r1
 198 002e 4033     		adds	r3, r3, #64
 199 0030 34CB     		ldmia	r3!, {r2, r4, r5}
 200 0032 34C0     		stmia	r0!, {r2, r4, r5}
 201 0034 14CB     		ldmia	r3!, {r2, r4}
 202 0036 14C0     		stmia	r0!, {r2, r4}
 203              	.LVL14:
 642:Generated_Source\PSoC4/CapSense_Structure.c ****     #endif
ARM GAS  C:\Users\Erik\AppData\Local\Temp\cc3TePUC.s 			page 22


 204              		.loc 1 642 0
 205 0038 0A00     		movs	r2, r1
 749:Generated_Source\PSoC4/CapSense_Structure.c **** 
 206              		.loc 1 749 0
 207 003a 2031     		adds	r1, r1, #32
 208 003c 0C00     		movs	r4, r1
 751:Generated_Source\PSoC4/CapSense_Structure.c ****         {
 209              		.loc 1 751 0
 210 003e 0123     		movs	r3, #1
 211 0040 0CE0     		b	.L17
 212              	.LVL15:
 213              	.L20:
 753:Generated_Source\PSoC4/CapSense_Structure.c **** 
 214              		.loc 1 753 0
 215 0042 A168     		ldr	r1, [r4, #8]
 216              	.LVL16:
 755:Generated_Source\PSoC4/CapSense_Structure.c ****             {
 217              		.loc 1 755 0
 218 0044 238B     		ldrh	r3, [r4, #24]
 219              	.LVL17:
 220 0046 04E0     		b	.L18
 221              	.LVL18:
 222              	.L19:
 757:Generated_Source\PSoC4/CapSense_Structure.c ****                 ptrIdacInit++;
 223              		.loc 1 757 0
 224 0048 1378     		ldrb	r3, [r2]
 225 004a 4B72     		strb	r3, [r1, #9]
 758:Generated_Source\PSoC4/CapSense_Structure.c **** 
 226              		.loc 1 758 0
 227 004c 0132     		adds	r2, r2, #1
 228              	.LVL19:
 768:Generated_Source\PSoC4/CapSense_Structure.c ****             }
 229              		.loc 1 768 0
 230 004e 0A31     		adds	r1, r1, #10
 231              	.LVL20:
 755:Generated_Source\PSoC4/CapSense_Structure.c ****             {
 232              		.loc 1 755 0
 233 0050 0300     		movs	r3, r0
 234              	.LVL21:
 235              	.L18:
 755:Generated_Source\PSoC4/CapSense_Structure.c ****             {
 236              		.loc 1 755 0 is_stmt 0 discriminator 1
 237 0052 581E     		subs	r0, r3, #1
 238              	.LVL22:
 239 0054 002B     		cmp	r3, #0
 240 0056 F7D1     		bne	.L19
 771:Generated_Source\PSoC4/CapSense_Structure.c ****         }
 241              		.loc 1 771 0 is_stmt 1
 242 0058 2034     		adds	r4, r4, #32
 243              	.LVL23:
 751:Generated_Source\PSoC4/CapSense_Structure.c ****         {
 244              		.loc 1 751 0
 245 005a 2B00     		movs	r3, r5
 246              	.LVL24:
 247              	.L17:
 751:Generated_Source\PSoC4/CapSense_Structure.c ****         {
 248              		.loc 1 751 0 is_stmt 0 discriminator 1
ARM GAS  C:\Users\Erik\AppData\Local\Temp\cc3TePUC.s 			page 23


 249 005c 5D1E     		subs	r5, r3, #1
 250              	.LVL25:
 251 005e 002B     		cmp	r3, #0
 252 0060 EFD1     		bne	.L20
 802:Generated_Source\PSoC4/CapSense_Structure.c **** 
 253              		.loc 1 802 0 is_stmt 1
 254              		@ sp needed
 255              	.LVL26:
 256              	.LVL27:
 257 0062 70BD     		pop	{r4, r5, r6, pc}
 258              	.L22:
 259              		.align	2
 260              	.L21:
 261 0064 00000000 		.word	CapSense_dsRam
 262 0068 FA92FFFF 		.word	-27910
 263 006c 70170000 		.word	6000
 264 0070 00000000 		.word	.LANCHOR0
 265              		.cfi_endproc
 266              	.LFE1:
 267              		.size	CapSense_DsInitialize, .-CapSense_DsInitialize
 268              		.section	.text.CapSense_GetParam,"ax",%progbits
 269              		.align	2
 270              		.global	CapSense_GetParam
 271              		.code	16
 272              		.thumb_func
 273              		.type	CapSense_GetParam, %function
 274              	CapSense_GetParam:
 275              	.LFB3:
 982:Generated_Source\PSoC4/CapSense_Structure.c **** 
 983:Generated_Source\PSoC4/CapSense_Structure.c **** /*******************************************************************************
 984:Generated_Source\PSoC4/CapSense_Structure.c **** * Function Name: CapSense_GetParam
 985:Generated_Source\PSoC4/CapSense_Structure.c **** ****************************************************************************//**
 986:Generated_Source\PSoC4/CapSense_Structure.c **** *
 987:Generated_Source\PSoC4/CapSense_Structure.c **** * \brief
 988:Generated_Source\PSoC4/CapSense_Structure.c **** *  Gets the specified parameter value from the \ref group_structures.
 989:Generated_Source\PSoC4/CapSense_Structure.c **** *
 990:Generated_Source\PSoC4/CapSense_Structure.c **** * \details
 991:Generated_Source\PSoC4/CapSense_Structure.c **** *  This function gets the value of the specified parameter by the paramId
 992:Generated_Source\PSoC4/CapSense_Structure.c **** *  argument. The paramId for each register is available in the
 993:Generated_Source\PSoC4/CapSense_Structure.c **** *  CapSense RegisterMap header file as
 994:Generated_Source\PSoC4/CapSense_Structure.c **** *  CapSense_<ParameterName>_PARAM_ID. The paramId is a special
 995:Generated_Source\PSoC4/CapSense_Structure.c **** *  enumerated value generated by the customizer. The format of paramId is as
 996:Generated_Source\PSoC4/CapSense_Structure.c **** *  follows:
 997:Generated_Source\PSoC4/CapSense_Structure.c **** *    1. [ byte 3 byte 2 byte 1 byte 0 ]
 998:Generated_Source\PSoC4/CapSense_Structure.c **** *    2. [ TTWFCCCC UIIIIIII MMMMMMMM LLLLLLLL ]
 999:Generated_Source\PSoC4/CapSense_Structure.c **** *    3. T - encodes the parameter type:
1000:Generated_Source\PSoC4/CapSense_Structure.c **** *      - 01b: uint8
1001:Generated_Source\PSoC4/CapSense_Structure.c **** *      - 10b: uint16
1002:Generated_Source\PSoC4/CapSense_Structure.c **** *      - 11b: uint32
1003:Generated_Source\PSoC4/CapSense_Structure.c **** *    4. W - indicates whether the parameter is writable:
1004:Generated_Source\PSoC4/CapSense_Structure.c **** *      - 0: ReadOnly
1005:Generated_Source\PSoC4/CapSense_Structure.c **** *      - 1: Read/Write
1006:Generated_Source\PSoC4/CapSense_Structure.c **** *    5. C - 4 bit CRC (X^3 + 1) of the whole paramId word, the C bits are
1007:Generated_Source\PSoC4/CapSense_Structure.c **** *       filled with 0s when the CRC is calculated.
1008:Generated_Source\PSoC4/CapSense_Structure.c **** *    6. U - indicates if the parameter affects the RAM Widget Object CRC.
1009:Generated_Source\PSoC4/CapSense_Structure.c **** *    7. I - specifies that the widgetId parameter belongs to
1010:Generated_Source\PSoC4/CapSense_Structure.c **** *    8. M,L - the parameter offset MSB and LSB accordingly in:
ARM GAS  C:\Users\Erik\AppData\Local\Temp\cc3TePUC.s 			page 24


1011:Generated_Source\PSoC4/CapSense_Structure.c **** *      - Flash Data Structure if W bit is 0.
1012:Generated_Source\PSoC4/CapSense_Structure.c **** *      - RAM Data Structure if W bit is 1.
1013:Generated_Source\PSoC4/CapSense_Structure.c **** *
1014:Generated_Source\PSoC4/CapSense_Structure.c **** *  Refer to the \ref group_structures section for details of the data structure
1015:Generated_Source\PSoC4/CapSense_Structure.c **** *  organization and examples of its register access.
1016:Generated_Source\PSoC4/CapSense_Structure.c **** *
1017:Generated_Source\PSoC4/CapSense_Structure.c **** * \param paramId
1018:Generated_Source\PSoC4/CapSense_Structure.c **** *  Specifies the ID of parameter to get its value.
1019:Generated_Source\PSoC4/CapSense_Structure.c **** *  A macro for the parameter ID can be found in the CapSense RegisterMap header
1020:Generated_Source\PSoC4/CapSense_Structure.c **** *  file defined as CapSense_<ParameterName>_PARAM_ID.
1021:Generated_Source\PSoC4/CapSense_Structure.c **** *
1022:Generated_Source\PSoC4/CapSense_Structure.c **** * \param value
1023:Generated_Source\PSoC4/CapSense_Structure.c **** *  The pointer to a variable to be updated with the obtained value.
1024:Generated_Source\PSoC4/CapSense_Structure.c **** *
1025:Generated_Source\PSoC4/CapSense_Structure.c **** * \return
1026:Generated_Source\PSoC4/CapSense_Structure.c **** *  Returns the status of the operation:
1027:Generated_Source\PSoC4/CapSense_Structure.c **** *    - CYRET_SUCCESS - The operation is successfully completed.
1028:Generated_Source\PSoC4/CapSense_Structure.c **** *    - CYRET_BAD_PARAM - The input parameter is invalid.
1029:Generated_Source\PSoC4/CapSense_Structure.c **** *
1030:Generated_Source\PSoC4/CapSense_Structure.c **** *******************************************************************************/
1031:Generated_Source\PSoC4/CapSense_Structure.c **** cystatus CapSense_GetParam(uint32 paramId, uint32 *value)
1032:Generated_Source\PSoC4/CapSense_Structure.c **** {
 276              		.loc 1 1032 0
 277              		.cfi_startproc
 278              		@ args = 0, pretend = 0, frame = 8
 279              		@ frame_needed = 0, uses_anonymous_args = 0
 280              	.LVL28:
 281 0000 30B5     		push	{r4, r5, lr}
 282              		.cfi_def_cfa_offset 12
 283              		.cfi_offset 4, -12
 284              		.cfi_offset 5, -8
 285              		.cfi_offset 14, -4
 286 0002 83B0     		sub	sp, sp, #12
 287              		.cfi_def_cfa_offset 24
 288 0004 0D00     		movs	r5, r1
1033:Generated_Source\PSoC4/CapSense_Structure.c ****     PARAM_ID_STRUCT pData;
1034:Generated_Source\PSoC4/CapSense_Structure.c ****     cystatus result;
1035:Generated_Source\PSoC4/CapSense_Structure.c **** 
1036:Generated_Source\PSoC4/CapSense_Structure.c ****     union
1037:Generated_Source\PSoC4/CapSense_Structure.c ****     {
1038:Generated_Source\PSoC4/CapSense_Structure.c ****         volatile void   const * ptr;
1039:Generated_Source\PSoC4/CapSense_Structure.c ****         volatile uint8  const * ptrUint8;
1040:Generated_Source\PSoC4/CapSense_Structure.c ****         volatile uint16 const * ptrUint16;
1041:Generated_Source\PSoC4/CapSense_Structure.c ****         volatile uint32 const * ptrUint32;
1042:Generated_Source\PSoC4/CapSense_Structure.c ****     } ptrData;
1043:Generated_Source\PSoC4/CapSense_Structure.c **** 
1044:Generated_Source\PSoC4/CapSense_Structure.c ****     result = DsParseParamId(paramId, &pData);
 289              		.loc 1 1044 0
 290 0006 6946     		mov	r1, sp
 291              	.LVL29:
 292 0008 FFF7FEFF 		bl	DsParseParamId
 293              	.LVL30:
 294 000c 041E     		subs	r4, r0, #0
 295              	.LVL31:
1045:Generated_Source\PSoC4/CapSense_Structure.c **** 
1046:Generated_Source\PSoC4/CapSense_Structure.c ****     /* Parse and validate paramId */
1047:Generated_Source\PSoC4/CapSense_Structure.c ****     if (CYRET_SUCCESS == result)
ARM GAS  C:\Users\Erik\AppData\Local\Temp\cc3TePUC.s 			page 25


 296              		.loc 1 1047 0
 297 000e 1FD1     		bne	.L24
1048:Generated_Source\PSoC4/CapSense_Structure.c ****     {
1049:Generated_Source\PSoC4/CapSense_Structure.c ****         /* Get base address of parameter */
1050:Generated_Source\PSoC4/CapSense_Structure.c ****         if (0u == pData.flash)
 298              		.loc 1 1050 0
 299 0010 6B46     		mov	r3, sp
 300 0012 5B79     		ldrb	r3, [r3, #5]
 301 0014 002B     		cmp	r3, #0
 302 0016 01D1     		bne	.L25
1051:Generated_Source\PSoC4/CapSense_Structure.c ****         {
1052:Generated_Source\PSoC4/CapSense_Structure.c ****             ptrData.ptr = &CapSense_dsRam;
 303              		.loc 1 1052 0
 304 0018 0F4A     		ldr	r2, .L30
 305              	.LVL32:
 306 001a 02E0     		b	.L26
 307              	.L25:
1053:Generated_Source\PSoC4/CapSense_Structure.c ****         }
1054:Generated_Source\PSoC4/CapSense_Structure.c ****         else
1055:Generated_Source\PSoC4/CapSense_Structure.c ****         {
1056:Generated_Source\PSoC4/CapSense_Structure.c ****             ptrData.ptr = &CapSense_dsFlash;
 308              		.loc 1 1056 0
 309 001c 0F4B     		ldr	r3, .L30+4
 310 001e 2033     		adds	r3, r3, #32
 311 0020 1A00     		movs	r2, r3
 312              	.L26:
1057:Generated_Source\PSoC4/CapSense_Structure.c ****         }
1058:Generated_Source\PSoC4/CapSense_Structure.c **** 
1059:Generated_Source\PSoC4/CapSense_Structure.c ****         /* Add offset to base address */
1060:Generated_Source\PSoC4/CapSense_Structure.c ****         ptrData.ptrUint8 += pData.offset;
 313              		.loc 1 1060 0
 314 0022 6B46     		mov	r3, sp
 315 0024 1B88     		ldrh	r3, [r3]
 316              	.LVL33:
 317 0026 D318     		adds	r3, r2, r3
1061:Generated_Source\PSoC4/CapSense_Structure.c **** 
1062:Generated_Source\PSoC4/CapSense_Structure.c ****         /* Read data */
1063:Generated_Source\PSoC4/CapSense_Structure.c ****         if (DS_PARAM_TYPE_UINT8 == pData.type)
 318              		.loc 1 1063 0
 319 0028 6A46     		mov	r2, sp
 320              	.LVL34:
 321 002a D279     		ldrb	r2, [r2, #7]
 322 002c 012A     		cmp	r2, #1
 323 002e 02D1     		bne	.L27
1064:Generated_Source\PSoC4/CapSense_Structure.c ****         {
1065:Generated_Source\PSoC4/CapSense_Structure.c ****             *value = (uint32) (*ptrData.ptrUint8);
 324              		.loc 1 1065 0
 325 0030 1B78     		ldrb	r3, [r3]
 326 0032 2B60     		str	r3, [r5]
 327 0034 0CE0     		b	.L24
 328              	.L27:
1066:Generated_Source\PSoC4/CapSense_Structure.c ****         }
1067:Generated_Source\PSoC4/CapSense_Structure.c ****         else if (DS_PARAM_TYPE_UINT16 == pData.type)
 329              		.loc 1 1067 0
 330 0036 022A     		cmp	r2, #2
 331 0038 02D1     		bne	.L28
1068:Generated_Source\PSoC4/CapSense_Structure.c ****         {
ARM GAS  C:\Users\Erik\AppData\Local\Temp\cc3TePUC.s 			page 26


1069:Generated_Source\PSoC4/CapSense_Structure.c ****             *value = (uint32) (*ptrData.ptrUint16);
 332              		.loc 1 1069 0
 333 003a 1B88     		ldrh	r3, [r3]
 334 003c 2B60     		str	r3, [r5]
 335 003e 07E0     		b	.L24
 336              	.L28:
1070:Generated_Source\PSoC4/CapSense_Structure.c ****         }
1071:Generated_Source\PSoC4/CapSense_Structure.c ****         else if (DS_PARAM_TYPE_UINT32 == pData.type)
 337              		.loc 1 1071 0
 338 0040 032A     		cmp	r2, #3
 339 0042 02D1     		bne	.L29
1072:Generated_Source\PSoC4/CapSense_Structure.c ****         {
1073:Generated_Source\PSoC4/CapSense_Structure.c ****             *value = *ptrData.ptrUint32;
 340              		.loc 1 1073 0
 341 0044 1B68     		ldr	r3, [r3]
 342 0046 2B60     		str	r3, [r5]
 343 0048 02E0     		b	.L24
 344              	.L29:
1074:Generated_Source\PSoC4/CapSense_Structure.c ****         }
1075:Generated_Source\PSoC4/CapSense_Structure.c ****         else
1076:Generated_Source\PSoC4/CapSense_Structure.c ****         {
1077:Generated_Source\PSoC4/CapSense_Structure.c ****             /* Parameter comes here already validated. */
1078:Generated_Source\PSoC4/CapSense_Structure.c ****             CYASSERT(0u);
 345              		.loc 1 1078 0 discriminator 1
 346 004a 0020     		movs	r0, #0
 347              	.LVL35:
 348 004c FFF7FEFF 		bl	CyHalt
 349              	.LVL36:
 350              	.L24:
1079:Generated_Source\PSoC4/CapSense_Structure.c ****         }
1080:Generated_Source\PSoC4/CapSense_Structure.c ****     }
1081:Generated_Source\PSoC4/CapSense_Structure.c **** 
1082:Generated_Source\PSoC4/CapSense_Structure.c ****     return result;
1083:Generated_Source\PSoC4/CapSense_Structure.c **** }
 351              		.loc 1 1083 0
 352 0050 2000     		movs	r0, r4
 353 0052 03B0     		add	sp, sp, #12
 354              		@ sp needed
 355              	.LVL37:
 356              	.LVL38:
 357 0054 30BD     		pop	{r4, r5, pc}
 358              	.L31:
 359 0056 C046     		.align	2
 360              	.L30:
 361 0058 00000000 		.word	CapSense_dsRam
 362 005c 00000000 		.word	.LANCHOR0
 363              		.cfi_endproc
 364              	.LFE3:
 365              		.size	CapSense_GetParam, .-CapSense_GetParam
 366              		.section	.text.CapSense_SetParam,"ax",%progbits
 367              		.align	2
 368              		.global	CapSense_SetParam
 369              		.code	16
 370              		.thumb_func
 371              		.type	CapSense_SetParam, %function
 372              	CapSense_SetParam:
 373              	.LFB4:
ARM GAS  C:\Users\Erik\AppData\Local\Temp\cc3TePUC.s 			page 27


1084:Generated_Source\PSoC4/CapSense_Structure.c **** 
1085:Generated_Source\PSoC4/CapSense_Structure.c **** 
1086:Generated_Source\PSoC4/CapSense_Structure.c **** /*******************************************************************************
1087:Generated_Source\PSoC4/CapSense_Structure.c **** * Function Name: CapSense_SetParam
1088:Generated_Source\PSoC4/CapSense_Structure.c **** ****************************************************************************//**
1089:Generated_Source\PSoC4/CapSense_Structure.c **** *
1090:Generated_Source\PSoC4/CapSense_Structure.c **** * \brief
1091:Generated_Source\PSoC4/CapSense_Structure.c **** *  Sets a new value for the specified parameter in the \ref group_structures.
1092:Generated_Source\PSoC4/CapSense_Structure.c **** *
1093:Generated_Source\PSoC4/CapSense_Structure.c **** * \details
1094:Generated_Source\PSoC4/CapSense_Structure.c **** *  This function sets the value of the specified parameter by the paramId
1095:Generated_Source\PSoC4/CapSense_Structure.c **** *  argument. The paramId for each register is available in the
1096:Generated_Source\PSoC4/CapSense_Structure.c **** *  CapSense RegisterMap header file as
1097:Generated_Source\PSoC4/CapSense_Structure.c **** *  CapSense_<ParameterName>_PARAM_ID. The paramId is a special
1098:Generated_Source\PSoC4/CapSense_Structure.c **** *  enumerated value generated by the customizer. The format of paramId is as
1099:Generated_Source\PSoC4/CapSense_Structure.c **** *  follows:
1100:Generated_Source\PSoC4/CapSense_Structure.c **** *    1. [ byte 3 byte 2 byte 1 byte 0 ]
1101:Generated_Source\PSoC4/CapSense_Structure.c **** *    2. [ TTWFCCCC UIIIIIII MMMMMMMM LLLLLLLL ]
1102:Generated_Source\PSoC4/CapSense_Structure.c **** *    3. T - encodes the parameter type:
1103:Generated_Source\PSoC4/CapSense_Structure.c **** *      - 01b: uint8
1104:Generated_Source\PSoC4/CapSense_Structure.c **** *      - 10b: uint16
1105:Generated_Source\PSoC4/CapSense_Structure.c **** *      - 11b: uint32
1106:Generated_Source\PSoC4/CapSense_Structure.c **** *    4. W - indicates whether the parameter is writable:
1107:Generated_Source\PSoC4/CapSense_Structure.c **** *      - 0: ReadOnly
1108:Generated_Source\PSoC4/CapSense_Structure.c **** *      - 1: Read/Write
1109:Generated_Source\PSoC4/CapSense_Structure.c **** *    5. C - 4 bit CRC (X^3 + 1) of the whole paramId word, the C bits are
1110:Generated_Source\PSoC4/CapSense_Structure.c **** *       filled with 0s when the CRC is calculated.
1111:Generated_Source\PSoC4/CapSense_Structure.c **** *    6. U - indicates if the parameter affects the RAM Widget Object CRC.
1112:Generated_Source\PSoC4/CapSense_Structure.c **** *    7. I - specifies that the widgetId parameter belongs to
1113:Generated_Source\PSoC4/CapSense_Structure.c **** *    8. M,L - the parameter offset MSB and LSB accordingly in:
1114:Generated_Source\PSoC4/CapSense_Structure.c **** *      - Flash Data Structure if W bit is 0.
1115:Generated_Source\PSoC4/CapSense_Structure.c **** *      - RAM Data Structure if W bit is 1.
1116:Generated_Source\PSoC4/CapSense_Structure.c **** *
1117:Generated_Source\PSoC4/CapSense_Structure.c **** *  Refer to the \ref group_structures section for details of the data structure
1118:Generated_Source\PSoC4/CapSense_Structure.c **** *  organization and examples of its register access.
1119:Generated_Source\PSoC4/CapSense_Structure.c **** *
1120:Generated_Source\PSoC4/CapSense_Structure.c **** *  This function writes specified value into the desired register without
1121:Generated_Source\PSoC4/CapSense_Structure.c **** *  other registers update. It is application layer responsibility to keep all
1122:Generated_Source\PSoC4/CapSense_Structure.c **** *  the data structure registers aligned. Repeated call of
1123:Generated_Source\PSoC4/CapSense_Structure.c **** *  CapSense_Start() function helps aligning dependent register values.
1124:Generated_Source\PSoC4/CapSense_Structure.c **** *
1125:Generated_Source\PSoC4/CapSense_Structure.c **** * \param paramId
1126:Generated_Source\PSoC4/CapSense_Structure.c **** *  Specifies the ID of parameter to set its value.
1127:Generated_Source\PSoC4/CapSense_Structure.c **** *  A macro for the parameter ID can be found in the CapSense RegisterMap header
1128:Generated_Source\PSoC4/CapSense_Structure.c **** *  file defined as CapSense_<ParameterName>_PARAM_ID.
1129:Generated_Source\PSoC4/CapSense_Structure.c **** 
1130:Generated_Source\PSoC4/CapSense_Structure.c **** * \param value
1131:Generated_Source\PSoC4/CapSense_Structure.c **** *  Specifies the new parameter's value.
1132:Generated_Source\PSoC4/CapSense_Structure.c **** *
1133:Generated_Source\PSoC4/CapSense_Structure.c **** * \return
1134:Generated_Source\PSoC4/CapSense_Structure.c **** *  Returns the status of the operation:
1135:Generated_Source\PSoC4/CapSense_Structure.c **** *    - CYRET_SUCCESS - The operation is successfully completed.
1136:Generated_Source\PSoC4/CapSense_Structure.c **** *    - CYRET_BAD_PARAM - The input parameter is invalid.
1137:Generated_Source\PSoC4/CapSense_Structure.c **** *
1138:Generated_Source\PSoC4/CapSense_Structure.c **** *******************************************************************************/
1139:Generated_Source\PSoC4/CapSense_Structure.c **** cystatus CapSense_SetParam(uint32 paramId, uint32 value)
1140:Generated_Source\PSoC4/CapSense_Structure.c **** {
ARM GAS  C:\Users\Erik\AppData\Local\Temp\cc3TePUC.s 			page 28


 374              		.loc 1 1140 0
 375              		.cfi_startproc
 376              		@ args = 0, pretend = 0, frame = 8
 377              		@ frame_needed = 0, uses_anonymous_args = 0
 378              	.LVL39:
 379 0000 30B5     		push	{r4, r5, lr}
 380              		.cfi_def_cfa_offset 12
 381              		.cfi_offset 4, -12
 382              		.cfi_offset 5, -8
 383              		.cfi_offset 14, -4
 384 0002 83B0     		sub	sp, sp, #12
 385              		.cfi_def_cfa_offset 24
 386 0004 0D00     		movs	r5, r1
1141:Generated_Source\PSoC4/CapSense_Structure.c ****     cystatus result;
1142:Generated_Source\PSoC4/CapSense_Structure.c ****     PARAM_ID_STRUCT pData;
1143:Generated_Source\PSoC4/CapSense_Structure.c **** 
1144:Generated_Source\PSoC4/CapSense_Structure.c ****     union
1145:Generated_Source\PSoC4/CapSense_Structure.c ****     {
1146:Generated_Source\PSoC4/CapSense_Structure.c ****         volatile void   * ptr;
1147:Generated_Source\PSoC4/CapSense_Structure.c ****         volatile uint8  * ptrUint8;
1148:Generated_Source\PSoC4/CapSense_Structure.c ****         volatile uint16 * ptrUint16;
1149:Generated_Source\PSoC4/CapSense_Structure.c ****         volatile uint32 * ptrUint32;
1150:Generated_Source\PSoC4/CapSense_Structure.c ****     } ptrData;
1151:Generated_Source\PSoC4/CapSense_Structure.c **** 
1152:Generated_Source\PSoC4/CapSense_Structure.c ****     result = DsParseParamId(paramId, &pData);
 387              		.loc 1 1152 0
 388 0006 6946     		mov	r1, sp
 389              	.LVL40:
 390 0008 FFF7FEFF 		bl	DsParseParamId
 391              	.LVL41:
 392 000c 041E     		subs	r4, r0, #0
 393              	.LVL42:
1153:Generated_Source\PSoC4/CapSense_Structure.c **** 
1154:Generated_Source\PSoC4/CapSense_Structure.c ****     /* verify if parameter is writable */
1155:Generated_Source\PSoC4/CapSense_Structure.c ****     if (CYRET_SUCCESS == result)
 394              		.loc 1 1155 0
 395 000e 04D1     		bne	.L33
1156:Generated_Source\PSoC4/CapSense_Structure.c ****     {
1157:Generated_Source\PSoC4/CapSense_Structure.c ****         if (0u == pData.rw)
 396              		.loc 1 1157 0
 397 0010 6B46     		mov	r3, sp
 398 0012 9B79     		ldrb	r3, [r3, #6]
 399 0014 002B     		cmp	r3, #0
 400 0016 00D1     		bne	.L33
1158:Generated_Source\PSoC4/CapSense_Structure.c ****         {
1159:Generated_Source\PSoC4/CapSense_Structure.c ****             result = CYRET_BAD_PARAM;
 401              		.loc 1 1159 0
 402 0018 0134     		adds	r4, r4, #1
 403              	.L33:
 404              	.LVL43:
1160:Generated_Source\PSoC4/CapSense_Structure.c ****         }
1161:Generated_Source\PSoC4/CapSense_Structure.c ****     }
1162:Generated_Source\PSoC4/CapSense_Structure.c **** 
1163:Generated_Source\PSoC4/CapSense_Structure.c ****     /* Parse and validate paramId */
1164:Generated_Source\PSoC4/CapSense_Structure.c ****     if (CYRET_SUCCESS == result)
 405              		.loc 1 1164 0
 406 001a 002C     		cmp	r4, #0
ARM GAS  C:\Users\Erik\AppData\Local\Temp\cc3TePUC.s 			page 29


 407 001c 16D1     		bne	.L34
1165:Generated_Source\PSoC4/CapSense_Structure.c ****     {
1166:Generated_Source\PSoC4/CapSense_Structure.c ****         /* Get base address of parameter */
1167:Generated_Source\PSoC4/CapSense_Structure.c ****         ptrData.ptr = &CapSense_dsRam;
1168:Generated_Source\PSoC4/CapSense_Structure.c **** 
1169:Generated_Source\PSoC4/CapSense_Structure.c ****         /* Add offset to base address */
1170:Generated_Source\PSoC4/CapSense_Structure.c ****         ptrData.ptrUint8 += pData.offset;
 408              		.loc 1 1170 0
 409 001e 6B46     		mov	r3, sp
 410 0020 1A88     		ldrh	r2, [r3]
 411 0022 0C4B     		ldr	r3, .L39
 412 0024 D318     		adds	r3, r2, r3
1171:Generated_Source\PSoC4/CapSense_Structure.c **** 
1172:Generated_Source\PSoC4/CapSense_Structure.c ****         /* Write data */
1173:Generated_Source\PSoC4/CapSense_Structure.c ****         if (DS_PARAM_TYPE_UINT8 == pData.type)
 413              		.loc 1 1173 0
 414 0026 6A46     		mov	r2, sp
 415 0028 D279     		ldrb	r2, [r2, #7]
 416 002a 012A     		cmp	r2, #1
 417 002c 02D1     		bne	.L35
1174:Generated_Source\PSoC4/CapSense_Structure.c ****         {
1175:Generated_Source\PSoC4/CapSense_Structure.c ****             *ptrData.ptrUint8 = LO8(value);
 418              		.loc 1 1175 0
 419 002e EDB2     		uxtb	r5, r5
 420              	.LVL44:
 421 0030 1D70     		strb	r5, [r3]
 422 0032 0BE0     		b	.L34
 423              	.LVL45:
 424              	.L35:
1176:Generated_Source\PSoC4/CapSense_Structure.c ****         }
1177:Generated_Source\PSoC4/CapSense_Structure.c ****         else if (DS_PARAM_TYPE_UINT16 == pData.type)
 425              		.loc 1 1177 0
 426 0034 022A     		cmp	r2, #2
 427 0036 02D1     		bne	.L36
1178:Generated_Source\PSoC4/CapSense_Structure.c ****         {
1179:Generated_Source\PSoC4/CapSense_Structure.c ****             *ptrData.ptrUint16 = LO16(value);
 428              		.loc 1 1179 0
 429 0038 ADB2     		uxth	r5, r5
 430              	.LVL46:
 431 003a 1D80     		strh	r5, [r3]
 432 003c 06E0     		b	.L34
 433              	.LVL47:
 434              	.L36:
1180:Generated_Source\PSoC4/CapSense_Structure.c ****         }
1181:Generated_Source\PSoC4/CapSense_Structure.c ****         else if (DS_PARAM_TYPE_UINT32 == pData.type)
 435              		.loc 1 1181 0
 436 003e 032A     		cmp	r2, #3
 437 0040 01D1     		bne	.L37
1182:Generated_Source\PSoC4/CapSense_Structure.c ****         {
1183:Generated_Source\PSoC4/CapSense_Structure.c ****             *ptrData.ptrUint32 = value;
 438              		.loc 1 1183 0
 439 0042 1D60     		str	r5, [r3]
 440 0044 02E0     		b	.L34
 441              	.L37:
1184:Generated_Source\PSoC4/CapSense_Structure.c ****         }
1185:Generated_Source\PSoC4/CapSense_Structure.c ****         else
1186:Generated_Source\PSoC4/CapSense_Structure.c ****         {
ARM GAS  C:\Users\Erik\AppData\Local\Temp\cc3TePUC.s 			page 30


1187:Generated_Source\PSoC4/CapSense_Structure.c ****             /* Parameter comes here already validated. */
1188:Generated_Source\PSoC4/CapSense_Structure.c ****             CYASSERT(0u);
 442              		.loc 1 1188 0 discriminator 1
 443 0046 0020     		movs	r0, #0
 444 0048 FFF7FEFF 		bl	CyHalt
 445              	.LVL48:
 446              	.L34:
1189:Generated_Source\PSoC4/CapSense_Structure.c ****         }
1190:Generated_Source\PSoC4/CapSense_Structure.c **** 
1191:Generated_Source\PSoC4/CapSense_Structure.c ****         #if (CapSense_ENABLE == (CapSense_TST_WDGT_CRC_EN || CapSense_TST_GLOBAL_CRC_EN))
1192:Generated_Source\PSoC4/CapSense_Structure.c ****             /* Update widget or global CRC if self-test is enabled and parameter affects it */
1193:Generated_Source\PSoC4/CapSense_Structure.c ****             if (0u != pData.affectsCrc)
1194:Generated_Source\PSoC4/CapSense_Structure.c ****             {
1195:Generated_Source\PSoC4/CapSense_Structure.c ****                 if ((ptrData.ptrUint16 >= &CapSense_dsRam.csd0Config) &&
1196:Generated_Source\PSoC4/CapSense_Structure.c ****                     (ptrData.ptrUint16 <  &CapSense_dsRam.glbCrc))
1197:Generated_Source\PSoC4/CapSense_Structure.c ****                 {
1198:Generated_Source\PSoC4/CapSense_Structure.c **** 
1199:Generated_Source\PSoC4/CapSense_Structure.c ****                     #if (CapSense_ENABLE == CapSense_TST_GLOBAL_CRC_EN)
1200:Generated_Source\PSoC4/CapSense_Structure.c ****                         CapSense_DsUpdateGlobalCrc();
1201:Generated_Source\PSoC4/CapSense_Structure.c ****                     #endif /* (CapSense_ENABLE == CapSense_TST_GLOBAL_CRC_EN) */
1202:Generated_Source\PSoC4/CapSense_Structure.c **** 
1203:Generated_Source\PSoC4/CapSense_Structure.c ****                 }
1204:Generated_Source\PSoC4/CapSense_Structure.c ****                 else
1205:Generated_Source\PSoC4/CapSense_Structure.c ****                 {
1206:Generated_Source\PSoC4/CapSense_Structure.c ****                     #if (CapSense_ENABLE == CapSense_TST_WDGT_CRC_EN)
1207:Generated_Source\PSoC4/CapSense_Structure.c ****                         CapSense_DsUpdateWidgetCrc((uint32)pData.widgetId);
1208:Generated_Source\PSoC4/CapSense_Structure.c ****                     #endif /* (CapSense_ENABLE == CapSense_TST_WDGT_CRC_EN) */
1209:Generated_Source\PSoC4/CapSense_Structure.c ****                 }
1210:Generated_Source\PSoC4/CapSense_Structure.c ****             }
1211:Generated_Source\PSoC4/CapSense_Structure.c ****         #endif /* (CapSense_ENABLE == (CapSense_TST_WDGT_CRC_EN || CapSense_TST_GLOBAL_CRC_EN)) */
1212:Generated_Source\PSoC4/CapSense_Structure.c ****     }
1213:Generated_Source\PSoC4/CapSense_Structure.c **** 
1214:Generated_Source\PSoC4/CapSense_Structure.c ****     return result;
1215:Generated_Source\PSoC4/CapSense_Structure.c **** }
 447              		.loc 1 1215 0
 448 004c 2000     		movs	r0, r4
 449 004e 03B0     		add	sp, sp, #12
 450              		@ sp needed
 451              	.LVL49:
 452 0050 30BD     		pop	{r4, r5, pc}
 453              	.L40:
 454 0052 C046     		.align	2
 455              	.L39:
 456 0054 00000000 		.word	CapSense_dsRam
 457              		.cfi_endproc
 458              	.LFE4:
 459              		.size	CapSense_SetParam, .-CapSense_SetParam
 460              		.section	.text.CapSense_IsAnyWidgetActive,"ax",%progbits
 461              		.align	2
 462              		.global	CapSense_IsAnyWidgetActive
 463              		.code	16
 464              		.thumb_func
 465              		.type	CapSense_IsAnyWidgetActive, %function
 466              	CapSense_IsAnyWidgetActive:
 467              	.LFB5:
1216:Generated_Source\PSoC4/CapSense_Structure.c **** 
1217:Generated_Source\PSoC4/CapSense_Structure.c **** /*******************************************************************************
ARM GAS  C:\Users\Erik\AppData\Local\Temp\cc3TePUC.s 			page 31


1218:Generated_Source\PSoC4/CapSense_Structure.c **** * Function Name: CapSense_IsAnyWidgetActive
1219:Generated_Source\PSoC4/CapSense_Structure.c **** ****************************************************************************//**
1220:Generated_Source\PSoC4/CapSense_Structure.c **** *
1221:Generated_Source\PSoC4/CapSense_Structure.c **** * \brief
1222:Generated_Source\PSoC4/CapSense_Structure.c **** *  Reports if any widget has detected a touch.
1223:Generated_Source\PSoC4/CapSense_Structure.c **** *
1224:Generated_Source\PSoC4/CapSense_Structure.c **** * \details
1225:Generated_Source\PSoC4/CapSense_Structure.c **** *  This function reports if any widget has detected a touch or not by extracting
1226:Generated_Source\PSoC4/CapSense_Structure.c **** *  information from the wdgtStatus registers
1227:Generated_Source\PSoC4/CapSense_Structure.c **** *  (CapSense_WDGT_STATUS<X>_VALUE). This function does not process a
1228:Generated_Source\PSoC4/CapSense_Structure.c **** *  widget but extracts processed results from the \ref group_structures.
1229:Generated_Source\PSoC4/CapSense_Structure.c **** *
1230:Generated_Source\PSoC4/CapSense_Structure.c **** * \return
1231:Generated_Source\PSoC4/CapSense_Structure.c **** *   Returns the touch detection status of all the widgets:
1232:Generated_Source\PSoC4/CapSense_Structure.c **** *     - Zero - No touch is detected in all the widgets or sensors.
1233:Generated_Source\PSoC4/CapSense_Structure.c **** *     - Non-zero - At least one widget or sensor detected a touch.
1234:Generated_Source\PSoC4/CapSense_Structure.c **** *
1235:Generated_Source\PSoC4/CapSense_Structure.c **** *******************************************************************************/
1236:Generated_Source\PSoC4/CapSense_Structure.c **** uint32 CapSense_IsAnyWidgetActive(void)
1237:Generated_Source\PSoC4/CapSense_Structure.c **** {
 468              		.loc 1 1237 0
 469              		.cfi_startproc
 470              		@ args = 0, pretend = 0, frame = 0
 471              		@ frame_needed = 0, uses_anonymous_args = 0
 472              		@ link register save eliminated.
 473              	.LVL50:
1238:Generated_Source\PSoC4/CapSense_Structure.c ****     uint32 result = 0Lu;
1239:Generated_Source\PSoC4/CapSense_Structure.c ****     uint32 wdWord;
1240:Generated_Source\PSoC4/CapSense_Structure.c **** 
1241:Generated_Source\PSoC4/CapSense_Structure.c ****     for (wdWord = CapSense_WDGT_STATUS_WORDS; wdWord-- > 0u;)
 474              		.loc 1 1241 0
 475 0000 0123     		movs	r3, #1
1238:Generated_Source\PSoC4/CapSense_Structure.c ****     uint32 result = 0Lu;
 476              		.loc 1 1238 0
 477 0002 0020     		movs	r0, #0
 478              		.loc 1 1241 0
 479 0004 06E0     		b	.L42
 480              	.LVL51:
 481              	.L43:
1242:Generated_Source\PSoC4/CapSense_Structure.c ****     {
1243:Generated_Source\PSoC4/CapSense_Structure.c ****         result |= CapSense_dsRam.wdgtStatus[wdWord];
 482              		.loc 1 1243 0
 483 0006 131D     		adds	r3, r2, #4
 484 0008 9B00     		lsls	r3, r3, #2
 485 000a 0449     		ldr	r1, .L44
 486 000c CB18     		adds	r3, r1, r3
 487 000e 5B68     		ldr	r3, [r3, #4]
 488 0010 1843     		orrs	r0, r3
 489              	.LVL52:
1241:Generated_Source\PSoC4/CapSense_Structure.c ****     {
 490              		.loc 1 1241 0
 491 0012 1300     		movs	r3, r2
 492              	.LVL53:
 493              	.L42:
1241:Generated_Source\PSoC4/CapSense_Structure.c ****     {
 494              		.loc 1 1241 0 is_stmt 0 discriminator 1
 495 0014 5A1E     		subs	r2, r3, #1
ARM GAS  C:\Users\Erik\AppData\Local\Temp\cc3TePUC.s 			page 32


 496              	.LVL54:
 497 0016 002B     		cmp	r3, #0
 498 0018 F5D1     		bne	.L43
1244:Generated_Source\PSoC4/CapSense_Structure.c ****     }
1245:Generated_Source\PSoC4/CapSense_Structure.c **** 
1246:Generated_Source\PSoC4/CapSense_Structure.c ****     return result;
1247:Generated_Source\PSoC4/CapSense_Structure.c **** }
 499              		.loc 1 1247 0 is_stmt 1
 500              		@ sp needed
 501 001a 7047     		bx	lr
 502              	.L45:
 503              		.align	2
 504              	.L44:
 505 001c 00000000 		.word	CapSense_dsRam
 506              		.cfi_endproc
 507              	.LFE5:
 508              		.size	CapSense_IsAnyWidgetActive, .-CapSense_IsAnyWidgetActive
 509              		.section	.text.CapSense_IsWidgetActive,"ax",%progbits
 510              		.align	2
 511              		.global	CapSense_IsWidgetActive
 512              		.code	16
 513              		.thumb_func
 514              		.type	CapSense_IsWidgetActive, %function
 515              	CapSense_IsWidgetActive:
 516              	.LFB6:
1248:Generated_Source\PSoC4/CapSense_Structure.c **** 
1249:Generated_Source\PSoC4/CapSense_Structure.c **** 
1250:Generated_Source\PSoC4/CapSense_Structure.c **** /*******************************************************************************
1251:Generated_Source\PSoC4/CapSense_Structure.c **** * Function Name: CapSense_IsWidgetActive
1252:Generated_Source\PSoC4/CapSense_Structure.c **** ****************************************************************************//**
1253:Generated_Source\PSoC4/CapSense_Structure.c **** *
1254:Generated_Source\PSoC4/CapSense_Structure.c **** * \brief
1255:Generated_Source\PSoC4/CapSense_Structure.c **** *  Reports if the specified widget detects a touch on any of its sensors.
1256:Generated_Source\PSoC4/CapSense_Structure.c **** *
1257:Generated_Source\PSoC4/CapSense_Structure.c **** * \details
1258:Generated_Source\PSoC4/CapSense_Structure.c **** *  This function reports if the specified widget has detected a touch or not by
1259:Generated_Source\PSoC4/CapSense_Structure.c **** *  extracting information from the wdgtStatus registers
1260:Generated_Source\PSoC4/CapSense_Structure.c **** *  (CapSense_WDGT_STATUS<X>_VALUE). This function does not process the
1261:Generated_Source\PSoC4/CapSense_Structure.c **** *  widget but extracts processed results from the \ref group_structures.
1262:Generated_Source\PSoC4/CapSense_Structure.c **** *
1263:Generated_Source\PSoC4/CapSense_Structure.c **** * \param widgetId
1264:Generated_Source\PSoC4/CapSense_Structure.c **** *  Specifies the ID number of the widget to get its status.
1265:Generated_Source\PSoC4/CapSense_Structure.c **** *  A macro for the widget ID can be found in the CapSense Configuration header
1266:Generated_Source\PSoC4/CapSense_Structure.c **** *  file defined as CapSense_<WidgetName>_WDGT_ID.
1267:Generated_Source\PSoC4/CapSense_Structure.c **** *
1268:Generated_Source\PSoC4/CapSense_Structure.c **** * \return
1269:Generated_Source\PSoC4/CapSense_Structure.c **** *  Returns the touch detection status of the specified widgets:
1270:Generated_Source\PSoC4/CapSense_Structure.c **** *    - Zero - No touch is detected in the specified widget or a wrong widgetId
1271:Generated_Source\PSoC4/CapSense_Structure.c **** *      is specified.
1272:Generated_Source\PSoC4/CapSense_Structure.c **** *    - Non-zero if at least one sensor of the specified widget is active, i.e.
1273:Generated_Source\PSoC4/CapSense_Structure.c **** *      a touch is detected.
1274:Generated_Source\PSoC4/CapSense_Structure.c **** *
1275:Generated_Source\PSoC4/CapSense_Structure.c **** *******************************************************************************/
1276:Generated_Source\PSoC4/CapSense_Structure.c **** uint32 CapSense_IsWidgetActive(uint32 widgetId)
1277:Generated_Source\PSoC4/CapSense_Structure.c **** {
 517              		.loc 1 1277 0
 518              		.cfi_startproc
ARM GAS  C:\Users\Erik\AppData\Local\Temp\cc3TePUC.s 			page 33


 519              		@ args = 0, pretend = 0, frame = 0
 520              		@ frame_needed = 0, uses_anonymous_args = 0
 521              		@ link register save eliminated.
 522              	.LVL55:
1278:Generated_Source\PSoC4/CapSense_Structure.c ****     uint32 result = 0Lu;
1279:Generated_Source\PSoC4/CapSense_Structure.c **** 
1280:Generated_Source\PSoC4/CapSense_Structure.c ****     if (widgetId < CapSense_TOTAL_WIDGETS)
 523              		.loc 1 1280 0
 524 0000 0028     		cmp	r0, #0
 525 0002 0BD1     		bne	.L48
1281:Generated_Source\PSoC4/CapSense_Structure.c ****     {
1282:Generated_Source\PSoC4/CapSense_Structure.c ****         result = CapSense_GET_WIDGET_ACTIVE_STATUS(widgetId);
 526              		.loc 1 1282 0
 527 0004 1F23     		movs	r3, #31
 528 0006 0340     		ands	r3, r0
 529 0008 0122     		movs	r2, #1
 530 000a 9A40     		lsls	r2, r2, r3
 531 000c 4009     		lsrs	r0, r0, #5
 532              	.LVL56:
 533 000e 031D     		adds	r3, r0, #4
 534 0010 9B00     		lsls	r3, r3, #2
 535 0012 0348     		ldr	r0, .L49
 536 0014 C318     		adds	r3, r0, r3
 537 0016 5868     		ldr	r0, [r3, #4]
 538 0018 1040     		ands	r0, r2
 539              	.LVL57:
 540 001a 00E0     		b	.L47
 541              	.LVL58:
 542              	.L48:
1278:Generated_Source\PSoC4/CapSense_Structure.c ****     uint32 result = 0Lu;
 543              		.loc 1 1278 0
 544 001c 0020     		movs	r0, #0
 545              	.LVL59:
 546              	.L47:
1283:Generated_Source\PSoC4/CapSense_Structure.c ****     }
1284:Generated_Source\PSoC4/CapSense_Structure.c ****     return result;
1285:Generated_Source\PSoC4/CapSense_Structure.c **** }
 547              		.loc 1 1285 0
 548              		@ sp needed
 549 001e 7047     		bx	lr
 550              	.L50:
 551              		.align	2
 552              	.L49:
 553 0020 00000000 		.word	CapSense_dsRam
 554              		.cfi_endproc
 555              	.LFE6:
 556              		.size	CapSense_IsWidgetActive, .-CapSense_IsWidgetActive
 557              		.section	.text.CapSense_IsSensorActive,"ax",%progbits
 558              		.align	2
 559              		.global	CapSense_IsSensorActive
 560              		.code	16
 561              		.thumb_func
 562              		.type	CapSense_IsSensorActive, %function
 563              	CapSense_IsSensorActive:
 564              	.LFB7:
1286:Generated_Source\PSoC4/CapSense_Structure.c **** 
1287:Generated_Source\PSoC4/CapSense_Structure.c **** 
ARM GAS  C:\Users\Erik\AppData\Local\Temp\cc3TePUC.s 			page 34


1288:Generated_Source\PSoC4/CapSense_Structure.c **** /*******************************************************************************
1289:Generated_Source\PSoC4/CapSense_Structure.c **** * Function Name: CapSense_IsSensorActive
1290:Generated_Source\PSoC4/CapSense_Structure.c **** ****************************************************************************//**
1291:Generated_Source\PSoC4/CapSense_Structure.c **** *
1292:Generated_Source\PSoC4/CapSense_Structure.c **** * \brief
1293:Generated_Source\PSoC4/CapSense_Structure.c **** *  Reports if the specified sensor in the widget detects a touch.
1294:Generated_Source\PSoC4/CapSense_Structure.c **** *
1295:Generated_Source\PSoC4/CapSense_Structure.c **** * \details
1296:Generated_Source\PSoC4/CapSense_Structure.c **** *  This function reports if the specified sensor in the widget has detected a
1297:Generated_Source\PSoC4/CapSense_Structure.c **** *  touch or not by extracting information from the wdgtStatus registers
1298:Generated_Source\PSoC4/CapSense_Structure.c **** *  (CapSense_WDGT_STATUS<X>_VALUE). This function does not process the
1299:Generated_Source\PSoC4/CapSense_Structure.c **** *  widget or sensor but extracts processed results from the \ref group_structures.
1300:Generated_Source\PSoC4/CapSense_Structure.c **** *
1301:Generated_Source\PSoC4/CapSense_Structure.c **** *  For proximity sensors, this function returns the proximity detection status. To
1302:Generated_Source\PSoC4/CapSense_Structure.c **** *  get the finger touch status of proximity sensors, use the
1303:Generated_Source\PSoC4/CapSense_Structure.c **** *  CapSense_IsProximitySensorActive() function.
1304:Generated_Source\PSoC4/CapSense_Structure.c **** *
1305:Generated_Source\PSoC4/CapSense_Structure.c **** * \param widgetId
1306:Generated_Source\PSoC4/CapSense_Structure.c **** *  Specifies the ID number of the widget.
1307:Generated_Source\PSoC4/CapSense_Structure.c **** *  A macro for the widget ID can be found in the CapSense Configuration header
1308:Generated_Source\PSoC4/CapSense_Structure.c **** *  file defined as CapSense_<WidgetName>_WDGT_ID.
1309:Generated_Source\PSoC4/CapSense_Structure.c **** 
1310:Generated_Source\PSoC4/CapSense_Structure.c **** * \param sensorId
1311:Generated_Source\PSoC4/CapSense_Structure.c **** *  Specifies the ID number of the sensor within the widget to get its touch
1312:Generated_Source\PSoC4/CapSense_Structure.c **** *  detection status.
1313:Generated_Source\PSoC4/CapSense_Structure.c **** *  A macro for the sensor ID within the specified widget can be found in the
1314:Generated_Source\PSoC4/CapSense_Structure.c **** *  CapSense Configuration header file defined as
1315:Generated_Source\PSoC4/CapSense_Structure.c **** *  CapSense_<WidgetName>_SNS<SensorNumber>_ID.
1316:Generated_Source\PSoC4/CapSense_Structure.c **** *
1317:Generated_Source\PSoC4/CapSense_Structure.c **** * \return
1318:Generated_Source\PSoC4/CapSense_Structure.c **** *  Returns the touch detection status of the specified sensor / widget:
1319:Generated_Source\PSoC4/CapSense_Structure.c **** *    - Zero if no touch is detected in the specified sensor / widget or a wrong
1320:Generated_Source\PSoC4/CapSense_Structure.c **** *      widget ID / sensor ID is specified.
1321:Generated_Source\PSoC4/CapSense_Structure.c **** *    - Non-zero if the specified sensor is active i.e. touch is detected. If the
1322:Generated_Source\PSoC4/CapSense_Structure.c **** *      specific sensor belongs to a proximity widget, the proximity detection
1323:Generated_Source\PSoC4/CapSense_Structure.c **** *      status is returned.
1324:Generated_Source\PSoC4/CapSense_Structure.c **** *
1325:Generated_Source\PSoC4/CapSense_Structure.c **** *******************************************************************************/
1326:Generated_Source\PSoC4/CapSense_Structure.c **** uint32 CapSense_IsSensorActive(uint32 widgetId, uint32 sensorId)
1327:Generated_Source\PSoC4/CapSense_Structure.c **** {
 565              		.loc 1 1327 0
 566              		.cfi_startproc
 567              		@ args = 0, pretend = 0, frame = 0
 568              		@ frame_needed = 0, uses_anonymous_args = 0
 569              		@ link register save eliminated.
 570              	.LVL60:
1328:Generated_Source\PSoC4/CapSense_Structure.c ****     uint32 result = 0Lu;
1329:Generated_Source\PSoC4/CapSense_Structure.c **** 
1330:Generated_Source\PSoC4/CapSense_Structure.c ****     if ((widgetId < CapSense_TOTAL_WIDGETS) &&
 571              		.loc 1 1330 0
 572 0000 0028     		cmp	r0, #0
 573 0002 0DD1     		bne	.L53
1331:Generated_Source\PSoC4/CapSense_Structure.c ****         (sensorId < CapSense_GET_SENSOR_COUNT(widgetId)))
 574              		.loc 1 1331 0 discriminator 1
 575 0004 4301     		lsls	r3, r0, #5
 576 0006 084A     		ldr	r2, .L55
 577 0008 D318     		adds	r3, r2, r3
ARM GAS  C:\Users\Erik\AppData\Local\Temp\cc3TePUC.s 			page 35


 578 000a 1B8F     		ldrh	r3, [r3, #56]
1330:Generated_Source\PSoC4/CapSense_Structure.c ****         (sensorId < CapSense_GET_SENSOR_COUNT(widgetId)))
 579              		.loc 1 1330 0 discriminator 1
 580 000c 8B42     		cmp	r3, r1
 581 000e 09D9     		bls	.L54
1332:Generated_Source\PSoC4/CapSense_Structure.c ****     {
1333:Generated_Source\PSoC4/CapSense_Structure.c ****         #if (CapSense_ENABLE == CapSense_PROXIMITY_WIDGET_EN)
1334:Generated_Source\PSoC4/CapSense_Structure.c ****             if (CapSense_WD_PROXIMITY_E ==
1335:Generated_Source\PSoC4/CapSense_Structure.c ****                 (CapSense_WD_TYPE_ENUM)CapSense_dsFlash.wdgtArray[widgetId].wdgtType)
1336:Generated_Source\PSoC4/CapSense_Structure.c ****             {
1337:Generated_Source\PSoC4/CapSense_Structure.c ****                 sensorId = CapSense_PROX_STS_OFFSET(sensorId);
1338:Generated_Source\PSoC4/CapSense_Structure.c ****             }
1339:Generated_Source\PSoC4/CapSense_Structure.c ****         #endif /* (CapSense_ENABLE != CapSense_PROXIMITY_WIDGET_EN) */
1340:Generated_Source\PSoC4/CapSense_Structure.c ****         result = CapSense_dsRam.snsStatus[widgetId] & (1Lu << sensorId);
 582              		.loc 1 1340 0
 583 0010 0630     		adds	r0, r0, #6
 584              	.LVL61:
 585 0012 8000     		lsls	r0, r0, #2
 586              	.LVL62:
 587 0014 054B     		ldr	r3, .L55+4
 588 0016 C358     		ldr	r3, [r0, r3]
 589 0018 0120     		movs	r0, #1
 590 001a 8840     		lsls	r0, r0, r1
 591 001c 1840     		ands	r0, r3
 592              	.LVL63:
 593 001e 02E0     		b	.L52
 594              	.LVL64:
 595              	.L53:
1328:Generated_Source\PSoC4/CapSense_Structure.c **** 
 596              		.loc 1 1328 0
 597 0020 0020     		movs	r0, #0
 598              	.LVL65:
 599 0022 00E0     		b	.L52
 600              	.LVL66:
 601              	.L54:
 602 0024 0020     		movs	r0, #0
 603              	.LVL67:
 604              	.L52:
1341:Generated_Source\PSoC4/CapSense_Structure.c ****     }
1342:Generated_Source\PSoC4/CapSense_Structure.c **** 
1343:Generated_Source\PSoC4/CapSense_Structure.c ****     return result;
1344:Generated_Source\PSoC4/CapSense_Structure.c **** }
 605              		.loc 1 1344 0
 606              		@ sp needed
 607 0026 7047     		bx	lr
 608              	.L56:
 609              		.align	2
 610              	.L55:
 611 0028 00000000 		.word	.LANCHOR0
 612 002c 00000000 		.word	CapSense_dsRam
 613              		.cfi_endproc
 614              	.LFE7:
 615              		.size	CapSense_IsSensorActive, .-CapSense_IsSensorActive
 616              		.global	CapSense_ramIdacInit
 617              		.global	CapSense_ramWidgetInit
 618              		.global	CapSense_ioList
 619              		.global	CapSense_dsFlash
ARM GAS  C:\Users\Erik\AppData\Local\Temp\cc3TePUC.s 			page 36


 620              		.comm	CapSense_dsRam,380,4
 621              		.section	.rodata
 622              		.align	2
 623              		.set	.LANCHOR0,. + 0
 624              		.type	CapSense_ramIdacInit, %object
 625              		.size	CapSense_ramIdacInit, 32
 626              	CapSense_ramIdacInit:
 627 0000 20       		.byte	32
 628 0001 20       		.byte	32
 629 0002 20       		.byte	32
 630 0003 20       		.byte	32
 631 0004 20       		.byte	32
 632 0005 20       		.byte	32
 633 0006 20       		.byte	32
 634 0007 20       		.byte	32
 635 0008 20       		.byte	32
 636 0009 20       		.byte	32
 637 000a 20       		.byte	32
 638 000b 20       		.byte	32
 639 000c 20       		.byte	32
 640 000d 20       		.byte	32
 641 000e 20       		.byte	32
 642 000f 20       		.byte	32
 643 0010 20       		.byte	32
 644 0011 20       		.byte	32
 645 0012 20       		.byte	32
 646 0013 20       		.byte	32
 647 0014 20       		.byte	32
 648 0015 20       		.byte	32
 649 0016 20       		.byte	32
 650 0017 20       		.byte	32
 651 0018 20       		.byte	32
 652 0019 20       		.byte	32
 653 001a 20       		.byte	32
 654 001b 20       		.byte	32
 655 001c 20       		.byte	32
 656 001d 20       		.byte	32
 657 001e 20       		.byte	32
 658 001f 20       		.byte	32
 659              		.type	CapSense_dsFlash, %object
 660              		.size	CapSense_dsFlash, 32
 661              	CapSense_dsFlash:
 662 0020 00000000 		.word	CapSense_ioList
 663 0024 20000000 		.word	CapSense_dsRam+32
 664 0028 34000000 		.word	CapSense_dsRam+52
 665 002c 00000000 		.word	CapSense_fltrHistorySlider
 666 0030 C0010000 		.word	CapSense_debounceSlider
 667 0034 01280000 		.word	10241
 668 0038 2000     		.short	32
 669 003a 01       		.byte	1
 670 003b 20       		.byte	32
 671 003c 40000000 		.word	CapSense_noiseEnvlpSlider
 672              		.type	CapSense_ramWidgetInit, %object
 673              		.size	CapSense_ramWidgetInit, 20
 674              	CapSense_ramWidgetInit:
 675 0040 0900     		.short	9
 676 0042 6400     		.short	100
ARM GAS  C:\Users\Erik\AppData\Local\Temp\cc3TePUC.s 			page 37


 677 0044 28       		.byte	40
 678 0045 28       		.byte	40
 679 0046 0A       		.byte	10
 680 0047 03       		.byte	3
 681 0048 1E       		.byte	30
 682 0049 20       		.byte	32
 683 004a 00       		.byte	0
 684 004b 00       		.space	1
 685 004c 0400     		.short	4
 686 004e 00       		.byte	0
 687 004f 00       		.space	1
 688 0050 2C01     		.short	300
 689 0052 0000     		.short	0
 690              		.type	CapSense_ioList, %object
 691              		.size	CapSense_ioList, 896
 692              	CapSense_ioList:
 693 0054 00030240 		.word	1073873664
 694 0058 08030440 		.word	1074004744
 695 005c 00030440 		.word	1074004736
 696 0060 04030440 		.word	1074004740
 697 0064 0000F000 		.word	15728640
 698 0068 20000000 		.word	32
 699 006c 14       		.byte	20
 700 006d 05       		.byte	5
 701 006e 0F       		.byte	15
 702 006f 00       		.space	1
 703 0070 00030240 		.word	1073873664
 704 0074 08030440 		.word	1074004744
 705 0078 00030440 		.word	1074004736
 706 007c 04030440 		.word	1074004740
 707 0080 0000000F 		.word	251658240
 708 0084 40000000 		.word	64
 709 0088 18       		.byte	24
 710 0089 06       		.byte	6
 711 008a 12       		.byte	18
 712 008b 00       		.space	1
 713 008c 00030240 		.word	1073873664
 714 0090 08030440 		.word	1074004744
 715 0094 00030440 		.word	1074004736
 716 0098 04030440 		.word	1074004740
 717 009c 00000F00 		.word	983040
 718 00a0 10000000 		.word	16
 719 00a4 10       		.byte	16
 720 00a5 04       		.byte	4
 721 00a6 0C       		.byte	12
 722 00a7 00       		.space	1
 723 00a8 00030240 		.word	1073873664
 724 00ac 08030440 		.word	1074004744
 725 00b0 00030440 		.word	1074004736
 726 00b4 04030440 		.word	1074004740
 727 00b8 000000F0 		.word	-268435456
 728 00bc 80000000 		.word	128
 729 00c0 1C       		.byte	28
 730 00c1 07       		.byte	7
 731 00c2 15       		.byte	21
 732 00c3 00       		.space	1
 733 00c4 00030240 		.word	1073873664
ARM GAS  C:\Users\Erik\AppData\Local\Temp\cc3TePUC.s 			page 38


 734 00c8 08030440 		.word	1074004744
 735 00cc 00030440 		.word	1074004736
 736 00d0 04030440 		.word	1074004740
 737 00d4 F0000000 		.word	240
 738 00d8 02000000 		.word	2
 739 00dc 04       		.byte	4
 740 00dd 01       		.byte	1
 741 00de 03       		.byte	3
 742 00df 00       		.space	1
 743 00e0 00020240 		.word	1073873408
 744 00e4 08020440 		.word	1074004488
 745 00e8 00020440 		.word	1074004480
 746 00ec 04020440 		.word	1074004484
 747 00f0 00F00000 		.word	61440
 748 00f4 08000000 		.word	8
 749 00f8 0C       		.byte	12
 750 00f9 03       		.byte	3
 751 00fa 09       		.byte	9
 752 00fb 00       		.space	1
 753 00fc 00030240 		.word	1073873664
 754 0100 08030440 		.word	1074004744
 755 0104 00030440 		.word	1074004736
 756 0108 04030440 		.word	1074004740
 757 010c 0F000000 		.word	15
 758 0110 01000000 		.word	1
 759 0114 00       		.byte	0
 760 0115 00       		.byte	0
 761 0116 00       		.byte	0
 762 0117 00       		.space	1
 763 0118 00020240 		.word	1073873408
 764 011c 08020440 		.word	1074004488
 765 0120 00020440 		.word	1074004480
 766 0124 04020440 		.word	1074004484
 767 0128 000F0000 		.word	3840
 768 012c 04000000 		.word	4
 769 0130 08       		.byte	8
 770 0131 02       		.byte	2
 771 0132 06       		.byte	6
 772 0133 00       		.space	1
 773 0134 00000240 		.word	1073872896
 774 0138 08000440 		.word	1074003976
 775 013c 00000440 		.word	1074003968
 776 0140 04000440 		.word	1074003972
 777 0144 00F00000 		.word	61440
 778 0148 08000000 		.word	8
 779 014c 0C       		.byte	12
 780 014d 03       		.byte	3
 781 014e 09       		.byte	9
 782 014f 00       		.space	1
 783 0150 00020240 		.word	1073873408
 784 0154 08020440 		.word	1074004488
 785 0158 00020440 		.word	1074004480
 786 015c 04020440 		.word	1074004484
 787 0160 F0000000 		.word	240
 788 0164 02000000 		.word	2
 789 0168 04       		.byte	4
 790 0169 01       		.byte	1
ARM GAS  C:\Users\Erik\AppData\Local\Temp\cc3TePUC.s 			page 39


 791 016a 03       		.byte	3
 792 016b 00       		.space	1
 793 016c 00000240 		.word	1073872896
 794 0170 08000440 		.word	1074003976
 795 0174 00000440 		.word	1074003968
 796 0178 04000440 		.word	1074003972
 797 017c 000F0000 		.word	3840
 798 0180 04000000 		.word	4
 799 0184 08       		.byte	8
 800 0185 02       		.byte	2
 801 0186 06       		.byte	6
 802 0187 00       		.space	1
 803 0188 00040240 		.word	1073873920
 804 018c 08040440 		.word	1074005000
 805 0190 00040440 		.word	1074004992
 806 0194 04040440 		.word	1074004996
 807 0198 00000F00 		.word	983040
 808 019c 10000000 		.word	16
 809 01a0 10       		.byte	16
 810 01a1 04       		.byte	4
 811 01a2 0C       		.byte	12
 812 01a3 00       		.space	1
 813 01a4 00000240 		.word	1073872896
 814 01a8 08000440 		.word	1074003976
 815 01ac 00000440 		.word	1074003968
 816 01b0 04000440 		.word	1074003972
 817 01b4 F0000000 		.word	240
 818 01b8 02000000 		.word	2
 819 01bc 04       		.byte	4
 820 01bd 01       		.byte	1
 821 01be 03       		.byte	3
 822 01bf 00       		.space	1
 823 01c0 00040240 		.word	1073873920
 824 01c4 08040440 		.word	1074005000
 825 01c8 00040440 		.word	1074004992
 826 01cc 04040440 		.word	1074004996
 827 01d0 0000F000 		.word	15728640
 828 01d4 20000000 		.word	32
 829 01d8 14       		.byte	20
 830 01d9 05       		.byte	5
 831 01da 0F       		.byte	15
 832 01db 00       		.space	1
 833 01dc 00000240 		.word	1073872896
 834 01e0 08000440 		.word	1074003976
 835 01e4 00000440 		.word	1074003968
 836 01e8 04000440 		.word	1074003972
 837 01ec 0F000000 		.word	15
 838 01f0 01000000 		.word	1
 839 01f4 00       		.byte	0
 840 01f5 00       		.byte	0
 841 01f6 00       		.byte	0
 842 01f7 00       		.space	1
 843 01f8 00040240 		.word	1073873920
 844 01fc 08040440 		.word	1074005000
 845 0200 00040440 		.word	1074004992
 846 0204 04040440 		.word	1074004996
 847 0208 0000000F 		.word	251658240
ARM GAS  C:\Users\Erik\AppData\Local\Temp\cc3TePUC.s 			page 40


 848 020c 40000000 		.word	64
 849 0210 18       		.byte	24
 850 0211 06       		.byte	6
 851 0212 12       		.byte	18
 852 0213 00       		.space	1
 853 0214 00010240 		.word	1073873152
 854 0218 08010440 		.word	1074004232
 855 021c 00010440 		.word	1074004224
 856 0220 04010440 		.word	1074004228
 857 0224 00F00000 		.word	61440
 858 0228 08000000 		.word	8
 859 022c 0C       		.byte	12
 860 022d 03       		.byte	3
 861 022e 09       		.byte	9
 862 022f 00       		.space	1
 863 0230 00010240 		.word	1073873152
 864 0234 08010440 		.word	1074004232
 865 0238 00010440 		.word	1074004224
 866 023c 04010440 		.word	1074004228
 867 0240 00000F00 		.word	983040
 868 0244 10000000 		.word	16
 869 0248 10       		.byte	16
 870 0249 04       		.byte	4
 871 024a 0C       		.byte	12
 872 024b 00       		.space	1
 873 024c 00010240 		.word	1073873152
 874 0250 08010440 		.word	1074004232
 875 0254 00010440 		.word	1074004224
 876 0258 04010440 		.word	1074004228
 877 025c 000F0000 		.word	3840
 878 0260 04000000 		.word	4
 879 0264 08       		.byte	8
 880 0265 02       		.byte	2
 881 0266 06       		.byte	6
 882 0267 00       		.space	1
 883 0268 00010240 		.word	1073873152
 884 026c 08010440 		.word	1074004232
 885 0270 00010440 		.word	1074004224
 886 0274 04010440 		.word	1074004228
 887 0278 0000F000 		.word	15728640
 888 027c 20000000 		.word	32
 889 0280 14       		.byte	20
 890 0281 05       		.byte	5
 891 0282 0F       		.byte	15
 892 0283 00       		.space	1
 893 0284 00010240 		.word	1073873152
 894 0288 08010440 		.word	1074004232
 895 028c 00010440 		.word	1074004224
 896 0290 04010440 		.word	1074004228
 897 0294 F0000000 		.word	240
 898 0298 02000000 		.word	2
 899 029c 04       		.byte	4
 900 029d 01       		.byte	1
 901 029e 03       		.byte	3
 902 029f 00       		.space	1
 903 02a0 00020240 		.word	1073873408
 904 02a4 08020440 		.word	1074004488
ARM GAS  C:\Users\Erik\AppData\Local\Temp\cc3TePUC.s 			page 41


 905 02a8 00020440 		.word	1074004480
 906 02ac 04020440 		.word	1074004484
 907 02b0 0F000000 		.word	15
 908 02b4 01000000 		.word	1
 909 02b8 00       		.byte	0
 910 02b9 00       		.byte	0
 911 02ba 00       		.byte	0
 912 02bb 00       		.space	1
 913 02bc 00010240 		.word	1073873152
 914 02c0 08010440 		.word	1074004232
 915 02c4 00010440 		.word	1074004224
 916 02c8 04010440 		.word	1074004228
 917 02cc 0F000000 		.word	15
 918 02d0 01000000 		.word	1
 919 02d4 00       		.byte	0
 920 02d5 00       		.byte	0
 921 02d6 00       		.byte	0
 922 02d7 00       		.space	1
 923 02d8 00020240 		.word	1073873408
 924 02dc 08020440 		.word	1074004488
 925 02e0 00020440 		.word	1074004480
 926 02e4 04020440 		.word	1074004484
 927 02e8 00000F00 		.word	983040
 928 02ec 10000000 		.word	16
 929 02f0 10       		.byte	16
 930 02f1 04       		.byte	4
 931 02f2 0C       		.byte	12
 932 02f3 00       		.space	1
 933 02f4 00060240 		.word	1073874432
 934 02f8 08060440 		.word	1074005512
 935 02fc 00060440 		.word	1074005504
 936 0300 04060440 		.word	1074005508
 937 0304 0000F000 		.word	15728640
 938 0308 20000000 		.word	32
 939 030c 14       		.byte	20
 940 030d 05       		.byte	5
 941 030e 0F       		.byte	15
 942 030f 00       		.space	1
 943 0310 00020240 		.word	1073873408
 944 0314 08020440 		.word	1074004488
 945 0318 00020440 		.word	1074004480
 946 031c 04020440 		.word	1074004484
 947 0320 0000F000 		.word	15728640
 948 0324 20000000 		.word	32
 949 0328 14       		.byte	20
 950 0329 05       		.byte	5
 951 032a 0F       		.byte	15
 952 032b 00       		.space	1
 953 032c 00060240 		.word	1073874432
 954 0330 08060440 		.word	1074005512
 955 0334 00060440 		.word	1074005504
 956 0338 04060440 		.word	1074005508
 957 033c 00000F00 		.word	983040
 958 0340 10000000 		.word	16
 959 0344 10       		.byte	16
 960 0345 04       		.byte	4
 961 0346 0C       		.byte	12
ARM GAS  C:\Users\Erik\AppData\Local\Temp\cc3TePUC.s 			page 42


 962 0347 00       		.space	1
 963 0348 00020240 		.word	1073873408
 964 034c 08020440 		.word	1074004488
 965 0350 00020440 		.word	1074004480
 966 0354 04020440 		.word	1074004484
 967 0358 0000000F 		.word	251658240
 968 035c 40000000 		.word	64
 969 0360 18       		.byte	24
 970 0361 06       		.byte	6
 971 0362 12       		.byte	18
 972 0363 00       		.space	1
 973 0364 00060240 		.word	1073874432
 974 0368 08060440 		.word	1074005512
 975 036c 00060440 		.word	1074005504
 976 0370 04060440 		.word	1074005508
 977 0374 000F0000 		.word	3840
 978 0378 04000000 		.word	4
 979 037c 08       		.byte	8
 980 037d 02       		.byte	2
 981 037e 06       		.byte	6
 982 037f 00       		.space	1
 983 0380 00020240 		.word	1073873408
 984 0384 08020440 		.word	1074004488
 985 0388 00020440 		.word	1074004480
 986 038c 04020440 		.word	1074004484
 987 0390 000000F0 		.word	-268435456
 988 0394 80000000 		.word	128
 989 0398 1C       		.byte	28
 990 0399 07       		.byte	7
 991 039a 15       		.byte	21
 992 039b 00       		.space	1
 993 039c 00060240 		.word	1073874432
 994 03a0 08060440 		.word	1074005512
 995 03a4 00060440 		.word	1074005504
 996 03a8 04060440 		.word	1074005508
 997 03ac F0000000 		.word	240
 998 03b0 02000000 		.word	2
 999 03b4 04       		.byte	4
 1000 03b5 01       		.byte	1
 1001 03b6 03       		.byte	3
 1002 03b7 00       		.space	1
 1003 03b8 00060240 		.word	1073874432
 1004 03bc 08060440 		.word	1074005512
 1005 03c0 00060440 		.word	1074005504
 1006 03c4 04060440 		.word	1074005508
 1007 03c8 0F000000 		.word	15
 1008 03cc 01000000 		.word	1
 1009 03d0 00       		.byte	0
 1010 03d1 00       		.byte	0
 1011 03d2 00       		.byte	0
 1012 03d3 00       		.space	1
 1013              		.bss
 1014              		.align	2
 1015              		.type	CapSense_fltrHistorySlider, %object
 1016              		.size	CapSense_fltrHistorySlider, 64
 1017              	CapSense_fltrHistorySlider:
 1018 0000 00000000 		.space	64
ARM GAS  C:\Users\Erik\AppData\Local\Temp\cc3TePUC.s 			page 43


 1018      00000000 
 1018      00000000 
 1018      00000000 
 1018      00000000 
 1019              		.type	CapSense_noiseEnvlpSlider, %object
 1020              		.size	CapSense_noiseEnvlpSlider, 384
 1021              	CapSense_noiseEnvlpSlider:
 1022 0040 00000000 		.space	384
 1022      00000000 
 1022      00000000 
 1022      00000000 
 1022      00000000 
 1023              		.type	CapSense_debounceSlider, %object
 1024              		.size	CapSense_debounceSlider, 32
 1025              	CapSense_debounceSlider:
 1026 01c0 00000000 		.space	32
 1026      00000000 
 1026      00000000 
 1026      00000000 
 1026      00000000 
 1027              		.text
 1028              	.Letext0:
 1029              		.file 2 "Generated_Source\\PSoC4/cytypes.h"
 1030              		.file 3 "Generated_Source\\PSoC4\\CapSense_Configuration.h"
 1031              		.file 4 "Generated_Source\\PSoC4\\CapSense_SmartSense_LL.h"
 1032              		.file 5 "Generated_Source\\PSoC4\\CapSense_Structure.h"
 1033              		.file 6 "Generated_Source\\PSoC4\\CyLib.h"