ARM GAS  C:\Users\Erik\AppData\Local\Temp\ccRdsmWm.s 			page 1


   1              		.syntax unified
   2              		.cpu cortex-m0
   3              		.fpu softvfp
   4              		.eabi_attribute 20, 1
   5              		.eabi_attribute 21, 1
   6              		.eabi_attribute 23, 3
   7              		.eabi_attribute 24, 1
   8              		.eabi_attribute 25, 1
   9              		.eabi_attribute 26, 1
  10              		.eabi_attribute 30, 1
  11              		.eabi_attribute 34, 0
  12              		.eabi_attribute 18, 4
  13              		.thumb
  14              		.syntax unified
  15              		.file	"CapSense_Processing.c"
  16              		.text
  17              	.Ltext0:
  18              		.cfi_sections	.debug_frame
  19              		.section	.text.CapSense_DpInitialize,"ax",%progbits
  20              		.align	2
  21              		.global	CapSense_DpInitialize
  22              		.code	16
  23              		.thumb_func
  24              		.type	CapSense_DpInitialize, %function
  25              	CapSense_DpInitialize:
  26              	.LFB1:
  27              		.file 1 "Generated_Source\\PSoC4\\CapSense_Processing.c"
   1:Generated_Source\PSoC4/CapSense_Processing.c **** /***************************************************************************//**
   2:Generated_Source\PSoC4/CapSense_Processing.c **** * \file CapSense_Processing.c
   3:Generated_Source\PSoC4/CapSense_Processing.c **** * \version 7.0
   4:Generated_Source\PSoC4/CapSense_Processing.c **** *
   5:Generated_Source\PSoC4/CapSense_Processing.c **** * \brief
   6:Generated_Source\PSoC4/CapSense_Processing.c **** *   This file provides the source code for the Data Processing module APIs
   7:Generated_Source\PSoC4/CapSense_Processing.c **** *   of the Component. The Data Processing module is responsible for the
   8:Generated_Source\PSoC4/CapSense_Processing.c **** *   low level raw counts processing provided by the sensing module, maintaining
   9:Generated_Source\PSoC4/CapSense_Processing.c **** *   baseline and difference values and performing high-level widget processing
  10:Generated_Source\PSoC4/CapSense_Processing.c **** *   like updating button status or calculating slider position.
  11:Generated_Source\PSoC4/CapSense_Processing.c **** *
  12:Generated_Source\PSoC4/CapSense_Processing.c **** * \see CapSense v7.0 Datasheet
  13:Generated_Source\PSoC4/CapSense_Processing.c **** *
  14:Generated_Source\PSoC4/CapSense_Processing.c **** *//*****************************************************************************
  15:Generated_Source\PSoC4/CapSense_Processing.c **** * Copyright (2016-2019), Cypress Semiconductor Corporation.
  16:Generated_Source\PSoC4/CapSense_Processing.c **** ********************************************************************************
  17:Generated_Source\PSoC4/CapSense_Processing.c **** * This software is owned by Cypress Semiconductor Corporation (Cypress) and is
  18:Generated_Source\PSoC4/CapSense_Processing.c **** * protected by and subject to worldwide patent protection (United States and
  19:Generated_Source\PSoC4/CapSense_Processing.c **** * foreign), United States copyright laws and international treaty provisions.
  20:Generated_Source\PSoC4/CapSense_Processing.c **** * Cypress hereby grants to licensee a personal, non-exclusive, non-transferable
  21:Generated_Source\PSoC4/CapSense_Processing.c **** * license to copy, use, modify, create derivative works of, and compile the
  22:Generated_Source\PSoC4/CapSense_Processing.c **** * Cypress Source Code and derivative works for the sole purpose of creating
  23:Generated_Source\PSoC4/CapSense_Processing.c **** * custom software in support of licensee product to be used only in conjunction
  24:Generated_Source\PSoC4/CapSense_Processing.c **** * with a Cypress integrated circuit as specified in the applicable agreement.
  25:Generated_Source\PSoC4/CapSense_Processing.c **** * Any reproduction, modification, translation, compilation, or representation of
  26:Generated_Source\PSoC4/CapSense_Processing.c **** * this software except as specified above is prohibited without the express
  27:Generated_Source\PSoC4/CapSense_Processing.c **** * written permission of Cypress.
  28:Generated_Source\PSoC4/CapSense_Processing.c **** *
  29:Generated_Source\PSoC4/CapSense_Processing.c **** * Disclaimer: CYPRESS MAKES NO WARRANTY OF ANY KIND, EXPRESS OR IMPLIED, WITH
  30:Generated_Source\PSoC4/CapSense_Processing.c **** * REGARD TO THIS MATERIAL, INCLUDING, BUT NOT LIMITED TO, THE IMPLIED
ARM GAS  C:\Users\Erik\AppData\Local\Temp\ccRdsmWm.s 			page 2


  31:Generated_Source\PSoC4/CapSense_Processing.c **** * WARRANTIES OF MERCHANTABILITY AND FITNESS FOR A PARTICULAR PURPOSE.
  32:Generated_Source\PSoC4/CapSense_Processing.c **** * Cypress reserves the right to make changes without further notice to the
  33:Generated_Source\PSoC4/CapSense_Processing.c **** * materials described herein. Cypress does not assume any liability arising out
  34:Generated_Source\PSoC4/CapSense_Processing.c **** * of the application or use of any product or circuit described herein. Cypress
  35:Generated_Source\PSoC4/CapSense_Processing.c **** * does not authorize its products for use as critical components in life-support
  36:Generated_Source\PSoC4/CapSense_Processing.c **** * systems where a malfunction or failure may reasonably be expected to result in
  37:Generated_Source\PSoC4/CapSense_Processing.c **** * significant injury to the user. The inclusion of Cypress' product in a life-
  38:Generated_Source\PSoC4/CapSense_Processing.c **** * support systems application implies that the manufacturer assumes all risk of
  39:Generated_Source\PSoC4/CapSense_Processing.c **** * such use and in doing so indemnifies Cypress against all charges. Use may be
  40:Generated_Source\PSoC4/CapSense_Processing.c **** * limited by and subject to the applicable Cypress software license agreement.
  41:Generated_Source\PSoC4/CapSense_Processing.c **** *******************************************************************************/
  42:Generated_Source\PSoC4/CapSense_Processing.c **** 
  43:Generated_Source\PSoC4/CapSense_Processing.c **** #include "CyLib.h"
  44:Generated_Source\PSoC4/CapSense_Processing.c **** #include "cytypes.h"
  45:Generated_Source\PSoC4/CapSense_Processing.c **** #include "CapSense_Configuration.h"
  46:Generated_Source\PSoC4/CapSense_Processing.c **** #include "CapSense_Processing.h"
  47:Generated_Source\PSoC4/CapSense_Processing.c **** #include "CapSense_Filter.h"
  48:Generated_Source\PSoC4/CapSense_Processing.c **** 
  49:Generated_Source\PSoC4/CapSense_Processing.c **** #if (0u != CapSense_CENTROID_EN)
  50:Generated_Source\PSoC4/CapSense_Processing.c ****     #include "CapSense_Centroid_LL.h"
  51:Generated_Source\PSoC4/CapSense_Processing.c **** #endif /* (0 != CapSense_CENTROID_EN) */
  52:Generated_Source\PSoC4/CapSense_Processing.c **** 
  53:Generated_Source\PSoC4/CapSense_Processing.c **** #if (0 != (CapSense_CSD_AUTOTUNE & CapSense_CSD_SS_TH_EN))
  54:Generated_Source\PSoC4/CapSense_Processing.c ****     #include "CapSense_SmartSense_LL.h"
  55:Generated_Source\PSoC4/CapSense_Processing.c **** #endif /* (0 != (CapSense_CSD_AUTOTUNE & CapSense_CSD_SS_TH_EN)) */
  56:Generated_Source\PSoC4/CapSense_Processing.c **** 
  57:Generated_Source\PSoC4/CapSense_Processing.c **** #if (CapSense_ENABLE == CapSense_SELF_TEST_EN)
  58:Generated_Source\PSoC4/CapSense_Processing.c ****     #include "CapSense_SelfTest.h"
  59:Generated_Source\PSoC4/CapSense_Processing.c **** #endif
  60:Generated_Source\PSoC4/CapSense_Processing.c **** 
  61:Generated_Source\PSoC4/CapSense_Processing.c **** #if (CapSense_ENABLE == CapSense_CENTROID_5X5_CSD_EN)
  62:Generated_Source\PSoC4/CapSense_Processing.c ****     #include "CapSense_AdvancedCentroid_LL.h"
  63:Generated_Source\PSoC4/CapSense_Processing.c **** #endif
  64:Generated_Source\PSoC4/CapSense_Processing.c **** 
  65:Generated_Source\PSoC4/CapSense_Processing.c **** #if (CapSense_ENABLE == CapSense_POS_ADAPTIVE_IIR_FILTER_EN)
  66:Generated_Source\PSoC4/CapSense_Processing.c ****     #include "CapSense_AdaptiveFilter_LL.h"
  67:Generated_Source\PSoC4/CapSense_Processing.c **** #endif
  68:Generated_Source\PSoC4/CapSense_Processing.c **** 
  69:Generated_Source\PSoC4/CapSense_Processing.c **** #if(CapSense_ENABLE == CapSense_BALLISTIC_MULTIPLIER_EN)
  70:Generated_Source\PSoC4/CapSense_Processing.c ****     #include "CapSense_Gesture.h"
  71:Generated_Source\PSoC4/CapSense_Processing.c **** #endif
  72:Generated_Source\PSoC4/CapSense_Processing.c **** 
  73:Generated_Source\PSoC4/CapSense_Processing.c **** /**************************************************************************************************
  74:Generated_Source\PSoC4/CapSense_Processing.c **** * Local definition
  75:Generated_Source\PSoC4/CapSense_Processing.c **** ***************************************************************************************************
  76:Generated_Source\PSoC4/CapSense_Processing.c **** 
  77:Generated_Source\PSoC4/CapSense_Processing.c **** /* UINT32 constant with all odd bits set. It is used by the processing function of the Proximity wi
  78:Generated_Source\PSoC4/CapSense_Processing.c **** *  determine type of the status bit: odd bits report proximity status; even bits report touch statu
  79:Generated_Source\PSoC4/CapSense_Processing.c **** */
  80:Generated_Source\PSoC4/CapSense_Processing.c **** #define UINT32_ODD_BITS_CONST       (0x55555555u)
  81:Generated_Source\PSoC4/CapSense_Processing.c **** 
  82:Generated_Source\PSoC4/CapSense_Processing.c **** /* Default value for the Off Debounce counter when the Off Debounce is disabled */
  83:Generated_Source\PSoC4/CapSense_Processing.c **** #define DEFAULT_OFF_DEBOUNCE_VALUE  (1u)
  84:Generated_Source\PSoC4/CapSense_Processing.c **** #define PERCENTAGE_100              (100u)
  85:Generated_Source\PSoC4/CapSense_Processing.c **** #define TEMP_BUFFER_MSB_SHIFT       (16)
  86:Generated_Source\PSoC4/CapSense_Processing.c **** 
  87:Generated_Source\PSoC4/CapSense_Processing.c **** /**************************************************************************************************
ARM GAS  C:\Users\Erik\AppData\Local\Temp\ccRdsmWm.s 			page 3


  88:Generated_Source\PSoC4/CapSense_Processing.c **** * Local variables
  89:Generated_Source\PSoC4/CapSense_Processing.c **** ***************************************************************************************************
  90:Generated_Source\PSoC4/CapSense_Processing.c **** #if (0u != CapSense_CSX_MULTIPHASE_TX_EN)
  91:Generated_Source\PSoC4/CapSense_Processing.c ****     static uint16 deconvRowData[CapSense_CSX_MAX_TX_PHASE_LENGTH];
  92:Generated_Source\PSoC4/CapSense_Processing.c **** #endif
  93:Generated_Source\PSoC4/CapSense_Processing.c **** 
  94:Generated_Source\PSoC4/CapSense_Processing.c **** 
  95:Generated_Source\PSoC4/CapSense_Processing.c **** /**************************************************************************************************
  96:Generated_Source\PSoC4/CapSense_Processing.c **** * Static Function Prototypes
  97:Generated_Source\PSoC4/CapSense_Processing.c **** ***************************************************************************************************
  98:Generated_Source\PSoC4/CapSense_Processing.c **** /**
  99:Generated_Source\PSoC4/CapSense_Processing.c **** * \cond SECTION_C_INTERNAL
 100:Generated_Source\PSoC4/CapSense_Processing.c **** * \addtogroup group_c_internal
 101:Generated_Source\PSoC4/CapSense_Processing.c **** * \{
 102:Generated_Source\PSoC4/CapSense_Processing.c **** */
 103:Generated_Source\PSoC4/CapSense_Processing.c **** #if (0u != CapSense_TOTAL_LINEAR_SLIDERS)
 104:Generated_Source\PSoC4/CapSense_Processing.c ****     static CY_INLINE void DpUpdateLinSlider(
 105:Generated_Source\PSoC4/CapSense_Processing.c ****                         const uint16 newPos[], uint32 numTouches,
 106:Generated_Source\PSoC4/CapSense_Processing.c ****                         CapSense_FLASH_WD_STRUCT const *ptrFlashWdgt,
 107:Generated_Source\PSoC4/CapSense_Processing.c ****                         CapSense_RAM_WD_SLIDER_STRUCT *ptrRamWdgt);
 108:Generated_Source\PSoC4/CapSense_Processing.c **** #endif /* #if (0u != CapSense_TOTAL_LINEAR_SLIDERS) */
 109:Generated_Source\PSoC4/CapSense_Processing.c **** 
 110:Generated_Source\PSoC4/CapSense_Processing.c **** #if (0u != CapSense_TOTAL_RADIAL_SLIDERS)
 111:Generated_Source\PSoC4/CapSense_Processing.c ****     static CY_INLINE void DpUpdateRadSlider(
 112:Generated_Source\PSoC4/CapSense_Processing.c ****                         const uint16 newPos[], uint32 numTouches,
 113:Generated_Source\PSoC4/CapSense_Processing.c ****                         CapSense_FLASH_WD_STRUCT const * ptrFlashWdgt,
 114:Generated_Source\PSoC4/CapSense_Processing.c ****                         CapSense_RAM_WD_SLIDER_STRUCT *ptrRamWdgt);
 115:Generated_Source\PSoC4/CapSense_Processing.c **** #endif /* #if (0u != CapSense_TOTAL_RADIAL_SLIDERS) */
 116:Generated_Source\PSoC4/CapSense_Processing.c **** 
 117:Generated_Source\PSoC4/CapSense_Processing.c **** #if (0u != CapSense_CSD_TOUCHPAD_WIDGET_EN)
 118:Generated_Source\PSoC4/CapSense_Processing.c ****     static CY_INLINE void CapSense_DpInitCsdTouchpad(CapSense_FLASH_WD_STRUCT const * ptrFlashWdgt)
 119:Generated_Source\PSoC4/CapSense_Processing.c **** #endif /* #if (0u != CapSense_CSD_TOUCHPAD_WIDGET_EN) */
 120:Generated_Source\PSoC4/CapSense_Processing.c **** 
 121:Generated_Source\PSoC4/CapSense_Processing.c **** #if (0u != CapSense_CSX_TOUCHPAD_WIDGET_EN)
 122:Generated_Source\PSoC4/CapSense_Processing.c ****     static CY_INLINE void CapSense_DpInitCsxTouchpad(CapSense_FLASH_WD_STRUCT const * ptrFlashWdgt)
 123:Generated_Source\PSoC4/CapSense_Processing.c **** #endif /* #if (0u != CapSense_CSX_TOUCHPAD_WIDGET_EN) */
 124:Generated_Source\PSoC4/CapSense_Processing.c **** 
 125:Generated_Source\PSoC4/CapSense_Processing.c **** #if (0u != CapSense_SLIDER_WIDGET_EN)
 126:Generated_Source\PSoC4/CapSense_Processing.c ****     static CY_INLINE void CapSense_DpInitSlider(CapSense_FLASH_WD_STRUCT const * ptrFlashWdgt);
 127:Generated_Source\PSoC4/CapSense_Processing.c **** #endif /* #if (0u != CapSense_SLIDER_WIDGET_EN) */
 128:Generated_Source\PSoC4/CapSense_Processing.c **** 
 129:Generated_Source\PSoC4/CapSense_Processing.c **** #if (0u != CapSense_CSD_MATRIX_WIDGET_EN)
 130:Generated_Source\PSoC4/CapSense_Processing.c ****     static CY_INLINE void CapSense_DpInitCsdMatrix(CapSense_FLASH_WD_STRUCT const * ptrFlashWdgt);
 131:Generated_Source\PSoC4/CapSense_Processing.c **** #endif /* #if (0u != CapSense_CSD_MATRIX_WIDGET_EN) */
 132:Generated_Source\PSoC4/CapSense_Processing.c **** 
 133:Generated_Source\PSoC4/CapSense_Processing.c **** /** \}
 134:Generated_Source\PSoC4/CapSense_Processing.c **** * \endcond */
 135:Generated_Source\PSoC4/CapSense_Processing.c **** 
 136:Generated_Source\PSoC4/CapSense_Processing.c **** #if (0u != CapSense_CSD_TOUCHPAD_WIDGET_EN)
 137:Generated_Source\PSoC4/CapSense_Processing.c **** /*******************************************************************************
 138:Generated_Source\PSoC4/CapSense_Processing.c **** * Function Name: CapSense_DpInitCsdTouchpad
 139:Generated_Source\PSoC4/CapSense_Processing.c **** ****************************************************************************//**
 140:Generated_Source\PSoC4/CapSense_Processing.c **** *
 141:Generated_Source\PSoC4/CapSense_Processing.c **** * \brief
 142:Generated_Source\PSoC4/CapSense_Processing.c **** *  Performs initialization of the CSD touchpad widget.
 143:Generated_Source\PSoC4/CapSense_Processing.c **** *   - Resets the position data to NONE
 144:Generated_Source\PSoC4/CapSense_Processing.c **** *   - Initializes the position filter history if enabled.
ARM GAS  C:\Users\Erik\AppData\Local\Temp\ccRdsmWm.s 			page 4


 145:Generated_Source\PSoC4/CapSense_Processing.c **** *
 146:Generated_Source\PSoC4/CapSense_Processing.c **** * \details
 147:Generated_Source\PSoC4/CapSense_Processing.c **** *  The position data is always reset to the CapSense_TOUCHPAD_POS_NONE value.
 148:Generated_Source\PSoC4/CapSense_Processing.c **** *  The same happens to the position filter history data if enabled.
 149:Generated_Source\PSoC4/CapSense_Processing.c **** *
 150:Generated_Source\PSoC4/CapSense_Processing.c **** *******************************************************************************/
 151:Generated_Source\PSoC4/CapSense_Processing.c **** static CY_INLINE void CapSense_DpInitCsdTouchpad(CapSense_FLASH_WD_STRUCT const * ptrFlashWdgt)
 152:Generated_Source\PSoC4/CapSense_Processing.c **** {
 153:Generated_Source\PSoC4/CapSense_Processing.c ****     #if (CapSense_ENABLE == CapSense_CENTROID_5X5_CSD_EN)
 154:Generated_Source\PSoC4/CapSense_Processing.c ****         uint32 touchIndex;
 155:Generated_Source\PSoC4/CapSense_Processing.c ****     #endif
 156:Generated_Source\PSoC4/CapSense_Processing.c **** 
 157:Generated_Source\PSoC4/CapSense_Processing.c ****     CapSense_RAM_WD_CSD_TOUCHPAD_STRUCT *ptrWdTouchpad;
 158:Generated_Source\PSoC4/CapSense_Processing.c **** 
 159:Generated_Source\PSoC4/CapSense_Processing.c ****     #if (0u != CapSense_POSITION_FILTER_EN)
 160:Generated_Source\PSoC4/CapSense_Processing.c ****         CapSense_TOUCHPAD_POS_HISTORY_STRUCT *ptrHistory;
 161:Generated_Source\PSoC4/CapSense_Processing.c ****     #endif  /* #if (0u != CapSense_POSITION_FILTER_EN) */
 162:Generated_Source\PSoC4/CapSense_Processing.c **** 
 163:Generated_Source\PSoC4/CapSense_Processing.c ****     #if (0u != CapSense_POS_ADAPTIVE_IIR_FILTER_EN)
 164:Generated_Source\PSoC4/CapSense_Processing.c ****         ADAPTIVE_FILTER_CONTEXT_STRUCT adpContext;
 165:Generated_Source\PSoC4/CapSense_Processing.c ****     #endif /* (0u != CapSense_POS_ADAPTIVE_IIR_FILTER_EN) */
 166:Generated_Source\PSoC4/CapSense_Processing.c **** 
 167:Generated_Source\PSoC4/CapSense_Processing.c ****     ptrWdTouchpad = ptrFlashWdgt->ptr2WdgtRam;
 168:Generated_Source\PSoC4/CapSense_Processing.c **** 
 169:Generated_Source\PSoC4/CapSense_Processing.c ****     /* Reset position data */
 170:Generated_Source\PSoC4/CapSense_Processing.c ****     #if (CapSense_ENABLE == CapSense_CENTROID_5X5_CSD_EN)
 171:Generated_Source\PSoC4/CapSense_Processing.c ****         #if (CapSense_ENABLE == CapSense_CENTROID_3X3_CSD_EN)
 172:Generated_Source\PSoC4/CapSense_Processing.c ****             if (0u != (ptrFlashWdgt->staticConfig & CapSense_CENTROID_5X5_MASK))
 173:Generated_Source\PSoC4/CapSense_Processing.c ****             {
 174:Generated_Source\PSoC4/CapSense_Processing.c ****         #endif
 175:Generated_Source\PSoC4/CapSense_Processing.c **** 
 176:Generated_Source\PSoC4/CapSense_Processing.c ****         ptrWdTouchpad->position.touchNum = 0u;
 177:Generated_Source\PSoC4/CapSense_Processing.c **** 
 178:Generated_Source\PSoC4/CapSense_Processing.c ****         #if (0u != CapSense_POSITION_FILTER_EN)
 179:Generated_Source\PSoC4/CapSense_Processing.c ****             ptrHistory = ptrFlashWdgt->ptr2PosHistory;
 180:Generated_Source\PSoC4/CapSense_Processing.c ****         #endif /* (0u != CapSense_POSITION_FILTER_EN) */
 181:Generated_Source\PSoC4/CapSense_Processing.c **** 
 182:Generated_Source\PSoC4/CapSense_Processing.c ****         for (touchIndex = 0u; touchIndex < ADVANCED_CENTROID_MAX_TOUCHES; touchIndex++)
 183:Generated_Source\PSoC4/CapSense_Processing.c ****         {
 184:Generated_Source\PSoC4/CapSense_Processing.c ****             ptrWdTouchpad->position.pos[touchIndex].x = ADVANCED_CENTROID_POSITION_NONE;
 185:Generated_Source\PSoC4/CapSense_Processing.c ****             ptrWdTouchpad->position.pos[touchIndex].y = ADVANCED_CENTROID_POSITION_NONE;
 186:Generated_Source\PSoC4/CapSense_Processing.c ****             ptrWdTouchpad->position.pos[touchIndex].zX = ADVANCED_CENTROID_POSITION_NONE;
 187:Generated_Source\PSoC4/CapSense_Processing.c ****             ptrWdTouchpad->position.pos[touchIndex].zY = ADVANCED_CENTROID_POSITION_NONE;
 188:Generated_Source\PSoC4/CapSense_Processing.c **** 
 189:Generated_Source\PSoC4/CapSense_Processing.c ****             /* Clear position filter history data if available */
 190:Generated_Source\PSoC4/CapSense_Processing.c ****             #if (0u != CapSense_POSITION_FILTER_EN)
 191:Generated_Source\PSoC4/CapSense_Processing.c ****                 if (NULL != ptrHistory)
 192:Generated_Source\PSoC4/CapSense_Processing.c ****                 {
 193:Generated_Source\PSoC4/CapSense_Processing.c ****                     CapSense_InitPosFiltersDd(&ptrHistory[touchIndex], CapSense_TOUCHPAD_POS_NONE, 
 194:Generated_Source\PSoC4/CapSense_Processing.c ****                     #if (0u != CapSense_POS_ADAPTIVE_IIR_FILTER_EN)
 195:Generated_Source\PSoC4/CapSense_Processing.c ****                         AdaptiveFilter_Initialize(&ptrWdTouchpad->aiirConfig, &adpContext);
 196:Generated_Source\PSoC4/CapSense_Processing.c ****                         ptrHistory[touchIndex].xPos.posAIIRCoeff = adpContext.coefficient;
 197:Generated_Source\PSoC4/CapSense_Processing.c ****                         ptrHistory[touchIndex].yPos.posAIIRCoeff = adpContext.coefficient;
 198:Generated_Source\PSoC4/CapSense_Processing.c ****                     #endif /* (0u != CapSense_POS_ADAPTIVE_IIR_FILTER_EN) */
 199:Generated_Source\PSoC4/CapSense_Processing.c ****                 }
 200:Generated_Source\PSoC4/CapSense_Processing.c ****             #endif /* (0u != CapSense_POSITION_FILTER_EN) */
 201:Generated_Source\PSoC4/CapSense_Processing.c ****         }
ARM GAS  C:\Users\Erik\AppData\Local\Temp\ccRdsmWm.s 			page 5


 202:Generated_Source\PSoC4/CapSense_Processing.c **** 
 203:Generated_Source\PSoC4/CapSense_Processing.c ****         #if (CapSense_ENABLE == CapSense_CENTROID_3X3_CSD_EN)
 204:Generated_Source\PSoC4/CapSense_Processing.c ****             }
 205:Generated_Source\PSoC4/CapSense_Processing.c ****         #endif
 206:Generated_Source\PSoC4/CapSense_Processing.c ****     #endif
 207:Generated_Source\PSoC4/CapSense_Processing.c **** 
 208:Generated_Source\PSoC4/CapSense_Processing.c ****     #if (CapSense_ENABLE == CapSense_CENTROID_3X3_CSD_EN)
 209:Generated_Source\PSoC4/CapSense_Processing.c ****         if (0u != (ptrFlashWdgt->staticConfig & CapSense_CENTROID_3X3_MASK))
 210:Generated_Source\PSoC4/CapSense_Processing.c ****         {
 211:Generated_Source\PSoC4/CapSense_Processing.c ****             ptrWdTouchpad->posX = CapSense_TOUCHPAD_POS_NONE;
 212:Generated_Source\PSoC4/CapSense_Processing.c ****             ptrWdTouchpad->posY = CapSense_TOUCHPAD_POS_NONE;
 213:Generated_Source\PSoC4/CapSense_Processing.c **** 
 214:Generated_Source\PSoC4/CapSense_Processing.c ****             /* Clear position filter history data if available */
 215:Generated_Source\PSoC4/CapSense_Processing.c ****             #if (0u != CapSense_POSITION_FILTER_EN)
 216:Generated_Source\PSoC4/CapSense_Processing.c ****                 ptrHistory = ptrFlashWdgt->ptr2PosHistory;
 217:Generated_Source\PSoC4/CapSense_Processing.c ****                 CapSense_InitPosFiltersDd(ptrHistory, CapSense_TOUCHPAD_POS_NONE, CapSense_TOUCHPAD
 218:Generated_Source\PSoC4/CapSense_Processing.c **** 
 219:Generated_Source\PSoC4/CapSense_Processing.c ****                 #if (0u != CapSense_POS_ADAPTIVE_IIR_FILTER_EN)
 220:Generated_Source\PSoC4/CapSense_Processing.c ****                     if (NULL != ptrHistory)
 221:Generated_Source\PSoC4/CapSense_Processing.c ****                     {
 222:Generated_Source\PSoC4/CapSense_Processing.c ****                         AdaptiveFilter_Initialize(&ptrWdTouchpad->aiirConfig, &adpContext);
 223:Generated_Source\PSoC4/CapSense_Processing.c ****                         ptrHistory->xPos.posAIIRCoeff = adpContext.coefficient;
 224:Generated_Source\PSoC4/CapSense_Processing.c ****                         ptrHistory->yPos.posAIIRCoeff = adpContext.coefficient;
 225:Generated_Source\PSoC4/CapSense_Processing.c ****                     }
 226:Generated_Source\PSoC4/CapSense_Processing.c ****                 #endif /* (0u != CapSense_POS_ADAPTIVE_IIR_FILTER_EN) */
 227:Generated_Source\PSoC4/CapSense_Processing.c ****             #endif /* (0u != CapSense_POSITION_FILTER_EN) */
 228:Generated_Source\PSoC4/CapSense_Processing.c ****         }
 229:Generated_Source\PSoC4/CapSense_Processing.c ****     #endif
 230:Generated_Source\PSoC4/CapSense_Processing.c **** }
 231:Generated_Source\PSoC4/CapSense_Processing.c **** #endif /* #if (0u != CapSense_CSD_TOUCHPAD_WIDGET_EN) */
 232:Generated_Source\PSoC4/CapSense_Processing.c **** 
 233:Generated_Source\PSoC4/CapSense_Processing.c **** #if (0u != CapSense_CSX_TOUCHPAD_WIDGET_EN)
 234:Generated_Source\PSoC4/CapSense_Processing.c **** /*******************************************************************************
 235:Generated_Source\PSoC4/CapSense_Processing.c **** * Function Name: CapSense_DpInitCsxTouchpad
 236:Generated_Source\PSoC4/CapSense_Processing.c **** ****************************************************************************//**
 237:Generated_Source\PSoC4/CapSense_Processing.c **** *
 238:Generated_Source\PSoC4/CapSense_Processing.c **** * \brief
 239:Generated_Source\PSoC4/CapSense_Processing.c **** *  Performs initialization of the CSX touchpad widget i.e. Resets the position data to NONE.
 240:Generated_Source\PSoC4/CapSense_Processing.c **** *
 241:Generated_Source\PSoC4/CapSense_Processing.c **** * \details
 242:Generated_Source\PSoC4/CapSense_Processing.c **** *  The position data is always reset to the CapSense_TOUCHPAD_POS_NONE value.
 243:Generated_Source\PSoC4/CapSense_Processing.c **** *
 244:Generated_Source\PSoC4/CapSense_Processing.c **** *******************************************************************************/
 245:Generated_Source\PSoC4/CapSense_Processing.c **** static CY_INLINE void CapSense_DpInitCsxTouchpad(CapSense_FLASH_WD_STRUCT const * ptrFlashWdgt)
 246:Generated_Source\PSoC4/CapSense_Processing.c **** {
 247:Generated_Source\PSoC4/CapSense_Processing.c ****     CapSense_RAM_WD_CSX_TOUCHPAD_STRUCT *ptrWdTouchpad;
 248:Generated_Source\PSoC4/CapSense_Processing.c **** 
 249:Generated_Source\PSoC4/CapSense_Processing.c ****     #if (0u != CapSense_POSITION_FILTER_EN)
 250:Generated_Source\PSoC4/CapSense_Processing.c ****         uint32 touchIndex;
 251:Generated_Source\PSoC4/CapSense_Processing.c ****         CapSense_TOUCHPAD_POS_HISTORY_STRUCT *ptrHistory;
 252:Generated_Source\PSoC4/CapSense_Processing.c ****     #endif  /* #if (0u != CapSense_POSITION_FILTER_EN) */
 253:Generated_Source\PSoC4/CapSense_Processing.c **** 
 254:Generated_Source\PSoC4/CapSense_Processing.c ****     #if (0u != CapSense_POS_ADAPTIVE_IIR_FILTER_EN)
 255:Generated_Source\PSoC4/CapSense_Processing.c ****         ADAPTIVE_FILTER_CONTEXT_STRUCT adpContext;
 256:Generated_Source\PSoC4/CapSense_Processing.c ****     #endif /* (0u != CapSense_POS_ADAPTIVE_IIR_FILTER_EN) */
 257:Generated_Source\PSoC4/CapSense_Processing.c **** 
 258:Generated_Source\PSoC4/CapSense_Processing.c ****     ptrWdTouchpad = ptrFlashWdgt->ptr2WdgtRam;
ARM GAS  C:\Users\Erik\AppData\Local\Temp\ccRdsmWm.s 			page 6


 259:Generated_Source\PSoC4/CapSense_Processing.c **** 
 260:Generated_Source\PSoC4/CapSense_Processing.c ****     #if (0u != CapSense_POSITION_FILTER_EN)
 261:Generated_Source\PSoC4/CapSense_Processing.c ****         ptrHistory = ptrFlashWdgt->ptr2PosHistory;
 262:Generated_Source\PSoC4/CapSense_Processing.c ****     #endif /* (0u != CapSense_POSITION_FILTER_EN) */
 263:Generated_Source\PSoC4/CapSense_Processing.c **** 
 264:Generated_Source\PSoC4/CapSense_Processing.c ****     /* Reset position data for finger */
 265:Generated_Source\PSoC4/CapSense_Processing.c ****     ptrWdTouchpad->touch[0u].x = CapSense_TOUCHPAD_POS_NONE;
 266:Generated_Source\PSoC4/CapSense_Processing.c ****     ptrWdTouchpad->touch[0u].y = CapSense_TOUCHPAD_POS_NONE;
 267:Generated_Source\PSoC4/CapSense_Processing.c ****     ptrWdTouchpad->touch[0u].z = LO8(CapSense_TOUCHPAD_POS_NONE);
 268:Generated_Source\PSoC4/CapSense_Processing.c **** 
 269:Generated_Source\PSoC4/CapSense_Processing.c ****     #if (CapSense_CSX_MAX_FINGERS > 1u)
 270:Generated_Source\PSoC4/CapSense_Processing.c ****         ptrWdTouchpad->touch[1u].x = CapSense_TOUCHPAD_POS_NONE;
 271:Generated_Source\PSoC4/CapSense_Processing.c ****         ptrWdTouchpad->touch[1u].y = CapSense_TOUCHPAD_POS_NONE;
 272:Generated_Source\PSoC4/CapSense_Processing.c ****         ptrWdTouchpad->touch[1u].z = LO8(CapSense_TOUCHPAD_POS_NONE);
 273:Generated_Source\PSoC4/CapSense_Processing.c ****     #endif /* #if (CapSense_CSX_MAX_FINGERS > 1u) */
 274:Generated_Source\PSoC4/CapSense_Processing.c **** 
 275:Generated_Source\PSoC4/CapSense_Processing.c ****     #if (CapSense_CSX_MAX_FINGERS > 2u)
 276:Generated_Source\PSoC4/CapSense_Processing.c ****         ptrWdTouchpad->touch[2u].x = CapSense_TOUCHPAD_POS_NONE;
 277:Generated_Source\PSoC4/CapSense_Processing.c ****         ptrWdTouchpad->touch[2u].y = CapSense_TOUCHPAD_POS_NONE;
 278:Generated_Source\PSoC4/CapSense_Processing.c ****         ptrWdTouchpad->touch[2u].z = LO8(CapSense_TOUCHPAD_POS_NONE);
 279:Generated_Source\PSoC4/CapSense_Processing.c ****     #endif /* #if (CapSense_CSX_MAX_FINGERS > 2u) */
 280:Generated_Source\PSoC4/CapSense_Processing.c **** 
 281:Generated_Source\PSoC4/CapSense_Processing.c ****     #if (0u != CapSense_POSITION_FILTER_EN)
 282:Generated_Source\PSoC4/CapSense_Processing.c ****         for (touchIndex = 0u; touchIndex < CapSense_CSX_MAX_FINGERS; touchIndex++)
 283:Generated_Source\PSoC4/CapSense_Processing.c ****         {
 284:Generated_Source\PSoC4/CapSense_Processing.c ****             if (NULL != ptrHistory)
 285:Generated_Source\PSoC4/CapSense_Processing.c ****             {
 286:Generated_Source\PSoC4/CapSense_Processing.c ****                 /* Clear position filter history data if available */
 287:Generated_Source\PSoC4/CapSense_Processing.c ****                 CapSense_InitPosFiltersDd(&ptrHistory[touchIndex], CapSense_TOUCHPAD_POS_NONE, CapS
 288:Generated_Source\PSoC4/CapSense_Processing.c ****                 #if (0u != CapSense_POS_ADAPTIVE_IIR_FILTER_EN)
 289:Generated_Source\PSoC4/CapSense_Processing.c ****                     AdaptiveFilter_Initialize(&ptrWdTouchpad->aiirConfig, &adpContext);
 290:Generated_Source\PSoC4/CapSense_Processing.c ****                     ptrHistory[touchIndex].xPos.posAIIRCoeff = adpContext.coefficient;
 291:Generated_Source\PSoC4/CapSense_Processing.c ****                     ptrHistory[touchIndex].yPos.posAIIRCoeff = adpContext.coefficient;
 292:Generated_Source\PSoC4/CapSense_Processing.c ****                 #endif /* (0u != CapSense_POS_ADAPTIVE_IIR_FILTER_EN) */
 293:Generated_Source\PSoC4/CapSense_Processing.c ****             }
 294:Generated_Source\PSoC4/CapSense_Processing.c ****         }
 295:Generated_Source\PSoC4/CapSense_Processing.c ****     #endif /* (0u != CapSense_POSITION_FILTER_EN) */
 296:Generated_Source\PSoC4/CapSense_Processing.c **** }
 297:Generated_Source\PSoC4/CapSense_Processing.c **** #endif /* #if (0u != CapSense_CSX_TOUCHPAD_WIDGET_EN) */
 298:Generated_Source\PSoC4/CapSense_Processing.c **** 
 299:Generated_Source\PSoC4/CapSense_Processing.c **** #if (0u != CapSense_SLIDER_WIDGET_EN)
 300:Generated_Source\PSoC4/CapSense_Processing.c **** /*******************************************************************************
 301:Generated_Source\PSoC4/CapSense_Processing.c **** * Function Name: CapSense_DpInitSlider
 302:Generated_Source\PSoC4/CapSense_Processing.c **** ****************************************************************************//**
 303:Generated_Source\PSoC4/CapSense_Processing.c **** *
 304:Generated_Source\PSoC4/CapSense_Processing.c **** * \brief
 305:Generated_Source\PSoC4/CapSense_Processing.c **** *  Performs initialization of the Radial and Linear Slider widget.
 306:Generated_Source\PSoC4/CapSense_Processing.c **** *   - Resets the position data to NONE
 307:Generated_Source\PSoC4/CapSense_Processing.c **** *   - Initializes the position filter history to NONE if enabled.
 308:Generated_Source\PSoC4/CapSense_Processing.c **** *
 309:Generated_Source\PSoC4/CapSense_Processing.c **** * \details
 310:Generated_Source\PSoC4/CapSense_Processing.c **** *  Position data is always reset to the CapSense_SLIDER_POS_NONE value.
 311:Generated_Source\PSoC4/CapSense_Processing.c **** *  The same happens to the position filter history data if enabled.
 312:Generated_Source\PSoC4/CapSense_Processing.c **** *
 313:Generated_Source\PSoC4/CapSense_Processing.c **** *******************************************************************************/
 314:Generated_Source\PSoC4/CapSense_Processing.c **** static CY_INLINE void CapSense_DpInitSlider(CapSense_FLASH_WD_STRUCT const * ptrFlashWdgt)
 315:Generated_Source\PSoC4/CapSense_Processing.c **** {
ARM GAS  C:\Users\Erik\AppData\Local\Temp\ccRdsmWm.s 			page 7


 316:Generated_Source\PSoC4/CapSense_Processing.c ****     uint32 idx;
 317:Generated_Source\PSoC4/CapSense_Processing.c ****     CapSense_RAM_WD_SLIDER_STRUCT *ptrWdSlider;
 318:Generated_Source\PSoC4/CapSense_Processing.c **** 
 319:Generated_Source\PSoC4/CapSense_Processing.c ****     #if (0u != CapSense_POSITION_FILTER_EN)
 320:Generated_Source\PSoC4/CapSense_Processing.c ****         CapSense_SLIDER_POS_HISTORY_STRUCT *ptrHistory;
 321:Generated_Source\PSoC4/CapSense_Processing.c ****     #endif /* #if (0u != CapSense_POSITION_FILTER_EN) */
 322:Generated_Source\PSoC4/CapSense_Processing.c **** 
 323:Generated_Source\PSoC4/CapSense_Processing.c ****     #if (0u != CapSense_POS_ADAPTIVE_IIR_FILTER_EN)
 324:Generated_Source\PSoC4/CapSense_Processing.c ****         ADAPTIVE_FILTER_CONTEXT_STRUCT context;
 325:Generated_Source\PSoC4/CapSense_Processing.c ****     #endif /* (0u != CapSense_POS_ADAPTIVE_IIR_FILTER_EN) */
 326:Generated_Source\PSoC4/CapSense_Processing.c **** 
 327:Generated_Source\PSoC4/CapSense_Processing.c ****     ptrWdSlider = ptrFlashWdgt->ptr2WdgtRam;
 328:Generated_Source\PSoC4/CapSense_Processing.c **** 
 329:Generated_Source\PSoC4/CapSense_Processing.c ****     /* Reset slider position data to NONE */
 330:Generated_Source\PSoC4/CapSense_Processing.c ****     for (idx = 0u; idx < CapSense_NUM_CENTROIDS; idx++)
 331:Generated_Source\PSoC4/CapSense_Processing.c ****     {
 332:Generated_Source\PSoC4/CapSense_Processing.c ****         ptrWdSlider->position[idx] = CapSense_SLIDER_POS_NONE;
 333:Generated_Source\PSoC4/CapSense_Processing.c **** 
 334:Generated_Source\PSoC4/CapSense_Processing.c ****         #if (0u != CapSense_POSITION_FILTER_EN)
 335:Generated_Source\PSoC4/CapSense_Processing.c ****             ptrHistory = ptrFlashWdgt->ptr2PosHistory;
 336:Generated_Source\PSoC4/CapSense_Processing.c ****             if (NULL != ptrHistory)
 337:Generated_Source\PSoC4/CapSense_Processing.c ****             {
 338:Generated_Source\PSoC4/CapSense_Processing.c ****                 CapSense_InitPosFiltersSd(&ptrHistory[idx], CapSense_SLIDER_POS_NONE);
 339:Generated_Source\PSoC4/CapSense_Processing.c ****                 #if (0u != CapSense_POS_ADAPTIVE_IIR_FILTER_EN)
 340:Generated_Source\PSoC4/CapSense_Processing.c ****                     AdaptiveFilter_Initialize(&ptrWdSlider->aiirConfig, &context);
 341:Generated_Source\PSoC4/CapSense_Processing.c ****                     ptrHistory->posAIIRCoeff = context.coefficient;
 342:Generated_Source\PSoC4/CapSense_Processing.c ****                 #endif /* (0u != CapSense_POS_ADAPTIVE_IIR_FILTER_EN) */
 343:Generated_Source\PSoC4/CapSense_Processing.c ****             }
 344:Generated_Source\PSoC4/CapSense_Processing.c **** 
 345:Generated_Source\PSoC4/CapSense_Processing.c ****         #endif /* #if (0u != CapSense_POSITION_FILTER_EN) */
 346:Generated_Source\PSoC4/CapSense_Processing.c ****     }
 347:Generated_Source\PSoC4/CapSense_Processing.c **** }
 348:Generated_Source\PSoC4/CapSense_Processing.c **** #endif /* #if (0u != CapSense_SLIDER_WIDGET_EN) */
 349:Generated_Source\PSoC4/CapSense_Processing.c **** 
 350:Generated_Source\PSoC4/CapSense_Processing.c **** #if (0u != CapSense_CSD_MATRIX_WIDGET_EN)
 351:Generated_Source\PSoC4/CapSense_Processing.c **** /*******************************************************************************
 352:Generated_Source\PSoC4/CapSense_Processing.c **** * Function Name: CapSense_DpInitCsdMatrix
 353:Generated_Source\PSoC4/CapSense_Processing.c **** ****************************************************************************//**
 354:Generated_Source\PSoC4/CapSense_Processing.c **** *
 355:Generated_Source\PSoC4/CapSense_Processing.c **** * \brief
 356:Generated_Source\PSoC4/CapSense_Processing.c **** *  Performs initialization of the CSD Matrix Buttons widget.
 357:Generated_Source\PSoC4/CapSense_Processing.c **** *   - Resets the active button position data to NONE.
 358:Generated_Source\PSoC4/CapSense_Processing.c **** *
 359:Generated_Source\PSoC4/CapSense_Processing.c **** * \details
 360:Generated_Source\PSoC4/CapSense_Processing.c **** *  Position data is always reset to the CapSense_MATRIX_POS_NONE value.
 361:Generated_Source\PSoC4/CapSense_Processing.c **** *
 362:Generated_Source\PSoC4/CapSense_Processing.c **** *******************************************************************************/
 363:Generated_Source\PSoC4/CapSense_Processing.c **** static CY_INLINE void CapSense_DpInitCsdMatrix(CapSense_FLASH_WD_STRUCT const * ptrFlashWdgt)
 364:Generated_Source\PSoC4/CapSense_Processing.c **** {
 365:Generated_Source\PSoC4/CapSense_Processing.c ****     CapSense_RAM_WD_CSD_MATRIX_STRUCT *ptrRamWdgt;
 366:Generated_Source\PSoC4/CapSense_Processing.c **** 
 367:Generated_Source\PSoC4/CapSense_Processing.c ****     ptrRamWdgt = (CapSense_RAM_WD_CSD_MATRIX_STRUCT *)ptrFlashWdgt->ptr2WdgtRam;
 368:Generated_Source\PSoC4/CapSense_Processing.c **** 
 369:Generated_Source\PSoC4/CapSense_Processing.c ****     /* Reset sensor id, row and col registers in data structure */
 370:Generated_Source\PSoC4/CapSense_Processing.c ****     ptrRamWdgt->posRow   = CapSense_MATRIX_POS_NONE;
 371:Generated_Source\PSoC4/CapSense_Processing.c ****     ptrRamWdgt->posCol   = CapSense_MATRIX_POS_NONE;
 372:Generated_Source\PSoC4/CapSense_Processing.c ****     ptrRamWdgt->posSnsId = CapSense_MATRIX_POS_NONE;
ARM GAS  C:\Users\Erik\AppData\Local\Temp\ccRdsmWm.s 			page 8


 373:Generated_Source\PSoC4/CapSense_Processing.c **** }
 374:Generated_Source\PSoC4/CapSense_Processing.c **** #endif /* #if (0u != CapSense_CSD_MATRIX_WIDGET_EN) */
 375:Generated_Source\PSoC4/CapSense_Processing.c **** 
 376:Generated_Source\PSoC4/CapSense_Processing.c **** /*******************************************************************************
 377:Generated_Source\PSoC4/CapSense_Processing.c **** * Function Name: CapSense_DpInitialize
 378:Generated_Source\PSoC4/CapSense_Processing.c **** ****************************************************************************//**
 379:Generated_Source\PSoC4/CapSense_Processing.c **** *
 380:Generated_Source\PSoC4/CapSense_Processing.c **** * \brief
 381:Generated_Source\PSoC4/CapSense_Processing.c **** *  Performs initialization of the data processing FW module:
 382:Generated_Source\PSoC4/CapSense_Processing.c **** *   - Resets the de-bounce counters of all the widgets
 383:Generated_Source\PSoC4/CapSense_Processing.c **** *   - Resets the position filter history for slider and touchpad widgets
 384:Generated_Source\PSoC4/CapSense_Processing.c **** *   - Clears widget and sensor statuses
 385:Generated_Source\PSoC4/CapSense_Processing.c **** *   - Enables all the widgets.
 386:Generated_Source\PSoC4/CapSense_Processing.c **** *
 387:Generated_Source\PSoC4/CapSense_Processing.c **** * \details
 388:Generated_Source\PSoC4/CapSense_Processing.c **** *  The Button and Matrix Button widgets have individual de-bounce counter per
 389:Generated_Source\PSoC4/CapSense_Processing.c **** *  sensor for the CSD widgets and per node for the CSX widgets.
 390:Generated_Source\PSoC4/CapSense_Processing.c **** *
 391:Generated_Source\PSoC4/CapSense_Processing.c **** *  The Slider and Touchpad widgets have a single de-bounce counter per widget.
 392:Generated_Source\PSoC4/CapSense_Processing.c **** *
 393:Generated_Source\PSoC4/CapSense_Processing.c **** *  The Proximity widget has two de-bounce counters per sensor. One for the
 394:Generated_Source\PSoC4/CapSense_Processing.c **** *  proximity event and second for the touch event.
 395:Generated_Source\PSoC4/CapSense_Processing.c **** *
 396:Generated_Source\PSoC4/CapSense_Processing.c **** *  All debounce counters during initialization are set to the value of the
 397:Generated_Source\PSoC4/CapSense_Processing.c **** *  onDebounce widget parameter.
 398:Generated_Source\PSoC4/CapSense_Processing.c **** *
 399:Generated_Source\PSoC4/CapSense_Processing.c **** *******************************************************************************/
 400:Generated_Source\PSoC4/CapSense_Processing.c **** void CapSense_DpInitialize(void)
 401:Generated_Source\PSoC4/CapSense_Processing.c **** {
  28              		.loc 1 401 0
  29              		.cfi_startproc
  30              		@ args = 0, pretend = 0, frame = 0
  31              		@ frame_needed = 0, uses_anonymous_args = 0
  32 0000 70B5     		push	{r4, r5, r6, lr}
  33              		.cfi_def_cfa_offset 16
  34              		.cfi_offset 4, -16
  35              		.cfi_offset 5, -12
  36              		.cfi_offset 6, -8
  37              		.cfi_offset 14, -4
  38              	.LVL0:
 402:Generated_Source\PSoC4/CapSense_Processing.c ****     uint32 wdgtId;
 403:Generated_Source\PSoC4/CapSense_Processing.c ****     CapSense_WD_TYPE_ENUM widgetType;
 404:Generated_Source\PSoC4/CapSense_Processing.c ****     CapSense_RAM_WD_BASE_STRUCT * ptrRamWdgt;
 405:Generated_Source\PSoC4/CapSense_Processing.c ****     CapSense_FLASH_WD_STRUCT const * ptrFlashWdgt;
 406:Generated_Source\PSoC4/CapSense_Processing.c **** 
 407:Generated_Source\PSoC4/CapSense_Processing.c ****     for (wdgtId = 0u; wdgtId < CapSense_WDGT_STATUS_WORDS; wdgtId++)
  39              		.loc 1 407 0
  40 0002 0023     		movs	r3, #0
  41 0004 09E0     		b	.L2
  42              	.LVL1:
  43              	.L3:
 408:Generated_Source\PSoC4/CapSense_Processing.c ****     {
 409:Generated_Source\PSoC4/CapSense_Processing.c ****         /* Clear widget status */
 410:Generated_Source\PSoC4/CapSense_Processing.c ****         CapSense_dsRam.wdgtStatus[wdgtId] = 0u;
  44              		.loc 1 410 0 discriminator 3
  45 0006 1249     		ldr	r1, .L8
  46 0008 1A1D     		adds	r2, r3, #4
ARM GAS  C:\Users\Erik\AppData\Local\Temp\ccRdsmWm.s 			page 9


  47 000a 9200     		lsls	r2, r2, #2
  48 000c 8818     		adds	r0, r1, r2
  49 000e 0024     		movs	r4, #0
  50 0010 4460     		str	r4, [r0, #4]
 411:Generated_Source\PSoC4/CapSense_Processing.c **** 
 412:Generated_Source\PSoC4/CapSense_Processing.c ****         /* Enable all the widgets */
 413:Generated_Source\PSoC4/CapSense_Processing.c ****         CapSense_dsRam.wdgtEnable[wdgtId] = 0xFFFFFFFFLu;
  51              		.loc 1 413 0 discriminator 3
  52 0012 0120     		movs	r0, #1
  53 0014 4042     		rsbs	r0, r0, #0
  54 0016 5050     		str	r0, [r2, r1]
 407:Generated_Source\PSoC4/CapSense_Processing.c ****     {
  55              		.loc 1 407 0 discriminator 3
  56 0018 0133     		adds	r3, r3, #1
  57              	.LVL2:
  58              	.L2:
 407:Generated_Source\PSoC4/CapSense_Processing.c ****     {
  59              		.loc 1 407 0 is_stmt 0 discriminator 1
  60 001a 002B     		cmp	r3, #0
  61 001c F3D0     		beq	.L3
  62 001e 0D4C     		ldr	r4, .L8+4
  63 0020 0123     		movs	r3, #1
  64              	.LVL3:
  65 0022 11E0     		b	.L4
  66              	.LVL4:
  67              	.L7:
 414:Generated_Source\PSoC4/CapSense_Processing.c **** 
 415:Generated_Source\PSoC4/CapSense_Processing.c ****         /* Set all the widgets to working state if the Self-Test is not enabled */
 416:Generated_Source\PSoC4/CapSense_Processing.c ****         #if (0u != CapSense_SELF_TEST_EN)
 417:Generated_Source\PSoC4/CapSense_Processing.c ****             CapSense_dsRam.wdgtWorking[wdgtId] = 0xFFFFFFFFLu;
 418:Generated_Source\PSoC4/CapSense_Processing.c ****         #endif /* #if (0u == CapSense_SELF_TEST_EN) */
 419:Generated_Source\PSoC4/CapSense_Processing.c ****     }
 420:Generated_Source\PSoC4/CapSense_Processing.c **** 
 421:Generated_Source\PSoC4/CapSense_Processing.c ****     ptrFlashWdgt = CapSense_dsFlash.wdgtArray;
 422:Generated_Source\PSoC4/CapSense_Processing.c **** 
 423:Generated_Source\PSoC4/CapSense_Processing.c ****     for (wdgtId = CapSense_TOTAL_WIDGETS; wdgtId-- > 0u; )
 424:Generated_Source\PSoC4/CapSense_Processing.c ****     {
 425:Generated_Source\PSoC4/CapSense_Processing.c ****         ptrRamWdgt = (CapSense_RAM_WD_BASE_STRUCT *)ptrFlashWdgt->ptr2WdgtRam;
  68              		.loc 1 425 0 is_stmt 1
  69 0024 6668     		ldr	r6, [r4, #4]
  70              	.LVL5:
 426:Generated_Source\PSoC4/CapSense_Processing.c ****         widgetType = (CapSense_WD_TYPE_ENUM)ptrFlashWdgt->wdgtType;
  71              		.loc 1 426 0
  72 0026 A27E     		ldrb	r2, [r4, #26]
  73              	.LVL6:
 427:Generated_Source\PSoC4/CapSense_Processing.c **** 
 428:Generated_Source\PSoC4/CapSense_Processing.c ****         /* Clear all sensor statuses */
 429:Generated_Source\PSoC4/CapSense_Processing.c ****         CapSense_dsRam.snsStatus[wdgtId] = 0u;
  74              		.loc 1 429 0
  75 0028 AB1D     		adds	r3, r5, #6
  76 002a 9B00     		lsls	r3, r3, #2
  77 002c 0020     		movs	r0, #0
  78 002e 0849     		ldr	r1, .L8
  79 0030 5850     		str	r0, [r3, r1]
 430:Generated_Source\PSoC4/CapSense_Processing.c **** 
 431:Generated_Source\PSoC4/CapSense_Processing.c ****         /* Reset de-bounce counters */
 432:Generated_Source\PSoC4/CapSense_Processing.c ****         switch (widgetType)
ARM GAS  C:\Users\Erik\AppData\Local\Temp\ccRdsmWm.s 			page 10


  80              		.loc 1 432 0
  81 0032 012A     		cmp	r2, #1
  82 0034 06D1     		bne	.L5
 433:Generated_Source\PSoC4/CapSense_Processing.c ****         {
 434:Generated_Source\PSoC4/CapSense_Processing.c ****         #if (0u != CapSense_MATRIX_WIDGET_EN)
 435:Generated_Source\PSoC4/CapSense_Processing.c ****             case CapSense_WD_MATRIX_BUTTON_E:
 436:Generated_Source\PSoC4/CapSense_Processing.c ****                 #if (0u != CapSense_CSD_MATRIX_WIDGET_EN)
 437:Generated_Source\PSoC4/CapSense_Processing.c ****                     if (CapSense_SENSE_METHOD_CSD_E == CapSense_GET_SENSE_METHOD(ptrFlashWdgt))
 438:Generated_Source\PSoC4/CapSense_Processing.c ****                     {
 439:Generated_Source\PSoC4/CapSense_Processing.c ****                         CapSense_DpInitCsdMatrix(ptrFlashWdgt);
 440:Generated_Source\PSoC4/CapSense_Processing.c ****                     }
 441:Generated_Source\PSoC4/CapSense_Processing.c ****                 #endif /* #if (0u != CapSense_CSD_MATRIX_WIDGET_EN) */
 442:Generated_Source\PSoC4/CapSense_Processing.c **** 
 443:Generated_Source\PSoC4/CapSense_Processing.c ****                 if (NULL != ptrFlashWdgt->ptr2DebounceArr)
 444:Generated_Source\PSoC4/CapSense_Processing.c ****                 {
 445:Generated_Source\PSoC4/CapSense_Processing.c ****                     /* Initialize array of debounce counters */
 446:Generated_Source\PSoC4/CapSense_Processing.c ****                     (void)memset(ptrFlashWdgt->ptr2DebounceArr,
 447:Generated_Source\PSoC4/CapSense_Processing.c ****                                  (int32)ptrRamWdgt->onDebounce,
 448:Generated_Source\PSoC4/CapSense_Processing.c ****                                  (size_t)ptrFlashWdgt->totalNumSns);
 449:Generated_Source\PSoC4/CapSense_Processing.c ****                 }
 450:Generated_Source\PSoC4/CapSense_Processing.c ****                 break;
 451:Generated_Source\PSoC4/CapSense_Processing.c ****         #endif /* #if (0u != CapSense_MATRIX_WIDGET_EN) */
 452:Generated_Source\PSoC4/CapSense_Processing.c **** 
 453:Generated_Source\PSoC4/CapSense_Processing.c ****         #if (0u != CapSense_BUTTON_WIDGET_EN)
 454:Generated_Source\PSoC4/CapSense_Processing.c ****             case CapSense_WD_BUTTON_E:
 455:Generated_Source\PSoC4/CapSense_Processing.c ****                 if (NULL != ptrFlashWdgt->ptr2DebounceArr)
  83              		.loc 1 455 0
  84 0036 2069     		ldr	r0, [r4, #16]
  85 0038 0028     		cmp	r0, #0
  86 003a 03D0     		beq	.L5
 456:Generated_Source\PSoC4/CapSense_Processing.c ****                 {
 457:Generated_Source\PSoC4/CapSense_Processing.c ****                     /* Initialize array of debounce counters */
 458:Generated_Source\PSoC4/CapSense_Processing.c ****                     (void)memset(ptrFlashWdgt->ptr2DebounceArr,
 459:Generated_Source\PSoC4/CapSense_Processing.c ****                                  (int32)ptrRamWdgt->onDebounce,
  87              		.loc 1 459 0
  88 003c F179     		ldrb	r1, [r6, #7]
 460:Generated_Source\PSoC4/CapSense_Processing.c ****                                  (size_t)ptrFlashWdgt->totalNumSns);
  89              		.loc 1 460 0
  90 003e 228B     		ldrh	r2, [r4, #24]
  91              	.LVL7:
 458:Generated_Source\PSoC4/CapSense_Processing.c ****                                  (int32)ptrRamWdgt->onDebounce,
  92              		.loc 1 458 0
  93 0040 FFF7FEFF 		bl	memset
  94              	.LVL8:
  95              	.L5:
 461:Generated_Source\PSoC4/CapSense_Processing.c ****                 }
 462:Generated_Source\PSoC4/CapSense_Processing.c ****                 break;
 463:Generated_Source\PSoC4/CapSense_Processing.c ****         #endif /* #if (0u != CapSense_BUTTON_WIDGET_EN) */
 464:Generated_Source\PSoC4/CapSense_Processing.c **** 
 465:Generated_Source\PSoC4/CapSense_Processing.c ****         #if (0u != CapSense_SLIDER_WIDGET_EN)
 466:Generated_Source\PSoC4/CapSense_Processing.c ****             case CapSense_WD_LINEAR_SLIDER_E:
 467:Generated_Source\PSoC4/CapSense_Processing.c ****             case CapSense_WD_RADIAL_SLIDER_E:
 468:Generated_Source\PSoC4/CapSense_Processing.c ****                 if (NULL != ptrFlashWdgt->ptr2DebounceArr)
 469:Generated_Source\PSoC4/CapSense_Processing.c ****                 {
 470:Generated_Source\PSoC4/CapSense_Processing.c ****                     /* Initialize single debounce counter of slider */
 471:Generated_Source\PSoC4/CapSense_Processing.c ****                     *(uint8 *)(ptrFlashWdgt->ptr2DebounceArr) = ptrRamWdgt->onDebounce;
 472:Generated_Source\PSoC4/CapSense_Processing.c ****                 }
ARM GAS  C:\Users\Erik\AppData\Local\Temp\ccRdsmWm.s 			page 11


 473:Generated_Source\PSoC4/CapSense_Processing.c **** 
 474:Generated_Source\PSoC4/CapSense_Processing.c ****                 CapSense_DpInitSlider(ptrFlashWdgt);
 475:Generated_Source\PSoC4/CapSense_Processing.c **** 
 476:Generated_Source\PSoC4/CapSense_Processing.c ****                 break;
 477:Generated_Source\PSoC4/CapSense_Processing.c ****         #endif /* #if (0u != CapSense_SLIDER_WIDGET_EN) */
 478:Generated_Source\PSoC4/CapSense_Processing.c **** 
 479:Generated_Source\PSoC4/CapSense_Processing.c ****         #if (0u != CapSense_TOUCHPAD_WIDGET_EN)
 480:Generated_Source\PSoC4/CapSense_Processing.c ****             case CapSense_WD_TOUCHPAD_E:
 481:Generated_Source\PSoC4/CapSense_Processing.c ****                 if (NULL != ptrFlashWdgt->ptr2DebounceArr)
 482:Generated_Source\PSoC4/CapSense_Processing.c ****                 {
 483:Generated_Source\PSoC4/CapSense_Processing.c ****                     /* Initialize single debounce counter of touchpad */
 484:Generated_Source\PSoC4/CapSense_Processing.c ****                     *(uint8 *)(ptrFlashWdgt->ptr2DebounceArr) = ptrRamWdgt->onDebounce;
 485:Generated_Source\PSoC4/CapSense_Processing.c ****                 }
 486:Generated_Source\PSoC4/CapSense_Processing.c **** 
 487:Generated_Source\PSoC4/CapSense_Processing.c ****                 #if (0u != CapSense_CSD_TOUCHPAD_WIDGET_EN)
 488:Generated_Source\PSoC4/CapSense_Processing.c ****                     if (CapSense_SENSE_METHOD_CSD_E == CapSense_GET_SENSE_METHOD(ptrFlashWdgt))
 489:Generated_Source\PSoC4/CapSense_Processing.c ****                     {
 490:Generated_Source\PSoC4/CapSense_Processing.c ****                         CapSense_DpInitCsdTouchpad(ptrFlashWdgt);
 491:Generated_Source\PSoC4/CapSense_Processing.c ****                     }
 492:Generated_Source\PSoC4/CapSense_Processing.c ****                 #endif /* #if (0u != CapSense_CSD_TOUCHPAD_WIDGET_EN) */
 493:Generated_Source\PSoC4/CapSense_Processing.c **** 
 494:Generated_Source\PSoC4/CapSense_Processing.c ****                 #if (0u != CapSense_CSX_TOUCHPAD_WIDGET_EN)
 495:Generated_Source\PSoC4/CapSense_Processing.c ****                     if (CapSense_SENSE_METHOD_CSX_E == CapSense_GET_SENSE_METHOD(ptrFlashWdgt))
 496:Generated_Source\PSoC4/CapSense_Processing.c ****                     {
 497:Generated_Source\PSoC4/CapSense_Processing.c ****                         CapSense_DpInitCsxTouchpad(ptrFlashWdgt);
 498:Generated_Source\PSoC4/CapSense_Processing.c ****                     }
 499:Generated_Source\PSoC4/CapSense_Processing.c ****                 #endif /* #if (0u != CapSense_CSX_TOUCHPAD_WIDGET_EN) */
 500:Generated_Source\PSoC4/CapSense_Processing.c **** 
 501:Generated_Source\PSoC4/CapSense_Processing.c ****                 break;
 502:Generated_Source\PSoC4/CapSense_Processing.c ****         #endif /* #if (0u != CapSense_TOUCHPAD_WIDGET_EN) */
 503:Generated_Source\PSoC4/CapSense_Processing.c **** 
 504:Generated_Source\PSoC4/CapSense_Processing.c ****         #if (0u != CapSense_PROXIMITY_WIDGET_EN)
 505:Generated_Source\PSoC4/CapSense_Processing.c ****             case CapSense_WD_PROXIMITY_E:
 506:Generated_Source\PSoC4/CapSense_Processing.c ****                 if (NULL != ptrFlashWdgt->ptr2DebounceArr)
 507:Generated_Source\PSoC4/CapSense_Processing.c ****                 {
 508:Generated_Source\PSoC4/CapSense_Processing.c ****                     /* Proximity widgets have 2 de-bounce counters per sensor.
 509:Generated_Source\PSoC4/CapSense_Processing.c ****                      * Therefore the number of sensors is multiplied by 2.
 510:Generated_Source\PSoC4/CapSense_Processing.c ****                      */
 511:Generated_Source\PSoC4/CapSense_Processing.c ****                    (void)memset(ptrFlashWdgt->ptr2DebounceArr,
 512:Generated_Source\PSoC4/CapSense_Processing.c ****                                 (int32)ptrRamWdgt->onDebounce,
 513:Generated_Source\PSoC4/CapSense_Processing.c ****                                 (size_t)ptrFlashWdgt->totalNumSns * 2u);
 514:Generated_Source\PSoC4/CapSense_Processing.c ****                 }
 515:Generated_Source\PSoC4/CapSense_Processing.c ****                 break;
 516:Generated_Source\PSoC4/CapSense_Processing.c ****         #endif /* #if (0u != CapSense_PROXIMITY_WIDGET_EN) */
 517:Generated_Source\PSoC4/CapSense_Processing.c **** 
 518:Generated_Source\PSoC4/CapSense_Processing.c ****         #if (0u != CapSense_ENCODERDIAL_WIDGET_EN)
 519:Generated_Source\PSoC4/CapSense_Processing.c ****             case CapSense_WD_ENCODERDIAL_E:
 520:Generated_Source\PSoC4/CapSense_Processing.c ****                 if (NULL != ptrFlashWdgt->ptr2DebounceArr)
 521:Generated_Source\PSoC4/CapSense_Processing.c ****                 {
 522:Generated_Source\PSoC4/CapSense_Processing.c ****                     /* Proximity widgets have 2 de-bounce counters per sensor.
 523:Generated_Source\PSoC4/CapSense_Processing.c ****                      * Therefore the number of sensors is multiplied by 2.
 524:Generated_Source\PSoC4/CapSense_Processing.c ****                      */
 525:Generated_Source\PSoC4/CapSense_Processing.c ****                    (void)memset(ptrFlashWdgt->ptr2DebounceArr,
 526:Generated_Source\PSoC4/CapSense_Processing.c ****                                 (int32)ptrRamWdgt->onDebounce,
 527:Generated_Source\PSoC4/CapSense_Processing.c ****                                 (size_t)ptrFlashWdgt->totalNumSns);
 528:Generated_Source\PSoC4/CapSense_Processing.c ****                 }
 529:Generated_Source\PSoC4/CapSense_Processing.c ****                 break;
ARM GAS  C:\Users\Erik\AppData\Local\Temp\ccRdsmWm.s 			page 12


 530:Generated_Source\PSoC4/CapSense_Processing.c ****         #endif /* (0u != CapSense_ENCODERDIAL_WIDGET_EN) */
 531:Generated_Source\PSoC4/CapSense_Processing.c ****             default:
 532:Generated_Source\PSoC4/CapSense_Processing.c ****                 break;
 533:Generated_Source\PSoC4/CapSense_Processing.c ****         }
 534:Generated_Source\PSoC4/CapSense_Processing.c **** 
 535:Generated_Source\PSoC4/CapSense_Processing.c ****         /* Move to next widget */
 536:Generated_Source\PSoC4/CapSense_Processing.c ****         ptrFlashWdgt++;
  96              		.loc 1 536 0
  97 0044 2034     		adds	r4, r4, #32
  98              	.LVL9:
 423:Generated_Source\PSoC4/CapSense_Processing.c ****     {
  99              		.loc 1 423 0
 100 0046 2B00     		movs	r3, r5
 101              	.LVL10:
 102              	.L4:
 423:Generated_Source\PSoC4/CapSense_Processing.c ****     {
 103              		.loc 1 423 0 is_stmt 0 discriminator 1
 104 0048 5D1E     		subs	r5, r3, #1
 105              	.LVL11:
 106 004a 002B     		cmp	r3, #0
 107 004c EAD1     		bne	.L7
 537:Generated_Source\PSoC4/CapSense_Processing.c ****     }
 538:Generated_Source\PSoC4/CapSense_Processing.c **** }
 108              		.loc 1 538 0 is_stmt 1
 109              		@ sp needed
 110              	.LVL12:
 111              	.LVL13:
 112 004e 70BD     		pop	{r4, r5, r6, pc}
 113              	.L9:
 114              		.align	2
 115              	.L8:
 116 0050 00000000 		.word	CapSense_dsRam
 117 0054 00000000 		.word	CapSense_dsFlash
 118              		.cfi_endproc
 119              	.LFE1:
 120              		.size	CapSense_DpInitialize, .-CapSense_DpInitialize
 121              		.section	.text.CapSense_DpUpdateThresholds,"ax",%progbits
 122              		.align	2
 123              		.global	CapSense_DpUpdateThresholds
 124              		.code	16
 125              		.thumb_func
 126              		.type	CapSense_DpUpdateThresholds, %function
 127              	CapSense_DpUpdateThresholds:
 128              	.LFB5:
 539:Generated_Source\PSoC4/CapSense_Processing.c **** 
 540:Generated_Source\PSoC4/CapSense_Processing.c **** #if (0u != CapSense_TOTAL_CSX_WIDGETS)
 541:Generated_Source\PSoC4/CapSense_Processing.c **** /*******************************************************************************
 542:Generated_Source\PSoC4/CapSense_Processing.c **** * Function Name: CapSense_DpProcessCsxWidgetRawCounts
 543:Generated_Source\PSoC4/CapSense_Processing.c **** ****************************************************************************//**
 544:Generated_Source\PSoC4/CapSense_Processing.c **** *
 545:Generated_Source\PSoC4/CapSense_Processing.c **** * \brief
 546:Generated_Source\PSoC4/CapSense_Processing.c **** *  Performs default processing of the CSX raw counts.
 547:Generated_Source\PSoC4/CapSense_Processing.c **** *
 548:Generated_Source\PSoC4/CapSense_Processing.c **** * \details
 549:Generated_Source\PSoC4/CapSense_Processing.c **** *  Performs default processing of the CSX raw counts:
 550:Generated_Source\PSoC4/CapSense_Processing.c **** *   - Run Filters
 551:Generated_Source\PSoC4/CapSense_Processing.c **** *   - Update Baselines
ARM GAS  C:\Users\Erik\AppData\Local\Temp\ccRdsmWm.s 			page 13


 552:Generated_Source\PSoC4/CapSense_Processing.c **** *   - Update Differences
 553:Generated_Source\PSoC4/CapSense_Processing.c **** *   - Update Status.
 554:Generated_Source\PSoC4/CapSense_Processing.c **** *  The same process is applied to all the sensors of the specified widget.
 555:Generated_Source\PSoC4/CapSense_Processing.c **** *
 556:Generated_Source\PSoC4/CapSense_Processing.c **** * \param ptrFlashWdgt The pointer to the Flash widget structure.
 557:Generated_Source\PSoC4/CapSense_Processing.c **** *
 558:Generated_Source\PSoC4/CapSense_Processing.c **** * \return
 559:Generated_Source\PSoC4/CapSense_Processing.c **** *  Returns the status of the specified widget processing operation:
 560:Generated_Source\PSoC4/CapSense_Processing.c **** *  - CYRET_SUCCESS if operation was successfully completed;
 561:Generated_Source\PSoC4/CapSense_Processing.c **** *  - CapSense_PROCESS_BASELINE_FAILED if baseline processing of any
 562:Generated_Source\PSoC4/CapSense_Processing.c **** *    sensor of the specified widget failed. The result is concatenated with the index
 563:Generated_Source\PSoC4/CapSense_Processing.c **** *    of failed sensor.
 564:Generated_Source\PSoC4/CapSense_Processing.c **** *
 565:Generated_Source\PSoC4/CapSense_Processing.c **** *******************************************************************************/
 566:Generated_Source\PSoC4/CapSense_Processing.c **** uint32 CapSense_DpProcessCsxWidgetRawCounts(CapSense_FLASH_WD_STRUCT const *ptrFlashWdgt)
 567:Generated_Source\PSoC4/CapSense_Processing.c **** {
 568:Generated_Source\PSoC4/CapSense_Processing.c ****     uint32 result = CYRET_SUCCESS;
 569:Generated_Source\PSoC4/CapSense_Processing.c ****     uint32 widgetType;
 570:Generated_Source\PSoC4/CapSense_Processing.c ****     uint32 snsCount;
 571:Generated_Source\PSoC4/CapSense_Processing.c ****     CapSense_RAM_SNS_STRUCT *ptrSnsTmp;
 572:Generated_Source\PSoC4/CapSense_Processing.c ****     CapSense_RAM_WD_BASE_STRUCT *ptrRamWdgt;
 573:Generated_Source\PSoC4/CapSense_Processing.c **** 
 574:Generated_Source\PSoC4/CapSense_Processing.c ****     #if (CapSense_ENABLE == CapSense_RC_FILTER_EN)
 575:Generated_Source\PSoC4/CapSense_Processing.c ****         CapSense_PTR_FILTER_VARIANT fltrHistV;
 576:Generated_Source\PSoC4/CapSense_Processing.c **** 
 577:Generated_Source\PSoC4/CapSense_Processing.c ****         fltrHistV.ptr = ptrFlashWdgt->ptr2FltrHistory;
 578:Generated_Source\PSoC4/CapSense_Processing.c ****     #endif /* #if (CapSense_ENABLE == CapSense_RC_FILTER_EN) */
 579:Generated_Source\PSoC4/CapSense_Processing.c **** 
 580:Generated_Source\PSoC4/CapSense_Processing.c ****     ptrSnsTmp = ptrFlashWdgt->ptr2SnsRam;
 581:Generated_Source\PSoC4/CapSense_Processing.c ****     snsCount = ptrFlashWdgt->totalNumSns;
 582:Generated_Source\PSoC4/CapSense_Processing.c ****     ptrRamWdgt = (CapSense_RAM_WD_BASE_STRUCT *)ptrFlashWdgt->ptr2WdgtRam;
 583:Generated_Source\PSoC4/CapSense_Processing.c ****     widgetType = ptrFlashWdgt->wdgtType;
 584:Generated_Source\PSoC4/CapSense_Processing.c **** 
 585:Generated_Source\PSoC4/CapSense_Processing.c ****     /* Run deconvolution algorithm for the widgets with multiphase TX support */
 586:Generated_Source\PSoC4/CapSense_Processing.c ****     #if (0u != CapSense_CSX_MULTIPHASE_TX_EN)
 587:Generated_Source\PSoC4/CapSense_Processing.c ****         if (0u != (ptrFlashWdgt->staticConfig & CapSense_MULTIPHASE_TX_MASK))
 588:Generated_Source\PSoC4/CapSense_Processing.c ****         {
 589:Generated_Source\PSoC4/CapSense_Processing.c ****             CapSense_DpDeconvolution(ptrFlashWdgt);
 590:Generated_Source\PSoC4/CapSense_Processing.c ****         }
 591:Generated_Source\PSoC4/CapSense_Processing.c ****     #endif  /* #if (0u != CapSense_CSX_MULTIPHASE_TX_EN) */
 592:Generated_Source\PSoC4/CapSense_Processing.c **** 
 593:Generated_Source\PSoC4/CapSense_Processing.c ****     for (;snsCount-- > 0u;)
 594:Generated_Source\PSoC4/CapSense_Processing.c ****     {
 595:Generated_Source\PSoC4/CapSense_Processing.c ****         #if (CapSense_ENABLE == CapSense_RC_FILTER_EN)
 596:Generated_Source\PSoC4/CapSense_Processing.c ****             CapSense_FtRunEnabledFiltersInternal(fltrHistV, ptrSnsTmp, widgetType);
 597:Generated_Source\PSoC4/CapSense_Processing.c ****             #if (CapSense_ALP_FILTER_EN)
 598:Generated_Source\PSoC4/CapSense_Processing.c ****                 CapSense_ConfigRunALPInternal(fltrHistV, ptrRamWdgt, ptrSnsTmp, widgetType);
 599:Generated_Source\PSoC4/CapSense_Processing.c ****             #endif
 600:Generated_Source\PSoC4/CapSense_Processing.c ****         #endif /* #if (CapSense_ENABLE == CapSense_RC_FILTER_EN) */
 601:Generated_Source\PSoC4/CapSense_Processing.c **** 
 602:Generated_Source\PSoC4/CapSense_Processing.c ****         result = CapSense_FtUpdateBaseline(ptrRamWdgt, ptrSnsTmp, widgetType);
 603:Generated_Source\PSoC4/CapSense_Processing.c **** 
 604:Generated_Source\PSoC4/CapSense_Processing.c ****         #if (CapSense_ENABLE == CapSense_TST_BSLN_DUPLICATION_EN)
 605:Generated_Source\PSoC4/CapSense_Processing.c ****             if (CYRET_SUCCESS != result)
 606:Generated_Source\PSoC4/CapSense_Processing.c ****             {
 607:Generated_Source\PSoC4/CapSense_Processing.c ****                 result = snsCount | CapSense_PROCESS_BASELINE_FAILED;
 608:Generated_Source\PSoC4/CapSense_Processing.c ****             }
ARM GAS  C:\Users\Erik\AppData\Local\Temp\ccRdsmWm.s 			page 14


 609:Generated_Source\PSoC4/CapSense_Processing.c ****         #endif /* (CapSense_ENABLE == CapSense_TST_BSLN_DUPLICATION_EN) */
 610:Generated_Source\PSoC4/CapSense_Processing.c **** 
 611:Generated_Source\PSoC4/CapSense_Processing.c ****         CapSense_DpUpdateDifferences(ptrRamWdgt, ptrSnsTmp);
 612:Generated_Source\PSoC4/CapSense_Processing.c **** 
 613:Generated_Source\PSoC4/CapSense_Processing.c ****         /* Move pointers to the next sensor and filter history objects */
 614:Generated_Source\PSoC4/CapSense_Processing.c ****         ptrSnsTmp++;
 615:Generated_Source\PSoC4/CapSense_Processing.c **** 
 616:Generated_Source\PSoC4/CapSense_Processing.c ****         #if (CapSense_ENABLE == CapSense_RC_FILTER_EN)
 617:Generated_Source\PSoC4/CapSense_Processing.c ****             CapSense_INC_REG_FLTR_OBJ(fltrHistV);
 618:Generated_Source\PSoC4/CapSense_Processing.c ****         #endif /* #if (CapSense_ENABLE == CapSense_RC_FILTER_EN) */
 619:Generated_Source\PSoC4/CapSense_Processing.c ****     }
 620:Generated_Source\PSoC4/CapSense_Processing.c ****     return result;
 621:Generated_Source\PSoC4/CapSense_Processing.c **** }
 622:Generated_Source\PSoC4/CapSense_Processing.c **** 
 623:Generated_Source\PSoC4/CapSense_Processing.c **** /*******************************************************************************
 624:Generated_Source\PSoC4/CapSense_Processing.c **** * Function Name: CapSense_DpProcessCsxSensorRawCountsExt
 625:Generated_Source\PSoC4/CapSense_Processing.c **** ****************************************************************************//**
 626:Generated_Source\PSoC4/CapSense_Processing.c **** *
 627:Generated_Source\PSoC4/CapSense_Processing.c **** * \brief
 628:Generated_Source\PSoC4/CapSense_Processing.c **** *   Performs customized processing of the CSX sensor raw counts.
 629:Generated_Source\PSoC4/CapSense_Processing.c **** *
 630:Generated_Source\PSoC4/CapSense_Processing.c **** * \details
 631:Generated_Source\PSoC4/CapSense_Processing.c **** *   Performs customized processing of the CSX sensor raw counts.
 632:Generated_Source\PSoC4/CapSense_Processing.c **** *
 633:Generated_Source\PSoC4/CapSense_Processing.c **** *   If all bits are set at once the default processing order will take place.
 634:Generated_Source\PSoC4/CapSense_Processing.c **** *   For the custom order this API can be called multiple times and execute one task at a time.
 635:Generated_Source\PSoC4/CapSense_Processing.c **** *
 636:Generated_Source\PSoC4/CapSense_Processing.c **** * \param ptrFlashWdgt The pointer to the Flash Widget Object.
 637:Generated_Source\PSoC4/CapSense_Processing.c **** * \param curSnsPtr    The pointer to the specific RAM Sensor Object.
 638:Generated_Source\PSoC4/CapSense_Processing.c **** * \param fltrHistV    The pointer to the Filter History Object in RAM associated with specific sens
 639:Generated_Source\PSoC4/CapSense_Processing.c **** * \param mode         The bit-mask with the data processing tasks to be executed.
 640:Generated_Source\PSoC4/CapSense_Processing.c **** *   The mode parameters can take the following values:
 641:Generated_Source\PSoC4/CapSense_Processing.c **** *    - CapSense_PROCESS_FILTER     (0x01) Run Firmware Filter
 642:Generated_Source\PSoC4/CapSense_Processing.c **** *    - CapSense_PROCESS_BASELINE   (0x02) Update Baselines
 643:Generated_Source\PSoC4/CapSense_Processing.c **** *    - CapSense_PROCESS_DIFFCOUNTS (0x04) Update Difference Counts
 644:Generated_Source\PSoC4/CapSense_Processing.c **** *    - CapSense_PROCESS_ALL               Execute all tasks
 645:Generated_Source\PSoC4/CapSense_Processing.c **** *
 646:Generated_Source\PSoC4/CapSense_Processing.c **** * \return
 647:Generated_Source\PSoC4/CapSense_Processing.c **** *  Returns the status of the specified sensor processing operation:
 648:Generated_Source\PSoC4/CapSense_Processing.c **** *  - CYRET_SUCCESS if operation was successfully completed;
 649:Generated_Source\PSoC4/CapSense_Processing.c **** *  - CapSense_PROCESS_BASELINE_FAILED if baseline processing of any
 650:Generated_Source\PSoC4/CapSense_Processing.c **** *    sensor of the specified widget failed. The result is concatenated with the index
 651:Generated_Source\PSoC4/CapSense_Processing.c **** *    of failed sensor.
 652:Generated_Source\PSoC4/CapSense_Processing.c **** *
 653:Generated_Source\PSoC4/CapSense_Processing.c **** *******************************************************************************/
 654:Generated_Source\PSoC4/CapSense_Processing.c **** uint32 CapSense_DpProcessCsxSensorRawCountsExt(
 655:Generated_Source\PSoC4/CapSense_Processing.c ****                 CapSense_FLASH_WD_STRUCT const *ptrFlashWdgt,
 656:Generated_Source\PSoC4/CapSense_Processing.c ****                 CapSense_RAM_SNS_STRUCT *curSnsPtr,
 657:Generated_Source\PSoC4/CapSense_Processing.c ****                 CapSense_PTR_FILTER_VARIANT fltrHistV,
 658:Generated_Source\PSoC4/CapSense_Processing.c ****                 uint32 mode)
 659:Generated_Source\PSoC4/CapSense_Processing.c **** {
 660:Generated_Source\PSoC4/CapSense_Processing.c ****     uint32  result = CYRET_SUCCESS;
 661:Generated_Source\PSoC4/CapSense_Processing.c ****     uint32  widgetType;
 662:Generated_Source\PSoC4/CapSense_Processing.c ****     CapSense_RAM_WD_BASE_STRUCT *ptrRamWdgt;
 663:Generated_Source\PSoC4/CapSense_Processing.c **** 
 664:Generated_Source\PSoC4/CapSense_Processing.c ****     widgetType = ptrFlashWdgt->wdgtType;
 665:Generated_Source\PSoC4/CapSense_Processing.c ****     ptrRamWdgt = (CapSense_RAM_WD_BASE_STRUCT *)ptrFlashWdgt->ptr2WdgtRam;
ARM GAS  C:\Users\Erik\AppData\Local\Temp\ccRdsmWm.s 			page 15


 666:Generated_Source\PSoC4/CapSense_Processing.c **** 
 667:Generated_Source\PSoC4/CapSense_Processing.c ****     #if (CapSense_ENABLE == CapSense_RC_FILTER_EN)
 668:Generated_Source\PSoC4/CapSense_Processing.c ****         if (0u != (mode & CapSense_PROCESS_FILTER))
 669:Generated_Source\PSoC4/CapSense_Processing.c ****         {
 670:Generated_Source\PSoC4/CapSense_Processing.c ****             CapSense_FtRunEnabledFiltersInternal(fltrHistV, curSnsPtr, widgetType);
 671:Generated_Source\PSoC4/CapSense_Processing.c ****             #if (CapSense_ALP_FILTER_EN)
 672:Generated_Source\PSoC4/CapSense_Processing.c ****                 CapSense_ConfigRunALPInternal(fltrHistV, ptrRamWdgt, curSnsPtr, widgetType);
 673:Generated_Source\PSoC4/CapSense_Processing.c ****             #endif
 674:Generated_Source\PSoC4/CapSense_Processing.c ****         }
 675:Generated_Source\PSoC4/CapSense_Processing.c ****     #else
 676:Generated_Source\PSoC4/CapSense_Processing.c ****         (void)fltrHistV; /* This parameter is unused in such configurations */
 677:Generated_Source\PSoC4/CapSense_Processing.c ****     #endif /* #if (CapSense_ENABLE == CapSense_RC_FILTER_EN) */
 678:Generated_Source\PSoC4/CapSense_Processing.c **** 
 679:Generated_Source\PSoC4/CapSense_Processing.c ****     if (0u != (mode & CapSense_PROCESS_BASELINE))
 680:Generated_Source\PSoC4/CapSense_Processing.c ****     {
 681:Generated_Source\PSoC4/CapSense_Processing.c ****         result = CapSense_FtUpdateBaseline(ptrRamWdgt, curSnsPtr, widgetType);
 682:Generated_Source\PSoC4/CapSense_Processing.c ****     }
 683:Generated_Source\PSoC4/CapSense_Processing.c **** 
 684:Generated_Source\PSoC4/CapSense_Processing.c ****     if (0u != (mode & CapSense_PROCESS_DIFFCOUNTS))
 685:Generated_Source\PSoC4/CapSense_Processing.c ****     {
 686:Generated_Source\PSoC4/CapSense_Processing.c ****         CapSense_DpUpdateDifferences(ptrRamWdgt, curSnsPtr);
 687:Generated_Source\PSoC4/CapSense_Processing.c ****     }
 688:Generated_Source\PSoC4/CapSense_Processing.c ****     return result;
 689:Generated_Source\PSoC4/CapSense_Processing.c **** }
 690:Generated_Source\PSoC4/CapSense_Processing.c **** 
 691:Generated_Source\PSoC4/CapSense_Processing.c **** 
 692:Generated_Source\PSoC4/CapSense_Processing.c **** /*******************************************************************************
 693:Generated_Source\PSoC4/CapSense_Processing.c **** * Function Name: CapSense_DpProcessCsxWidgetStatus
 694:Generated_Source\PSoC4/CapSense_Processing.c **** ****************************************************************************//**
 695:Generated_Source\PSoC4/CapSense_Processing.c **** *
 696:Generated_Source\PSoC4/CapSense_Processing.c **** * \brief
 697:Generated_Source\PSoC4/CapSense_Processing.c **** *   Updates the status of the CSX widget in the Data Structure.
 698:Generated_Source\PSoC4/CapSense_Processing.c **** *
 699:Generated_Source\PSoC4/CapSense_Processing.c **** * \details
 700:Generated_Source\PSoC4/CapSense_Processing.c **** *  This API determines the type of widget and runs the appropriate function
 701:Generated_Source\PSoC4/CapSense_Processing.c **** *  that implements the status update algorithm for this type of widget.
 702:Generated_Source\PSoC4/CapSense_Processing.c **** *
 703:Generated_Source\PSoC4/CapSense_Processing.c **** *  When the widget-specific processing completes this API updates the snsStatus
 704:Generated_Source\PSoC4/CapSense_Processing.c **** *  and wdgtStatus registers in the data structure. The wdgtStatus register
 705:Generated_Source\PSoC4/CapSense_Processing.c **** *  is a bitmask were each bit corresponds to the specific widget identified by
 706:Generated_Source\PSoC4/CapSense_Processing.c **** *  the widget index. When the bit is set the widget is active (touched);
 707:Generated_Source\PSoC4/CapSense_Processing.c **** *
 708:Generated_Source\PSoC4/CapSense_Processing.c **** *  Depending on the type of widget the snsStatus register may contain either
 709:Generated_Source\PSoC4/CapSense_Processing.c **** *  status of each widget node (active/non-active) or in case of the CSX Touchpad
 710:Generated_Source\PSoC4/CapSense_Processing.c **** *  is contains the number of touches. In both cases 0 means that widget is not
 711:Generated_Source\PSoC4/CapSense_Processing.c **** *  active.
 712:Generated_Source\PSoC4/CapSense_Processing.c **** *
 713:Generated_Source\PSoC4/CapSense_Processing.c **** * \param widgetId     The widget ID number.
 714:Generated_Source\PSoC4/CapSense_Processing.c **** * \param ptrFlashWdgt The pointer to the Flash Widget Object.
 715:Generated_Source\PSoC4/CapSense_Processing.c **** *
 716:Generated_Source\PSoC4/CapSense_Processing.c **** *******************************************************************************/
 717:Generated_Source\PSoC4/CapSense_Processing.c **** void CapSense_DpProcessCsxWidgetStatus(uint32 widgetId, CapSense_FLASH_WD_STRUCT const *ptrFlashWdg
 718:Generated_Source\PSoC4/CapSense_Processing.c **** {
 719:Generated_Source\PSoC4/CapSense_Processing.c ****     uint32 sensorStatus;
 720:Generated_Source\PSoC4/CapSense_Processing.c ****     uint32 wdStatusIndex;
 721:Generated_Source\PSoC4/CapSense_Processing.c ****     uint32 wdStatusMask;
 722:Generated_Source\PSoC4/CapSense_Processing.c ****     CapSense_WD_TYPE_ENUM widgetType;
ARM GAS  C:\Users\Erik\AppData\Local\Temp\ccRdsmWm.s 			page 16


 723:Generated_Source\PSoC4/CapSense_Processing.c **** 
 724:Generated_Source\PSoC4/CapSense_Processing.c ****     widgetType = (CapSense_WD_TYPE_ENUM)ptrFlashWdgt->wdgtType;
 725:Generated_Source\PSoC4/CapSense_Processing.c ****     sensorStatus = CapSense_dsRam.snsStatus[widgetId];
 726:Generated_Source\PSoC4/CapSense_Processing.c **** 
 727:Generated_Source\PSoC4/CapSense_Processing.c ****     switch (widgetType)
 728:Generated_Source\PSoC4/CapSense_Processing.c ****     {
 729:Generated_Source\PSoC4/CapSense_Processing.c ****     #if (0u != CapSense_BUTTON_WIDGET_EN)
 730:Generated_Source\PSoC4/CapSense_Processing.c ****         case CapSense_WD_BUTTON_E:
 731:Generated_Source\PSoC4/CapSense_Processing.c ****             sensorStatus = CapSense_DpProcessButton(sensorStatus, ptrFlashWdgt);
 732:Generated_Source\PSoC4/CapSense_Processing.c ****             break;
 733:Generated_Source\PSoC4/CapSense_Processing.c ****     #endif /* #if (0u != CapSense_BUTTON_WIDGET_EN) */
 734:Generated_Source\PSoC4/CapSense_Processing.c **** 
 735:Generated_Source\PSoC4/CapSense_Processing.c ****     #if (0u != CapSense_CSX_MATRIX_WIDGET_EN)
 736:Generated_Source\PSoC4/CapSense_Processing.c ****         case CapSense_WD_MATRIX_BUTTON_E:
 737:Generated_Source\PSoC4/CapSense_Processing.c ****             sensorStatus = CapSense_DpProcessButton(sensorStatus, ptrFlashWdgt);
 738:Generated_Source\PSoC4/CapSense_Processing.c ****             break;
 739:Generated_Source\PSoC4/CapSense_Processing.c ****     #endif /* #if (0u != CapSense_CSX_MATRIX_WIDGET_EN) */
 740:Generated_Source\PSoC4/CapSense_Processing.c **** 
 741:Generated_Source\PSoC4/CapSense_Processing.c ****     #if (0u != CapSense_CSX_TOUCHPAD_WIDGET_EN)
 742:Generated_Source\PSoC4/CapSense_Processing.c ****         case CapSense_WD_TOUCHPAD_E:
 743:Generated_Source\PSoC4/CapSense_Processing.c ****             sensorStatus = CapSense_DpProcessCsxTouchpad(sensorStatus, ptrFlashWdgt);
 744:Generated_Source\PSoC4/CapSense_Processing.c ****             break;
 745:Generated_Source\PSoC4/CapSense_Processing.c ****     #endif /* #if (0u != CapSense_CSX_TOUCHPAD_WIDGET_EN) */
 746:Generated_Source\PSoC4/CapSense_Processing.c **** 
 747:Generated_Source\PSoC4/CapSense_Processing.c ****     default:
 748:Generated_Source\PSoC4/CapSense_Processing.c ****         CYASSERT(0u);
 749:Generated_Source\PSoC4/CapSense_Processing.c ****         break;
 750:Generated_Source\PSoC4/CapSense_Processing.c ****     }
 751:Generated_Source\PSoC4/CapSense_Processing.c **** 
 752:Generated_Source\PSoC4/CapSense_Processing.c ****     /* Update sensor status in the data structure */
 753:Generated_Source\PSoC4/CapSense_Processing.c ****     CapSense_dsRam.snsStatus[widgetId] = (CapSense_SNS_STS_TYPE)sensorStatus;
 754:Generated_Source\PSoC4/CapSense_Processing.c **** 
 755:Generated_Source\PSoC4/CapSense_Processing.c ****     /* The next two lines calculate index and bitmask of the widget status bit in the wdgtStatus ar
 756:Generated_Source\PSoC4/CapSense_Processing.c ****     wdStatusIndex = CapSense_GET_WDGT_STATUS_INDEX(widgetId);
 757:Generated_Source\PSoC4/CapSense_Processing.c ****     wdStatusMask = CapSense_GET_WDGT_STATUS_MASK(widgetId);
 758:Generated_Source\PSoC4/CapSense_Processing.c **** 
 759:Generated_Source\PSoC4/CapSense_Processing.c ****     /* Check if there are active sensors and update widget status accordingly */
 760:Generated_Source\PSoC4/CapSense_Processing.c ****     if (0u == sensorStatus)
 761:Generated_Source\PSoC4/CapSense_Processing.c ****     {
 762:Generated_Source\PSoC4/CapSense_Processing.c ****         CapSense_dsRam.wdgtStatus[wdStatusIndex] &= ~wdStatusMask;
 763:Generated_Source\PSoC4/CapSense_Processing.c ****     }
 764:Generated_Source\PSoC4/CapSense_Processing.c ****     else
 765:Generated_Source\PSoC4/CapSense_Processing.c ****     {
 766:Generated_Source\PSoC4/CapSense_Processing.c ****         CapSense_dsRam.wdgtStatus[wdStatusIndex] |= wdStatusMask;
 767:Generated_Source\PSoC4/CapSense_Processing.c ****     }
 768:Generated_Source\PSoC4/CapSense_Processing.c **** }
 769:Generated_Source\PSoC4/CapSense_Processing.c **** #endif /* #if CapSense_TOTAL_CSX_WIDGETS */
 770:Generated_Source\PSoC4/CapSense_Processing.c **** 
 771:Generated_Source\PSoC4/CapSense_Processing.c **** #if (0u != CapSense_TOTAL_ISX_WIDGETS)
 772:Generated_Source\PSoC4/CapSense_Processing.c **** /*******************************************************************************
 773:Generated_Source\PSoC4/CapSense_Processing.c **** * Function Name: CapSense_DpProcessIsxWidgetRawCounts
 774:Generated_Source\PSoC4/CapSense_Processing.c **** ****************************************************************************//**
 775:Generated_Source\PSoC4/CapSense_Processing.c **** *
 776:Generated_Source\PSoC4/CapSense_Processing.c **** * \brief
 777:Generated_Source\PSoC4/CapSense_Processing.c **** *  Performs default processing of the ISX raw counts.
 778:Generated_Source\PSoC4/CapSense_Processing.c **** *
 779:Generated_Source\PSoC4/CapSense_Processing.c **** * \details
ARM GAS  C:\Users\Erik\AppData\Local\Temp\ccRdsmWm.s 			page 17


 780:Generated_Source\PSoC4/CapSense_Processing.c **** *  Performs default processing of the ISX raw counts:
 781:Generated_Source\PSoC4/CapSense_Processing.c **** *   - Run Filters
 782:Generated_Source\PSoC4/CapSense_Processing.c **** *   - Update Baselines
 783:Generated_Source\PSoC4/CapSense_Processing.c **** *   - Update Differences
 784:Generated_Source\PSoC4/CapSense_Processing.c **** *   - Update Status.
 785:Generated_Source\PSoC4/CapSense_Processing.c **** *  The same process is applied to all the sensors of the specified widget.
 786:Generated_Source\PSoC4/CapSense_Processing.c **** *
 787:Generated_Source\PSoC4/CapSense_Processing.c **** * \param ptrFlashWdgt The pointer to the Flash widget structure.
 788:Generated_Source\PSoC4/CapSense_Processing.c **** *
 789:Generated_Source\PSoC4/CapSense_Processing.c **** * \return
 790:Generated_Source\PSoC4/CapSense_Processing.c **** *  Returns the status of the specified widget processing operation:
 791:Generated_Source\PSoC4/CapSense_Processing.c **** *  - CYRET_SUCCESS if operation was successfully completed;
 792:Generated_Source\PSoC4/CapSense_Processing.c **** *  - CapSense_PROCESS_BASELINE_FAILED if baseline processing of any
 793:Generated_Source\PSoC4/CapSense_Processing.c **** *    sensor of the specified widget failed. The result is concatenated with the index
 794:Generated_Source\PSoC4/CapSense_Processing.c **** *    of failed sensor.
 795:Generated_Source\PSoC4/CapSense_Processing.c **** *
 796:Generated_Source\PSoC4/CapSense_Processing.c **** *******************************************************************************/
 797:Generated_Source\PSoC4/CapSense_Processing.c **** uint32 CapSense_DpProcessIsxWidgetRawCounts(CapSense_FLASH_WD_STRUCT const *ptrFlashWdgt)
 798:Generated_Source\PSoC4/CapSense_Processing.c **** {
 799:Generated_Source\PSoC4/CapSense_Processing.c ****     uint32 result = CYRET_SUCCESS;
 800:Generated_Source\PSoC4/CapSense_Processing.c ****     uint32 widgetType;
 801:Generated_Source\PSoC4/CapSense_Processing.c ****     uint32 snsCount;
 802:Generated_Source\PSoC4/CapSense_Processing.c ****     CapSense_RAM_SNS_STRUCT *ptrSns;
 803:Generated_Source\PSoC4/CapSense_Processing.c ****     CapSense_RAM_WD_BASE_STRUCT *ptrRamWdgt;
 804:Generated_Source\PSoC4/CapSense_Processing.c **** 
 805:Generated_Source\PSoC4/CapSense_Processing.c ****     #if (CapSense_ENABLE == CapSense_RC_FILTER_EN)
 806:Generated_Source\PSoC4/CapSense_Processing.c ****         CapSense_PTR_FILTER_VARIANT fltrHistV;
 807:Generated_Source\PSoC4/CapSense_Processing.c **** 
 808:Generated_Source\PSoC4/CapSense_Processing.c ****         fltrHistV.ptr = ptrFlashWdgt->ptr2FltrHistory;
 809:Generated_Source\PSoC4/CapSense_Processing.c ****     #endif /* #if (CapSense_ENABLE == CapSense_RC_FILTER_EN) */
 810:Generated_Source\PSoC4/CapSense_Processing.c **** 
 811:Generated_Source\PSoC4/CapSense_Processing.c ****     ptrSns = ptrFlashWdgt->ptr2SnsRam;
 812:Generated_Source\PSoC4/CapSense_Processing.c ****     snsCount = ptrFlashWdgt->totalNumSns;
 813:Generated_Source\PSoC4/CapSense_Processing.c ****     ptrRamWdgt = ptrFlashWdgt->ptr2WdgtRam;
 814:Generated_Source\PSoC4/CapSense_Processing.c ****     widgetType = ptrFlashWdgt->wdgtType;
 815:Generated_Source\PSoC4/CapSense_Processing.c **** 
 816:Generated_Source\PSoC4/CapSense_Processing.c ****     #if (0u != CapSense_ISX_SKIP_OVSMPL_SPECIFIC_NODES)
 817:Generated_Source\PSoC4/CapSense_Processing.c ****         if (0u != ptrSns->resolution)
 818:Generated_Source\PSoC4/CapSense_Processing.c ****     #endif
 819:Generated_Source\PSoC4/CapSense_Processing.c ****     {
 820:Generated_Source\PSoC4/CapSense_Processing.c ****         for(;snsCount-- > 0u;)
 821:Generated_Source\PSoC4/CapSense_Processing.c ****         {
 822:Generated_Source\PSoC4/CapSense_Processing.c ****             #if (CapSense_ENABLE == CapSense_RC_FILTER_EN)
 823:Generated_Source\PSoC4/CapSense_Processing.c ****                 CapSense_FtRunEnabledFiltersInternal(fltrHistV, ptrSns, widgetType);
 824:Generated_Source\PSoC4/CapSense_Processing.c ****             #endif /* #if (CapSense_ENABLE == CapSense_RC_FILTER_EN) */
 825:Generated_Source\PSoC4/CapSense_Processing.c **** 
 826:Generated_Source\PSoC4/CapSense_Processing.c ****             result = CapSense_FtUpdateBaseline(ptrRamWdgt, ptrSns, widgetType);
 827:Generated_Source\PSoC4/CapSense_Processing.c **** 
 828:Generated_Source\PSoC4/CapSense_Processing.c ****             #if (CapSense_ENABLE == CapSense_TST_BSLN_DUPLICATION_EN)
 829:Generated_Source\PSoC4/CapSense_Processing.c ****                 if (CYRET_SUCCESS != result)
 830:Generated_Source\PSoC4/CapSense_Processing.c ****                 {
 831:Generated_Source\PSoC4/CapSense_Processing.c ****                     result = CapSense_PROCESS_BASELINE_FAILED;
 832:Generated_Source\PSoC4/CapSense_Processing.c ****                 }
 833:Generated_Source\PSoC4/CapSense_Processing.c ****             #endif /* (CapSense_ENABLE == CapSense_TST_BSLN_DUPLICATION_EN) */
 834:Generated_Source\PSoC4/CapSense_Processing.c **** 
 835:Generated_Source\PSoC4/CapSense_Processing.c ****             CapSense_DpUpdateDifferences(ptrRamWdgt, ptrSns);
 836:Generated_Source\PSoC4/CapSense_Processing.c ****             ptrSns++;
ARM GAS  C:\Users\Erik\AppData\Local\Temp\ccRdsmWm.s 			page 18


 837:Generated_Source\PSoC4/CapSense_Processing.c **** 
 838:Generated_Source\PSoC4/CapSense_Processing.c ****             #if (CapSense_ENABLE == CapSense_RC_FILTER_EN)
 839:Generated_Source\PSoC4/CapSense_Processing.c ****                 CapSense_INC_FLTR_OBJ_VARIANT(0u, fltrHistV);
 840:Generated_Source\PSoC4/CapSense_Processing.c ****             #endif /* #if (CapSense_ENABLE == CapSense_RC_FILTER_EN) */
 841:Generated_Source\PSoC4/CapSense_Processing.c ****         }
 842:Generated_Source\PSoC4/CapSense_Processing.c ****     }
 843:Generated_Source\PSoC4/CapSense_Processing.c **** 
 844:Generated_Source\PSoC4/CapSense_Processing.c ****     return result;
 845:Generated_Source\PSoC4/CapSense_Processing.c **** }
 846:Generated_Source\PSoC4/CapSense_Processing.c **** 
 847:Generated_Source\PSoC4/CapSense_Processing.c **** /*******************************************************************************
 848:Generated_Source\PSoC4/CapSense_Processing.c **** * Function Name: CapSense_DpProcessIsxSensorRawCountsExt
 849:Generated_Source\PSoC4/CapSense_Processing.c **** ****************************************************************************//**
 850:Generated_Source\PSoC4/CapSense_Processing.c **** *
 851:Generated_Source\PSoC4/CapSense_Processing.c **** * \brief
 852:Generated_Source\PSoC4/CapSense_Processing.c **** *   Performs customized processing of the ISX sensor raw counts.
 853:Generated_Source\PSoC4/CapSense_Processing.c **** *
 854:Generated_Source\PSoC4/CapSense_Processing.c **** * \details
 855:Generated_Source\PSoC4/CapSense_Processing.c **** *   Performs customized processing of the ISX sensor raw counts.
 856:Generated_Source\PSoC4/CapSense_Processing.c **** *
 857:Generated_Source\PSoC4/CapSense_Processing.c **** *   If all bits are set at once the default processing order will take place.
 858:Generated_Source\PSoC4/CapSense_Processing.c **** *   For the custom order this API can be called multiple times and execute one task at a time.
 859:Generated_Source\PSoC4/CapSense_Processing.c **** *
 860:Generated_Source\PSoC4/CapSense_Processing.c **** * \param ptrFlashWdgt The pointer to the Flash Widget Object.
 861:Generated_Source\PSoC4/CapSense_Processing.c **** * \param ptrSns       The pointer to the specific RAM Sensor Object.
 862:Generated_Source\PSoC4/CapSense_Processing.c **** * \param fltrHistV    The pointer to the Filter History Object in RAM associated with specific sens
 863:Generated_Source\PSoC4/CapSense_Processing.c **** * \param mode         The bit-mask with the data processing tasks to be executed.
 864:Generated_Source\PSoC4/CapSense_Processing.c **** *   The mode parameters can take the following values:
 865:Generated_Source\PSoC4/CapSense_Processing.c **** *    - CapSense_PROCESS_FILTER     (0x01) Run Firmware Filter
 866:Generated_Source\PSoC4/CapSense_Processing.c **** *    - CapSense_PROCESS_BASELINE   (0x02) Update Baselines
 867:Generated_Source\PSoC4/CapSense_Processing.c **** *    - CapSense_PROCESS_DIFFCOUNTS (0x04) Update Difference Counts
 868:Generated_Source\PSoC4/CapSense_Processing.c **** *    - CapSense_PROCESS_ALL               Execute all tasks
 869:Generated_Source\PSoC4/CapSense_Processing.c **** *
 870:Generated_Source\PSoC4/CapSense_Processing.c **** * \return
 871:Generated_Source\PSoC4/CapSense_Processing.c **** *  Returns the status of the specified sensor processing operation:
 872:Generated_Source\PSoC4/CapSense_Processing.c **** *  - CYRET_SUCCESS if operation was successfully completed;
 873:Generated_Source\PSoC4/CapSense_Processing.c **** *  - CapSense_PROCESS_BASELINE_FAILED if baseline processing of any
 874:Generated_Source\PSoC4/CapSense_Processing.c **** *    sensor of the specified widget failed. The result is concatenated with the index
 875:Generated_Source\PSoC4/CapSense_Processing.c **** *    of failed sensor.
 876:Generated_Source\PSoC4/CapSense_Processing.c **** *
 877:Generated_Source\PSoC4/CapSense_Processing.c **** *******************************************************************************/
 878:Generated_Source\PSoC4/CapSense_Processing.c **** uint32 CapSense_DpProcessIsxSensorRawCountsExt(
 879:Generated_Source\PSoC4/CapSense_Processing.c ****                 CapSense_FLASH_WD_STRUCT const *ptrFlashWdgt,
 880:Generated_Source\PSoC4/CapSense_Processing.c ****                 CapSense_RAM_SNS_STRUCT *ptrSns,
 881:Generated_Source\PSoC4/CapSense_Processing.c ****                 CapSense_PTR_FILTER_VARIANT fltrHistV,
 882:Generated_Source\PSoC4/CapSense_Processing.c ****                 uint32 mode)
 883:Generated_Source\PSoC4/CapSense_Processing.c **** {
 884:Generated_Source\PSoC4/CapSense_Processing.c ****     uint32  result = CYRET_SUCCESS;
 885:Generated_Source\PSoC4/CapSense_Processing.c ****     uint32  widgetType;
 886:Generated_Source\PSoC4/CapSense_Processing.c ****     CapSense_RAM_WD_BASE_STRUCT *ptrRamWdgt;
 887:Generated_Source\PSoC4/CapSense_Processing.c **** 
 888:Generated_Source\PSoC4/CapSense_Processing.c ****     widgetType = ptrFlashWdgt->wdgtType;
 889:Generated_Source\PSoC4/CapSense_Processing.c ****     ptrRamWdgt = ptrFlashWdgt->ptr2WdgtRam;
 890:Generated_Source\PSoC4/CapSense_Processing.c **** 
 891:Generated_Source\PSoC4/CapSense_Processing.c ****     #if (CapSense_ENABLE == CapSense_RC_FILTER_EN)
 892:Generated_Source\PSoC4/CapSense_Processing.c ****         if (0u != (mode & CapSense_PROCESS_FILTER))
 893:Generated_Source\PSoC4/CapSense_Processing.c ****         {
ARM GAS  C:\Users\Erik\AppData\Local\Temp\ccRdsmWm.s 			page 19


 894:Generated_Source\PSoC4/CapSense_Processing.c ****             CapSense_FtRunEnabledFiltersInternal(fltrHistV, ptrSns, widgetType);
 895:Generated_Source\PSoC4/CapSense_Processing.c ****         }
 896:Generated_Source\PSoC4/CapSense_Processing.c ****     #else
 897:Generated_Source\PSoC4/CapSense_Processing.c ****         (void)fltrHistV; /* This parameter is unused in such configurations */
 898:Generated_Source\PSoC4/CapSense_Processing.c ****     #endif /* #if (CapSense_ENABLE == CapSense_RC_FILTER_EN) */
 899:Generated_Source\PSoC4/CapSense_Processing.c **** 
 900:Generated_Source\PSoC4/CapSense_Processing.c ****     if (0u != (mode & CapSense_PROCESS_BASELINE))
 901:Generated_Source\PSoC4/CapSense_Processing.c ****     {
 902:Generated_Source\PSoC4/CapSense_Processing.c ****         result = CapSense_FtUpdateBaseline(ptrRamWdgt, ptrSns, widgetType);
 903:Generated_Source\PSoC4/CapSense_Processing.c ****     }
 904:Generated_Source\PSoC4/CapSense_Processing.c **** 
 905:Generated_Source\PSoC4/CapSense_Processing.c ****     if (0u != (mode & CapSense_PROCESS_DIFFCOUNTS))
 906:Generated_Source\PSoC4/CapSense_Processing.c ****     {
 907:Generated_Source\PSoC4/CapSense_Processing.c ****         CapSense_DpUpdateDifferences(ptrRamWdgt, ptrSns);
 908:Generated_Source\PSoC4/CapSense_Processing.c ****     }
 909:Generated_Source\PSoC4/CapSense_Processing.c ****     return result;
 910:Generated_Source\PSoC4/CapSense_Processing.c **** }
 911:Generated_Source\PSoC4/CapSense_Processing.c **** 
 912:Generated_Source\PSoC4/CapSense_Processing.c **** 
 913:Generated_Source\PSoC4/CapSense_Processing.c **** /*******************************************************************************
 914:Generated_Source\PSoC4/CapSense_Processing.c **** * Function Name: CapSense_DpProcessIsxWidgetStatus
 915:Generated_Source\PSoC4/CapSense_Processing.c **** ****************************************************************************//**
 916:Generated_Source\PSoC4/CapSense_Processing.c **** *
 917:Generated_Source\PSoC4/CapSense_Processing.c **** * \brief
 918:Generated_Source\PSoC4/CapSense_Processing.c **** *   Updates the status of the ISX widget in the Data Structure.
 919:Generated_Source\PSoC4/CapSense_Processing.c **** *
 920:Generated_Source\PSoC4/CapSense_Processing.c **** * \details
 921:Generated_Source\PSoC4/CapSense_Processing.c **** *  This API determines the type of widget and runs the appropriate function
 922:Generated_Source\PSoC4/CapSense_Processing.c **** *  that implements the status update algorithm for this type of widget.
 923:Generated_Source\PSoC4/CapSense_Processing.c **** *
 924:Generated_Source\PSoC4/CapSense_Processing.c **** *  When the widget-specific processing completes this API updates the snsStatus
 925:Generated_Source\PSoC4/CapSense_Processing.c **** *  and wdgtStatus registers in the data structure. The wdgtStatus register
 926:Generated_Source\PSoC4/CapSense_Processing.c **** *  is a bitmask were each bit corresponds to the specific widget identified by
 927:Generated_Source\PSoC4/CapSense_Processing.c **** *  the widget index. When the bit is set the widget is active (touched);
 928:Generated_Source\PSoC4/CapSense_Processing.c **** *
 929:Generated_Source\PSoC4/CapSense_Processing.c **** *  Depending on the type of widget the snsStatus register may contain either
 930:Generated_Source\PSoC4/CapSense_Processing.c **** *  status of each widget node (active/non-active) or in case of the ISX Touchpad
 931:Generated_Source\PSoC4/CapSense_Processing.c **** *  is contains the number of touches. In both cases 0 means that widget is not
 932:Generated_Source\PSoC4/CapSense_Processing.c **** *  active.
 933:Generated_Source\PSoC4/CapSense_Processing.c **** *
 934:Generated_Source\PSoC4/CapSense_Processing.c **** * \param wdgtId       The widget index number.
 935:Generated_Source\PSoC4/CapSense_Processing.c **** * \param ptrFlashWdgt The pointer to the Flash Widget Object.
 936:Generated_Source\PSoC4/CapSense_Processing.c **** *
 937:Generated_Source\PSoC4/CapSense_Processing.c **** *******************************************************************************/
 938:Generated_Source\PSoC4/CapSense_Processing.c **** void CapSense_DpProcessIsxWidgetStatus(uint32 wdgtId, CapSense_FLASH_WD_STRUCT const *ptrFlashWdgt)
 939:Generated_Source\PSoC4/CapSense_Processing.c **** {
 940:Generated_Source\PSoC4/CapSense_Processing.c ****     uint32 sensorStatus;
 941:Generated_Source\PSoC4/CapSense_Processing.c ****     uint32 wdStatusIndex;
 942:Generated_Source\PSoC4/CapSense_Processing.c ****     uint32 wdStatusMask;
 943:Generated_Source\PSoC4/CapSense_Processing.c ****     CapSense_WD_TYPE_ENUM widgetType;
 944:Generated_Source\PSoC4/CapSense_Processing.c **** 
 945:Generated_Source\PSoC4/CapSense_Processing.c ****     widgetType = (CapSense_WD_TYPE_ENUM)ptrFlashWdgt->wdgtType;
 946:Generated_Source\PSoC4/CapSense_Processing.c ****     sensorStatus = CapSense_dsRam.snsStatus[wdgtId];
 947:Generated_Source\PSoC4/CapSense_Processing.c **** 
 948:Generated_Source\PSoC4/CapSense_Processing.c ****     switch (widgetType)
 949:Generated_Source\PSoC4/CapSense_Processing.c ****     {
 950:Generated_Source\PSoC4/CapSense_Processing.c ****     #if (0u != CapSense_PROXIMITY_WIDGET_EN)
ARM GAS  C:\Users\Erik\AppData\Local\Temp\ccRdsmWm.s 			page 20


 951:Generated_Source\PSoC4/CapSense_Processing.c ****         case CapSense_WD_PROXIMITY_E:
 952:Generated_Source\PSoC4/CapSense_Processing.c ****             sensorStatus = CapSense_DpProcessProximity(sensorStatus, ptrFlashWdgt);
 953:Generated_Source\PSoC4/CapSense_Processing.c ****             break;
 954:Generated_Source\PSoC4/CapSense_Processing.c ****     #endif /* #if (0u != CapSense_Proximity_WIDGET_EN) */
 955:Generated_Source\PSoC4/CapSense_Processing.c ****     #if (0u != CapSense_ENCODERDIAL_WIDGET_EN)
 956:Generated_Source\PSoC4/CapSense_Processing.c ****         case CapSense_WD_ENCODERDIAL_E:
 957:Generated_Source\PSoC4/CapSense_Processing.c ****             sensorStatus = CapSense_DpProcessEncoderDial(sensorStatus, ptrFlashWdgt);
 958:Generated_Source\PSoC4/CapSense_Processing.c ****             break;
 959:Generated_Source\PSoC4/CapSense_Processing.c ****     #endif /* #if (0u != CapSense_Proximity_WIDGET_EN) */
 960:Generated_Source\PSoC4/CapSense_Processing.c ****     #if (0u != CapSense_BUTTON_WIDGET_EN)
 961:Generated_Source\PSoC4/CapSense_Processing.c ****         case CapSense_WD_BUTTON_E:
 962:Generated_Source\PSoC4/CapSense_Processing.c ****             sensorStatus = CapSense_DpProcessButton(sensorStatus, ptrFlashWdgt);
 963:Generated_Source\PSoC4/CapSense_Processing.c ****             break;
 964:Generated_Source\PSoC4/CapSense_Processing.c ****     #endif /* #if (0u != CapSense_Proximity_WIDGET_EN) */
 965:Generated_Source\PSoC4/CapSense_Processing.c **** 
 966:Generated_Source\PSoC4/CapSense_Processing.c ****     default:
 967:Generated_Source\PSoC4/CapSense_Processing.c ****         CYASSERT(0u);
 968:Generated_Source\PSoC4/CapSense_Processing.c ****         break;
 969:Generated_Source\PSoC4/CapSense_Processing.c ****     }
 970:Generated_Source\PSoC4/CapSense_Processing.c **** 
 971:Generated_Source\PSoC4/CapSense_Processing.c ****     /* Update sensor status in the data structure */
 972:Generated_Source\PSoC4/CapSense_Processing.c ****     CapSense_dsRam.snsStatus[wdgtId] = (CapSense_SNS_STS_TYPE)sensorStatus;
 973:Generated_Source\PSoC4/CapSense_Processing.c **** 
 974:Generated_Source\PSoC4/CapSense_Processing.c ****     /* The next two lines calculate index and bitmask of the widget status bit in the wdgtStatus ar
 975:Generated_Source\PSoC4/CapSense_Processing.c ****     wdStatusIndex = CapSense_GET_WDGT_STATUS_INDEX(wdgtId);
 976:Generated_Source\PSoC4/CapSense_Processing.c ****     wdStatusMask = CapSense_GET_WDGT_STATUS_MASK(wdgtId);
 977:Generated_Source\PSoC4/CapSense_Processing.c **** 
 978:Generated_Source\PSoC4/CapSense_Processing.c ****     /* Check if there are active sensors and update widget status accordingly */
 979:Generated_Source\PSoC4/CapSense_Processing.c ****     if (0u == sensorStatus)
 980:Generated_Source\PSoC4/CapSense_Processing.c ****     {
 981:Generated_Source\PSoC4/CapSense_Processing.c ****         CapSense_dsRam.wdgtStatus[wdStatusIndex] &= ~wdStatusMask;
 982:Generated_Source\PSoC4/CapSense_Processing.c ****     }
 983:Generated_Source\PSoC4/CapSense_Processing.c ****     else
 984:Generated_Source\PSoC4/CapSense_Processing.c ****     {
 985:Generated_Source\PSoC4/CapSense_Processing.c ****         CapSense_dsRam.wdgtStatus[wdStatusIndex] |= wdStatusMask;
 986:Generated_Source\PSoC4/CapSense_Processing.c ****     }
 987:Generated_Source\PSoC4/CapSense_Processing.c **** }
 988:Generated_Source\PSoC4/CapSense_Processing.c **** #endif /* #if CapSense_TOTAL_ISX_WIDGETS */
 989:Generated_Source\PSoC4/CapSense_Processing.c **** 
 990:Generated_Source\PSoC4/CapSense_Processing.c **** #if (0u != CapSense_TOTAL_CSD_WIDGETS)
 991:Generated_Source\PSoC4/CapSense_Processing.c **** /*******************************************************************************
 992:Generated_Source\PSoC4/CapSense_Processing.c **** * Function Name: CapSense_DpProcessCsdWidgetRawCounts
 993:Generated_Source\PSoC4/CapSense_Processing.c **** ****************************************************************************//**
 994:Generated_Source\PSoC4/CapSense_Processing.c **** *
 995:Generated_Source\PSoC4/CapSense_Processing.c **** * \brief
 996:Generated_Source\PSoC4/CapSense_Processing.c **** *   Performs default processing for the CSD widget raw counts.
 997:Generated_Source\PSoC4/CapSense_Processing.c **** *
 998:Generated_Source\PSoC4/CapSense_Processing.c **** * \details
 999:Generated_Source\PSoC4/CapSense_Processing.c **** *   Performs default processing for the CSD widget raw counts:
1000:Generated_Source\PSoC4/CapSense_Processing.c **** *    - Run Filters
1001:Generated_Source\PSoC4/CapSense_Processing.c **** *    - Update Thresholds (FW Auto-tuning)
1002:Generated_Source\PSoC4/CapSense_Processing.c **** *    - Update Baselines
1003:Generated_Source\PSoC4/CapSense_Processing.c **** *    - Update Differences.
1004:Generated_Source\PSoC4/CapSense_Processing.c **** *   The process is applied to all widget's sensors.
1005:Generated_Source\PSoC4/CapSense_Processing.c **** *
1006:Generated_Source\PSoC4/CapSense_Processing.c **** * \param ptrFlashWdgt The pointer to the Flash Widget Object.
1007:Generated_Source\PSoC4/CapSense_Processing.c **** *
ARM GAS  C:\Users\Erik\AppData\Local\Temp\ccRdsmWm.s 			page 21


1008:Generated_Source\PSoC4/CapSense_Processing.c **** * \return
1009:Generated_Source\PSoC4/CapSense_Processing.c **** *  Returns the status of the specified widget processing operation:
1010:Generated_Source\PSoC4/CapSense_Processing.c **** *  - CYRET_SUCCESS if operation was successfully completed;
1011:Generated_Source\PSoC4/CapSense_Processing.c **** *  - CapSense_PROCESS_BASELINE_FAILED if baseline processing of any
1012:Generated_Source\PSoC4/CapSense_Processing.c **** *    sensor of the specified widget failed. The result is concatenated with the index
1013:Generated_Source\PSoC4/CapSense_Processing.c **** *    of failed sensor.
1014:Generated_Source\PSoC4/CapSense_Processing.c **** *
1015:Generated_Source\PSoC4/CapSense_Processing.c **** *******************************************************************************/
1016:Generated_Source\PSoC4/CapSense_Processing.c **** uint32 CapSense_DpProcessCsdWidgetRawCounts(CapSense_FLASH_WD_STRUCT const *ptrFlashWdgt)
1017:Generated_Source\PSoC4/CapSense_Processing.c **** {
1018:Generated_Source\PSoC4/CapSense_Processing.c ****     uint32  result = CYRET_SUCCESS;
1019:Generated_Source\PSoC4/CapSense_Processing.c **** 
1020:Generated_Source\PSoC4/CapSense_Processing.c ****     #if (CapSense_ENABLE == CapSense_TST_BSLN_DUPLICATION_EN)
1021:Generated_Source\PSoC4/CapSense_Processing.c ****         uint32 bslnTstResult = CYRET_SUCCESS;
1022:Generated_Source\PSoC4/CapSense_Processing.c ****     #endif /* (CapSense_ENABLE == CapSense_TST_BSLN_DUPLICATION_EN) */
1023:Generated_Source\PSoC4/CapSense_Processing.c **** 
1024:Generated_Source\PSoC4/CapSense_Processing.c ****     uint32  widgetType;
1025:Generated_Source\PSoC4/CapSense_Processing.c ****     uint32  snsId;
1026:Generated_Source\PSoC4/CapSense_Processing.c ****     CapSense_RAM_SNS_STRUCT *ptrSnsTmp;
1027:Generated_Source\PSoC4/CapSense_Processing.c ****     CapSense_RAM_WD_BASE_STRUCT *ptrRamWdgt;
1028:Generated_Source\PSoC4/CapSense_Processing.c **** 
1029:Generated_Source\PSoC4/CapSense_Processing.c ****     #if (0u != (CapSense_CSD_AUTOTUNE & CapSense_CSD_SS_TH_EN))
1030:Generated_Source\PSoC4/CapSense_Processing.c ****         /* The noise envelope data is available only when Full CSD Auto-Tuning is enabled */
1031:Generated_Source\PSoC4/CapSense_Processing.c ****         SMARTSENSE_CSD_NOISE_ENVELOPE_STRUCT *ptrNoiseEnvelope;
1032:Generated_Source\PSoC4/CapSense_Processing.c ****         #if (CapSense_ENABLE == CapSense_PROXIMITY_WIDGET_EN)
1033:Generated_Source\PSoC4/CapSense_Processing.c ****             uint32  proximityThreshold;
1034:Generated_Source\PSoC4/CapSense_Processing.c ****         #endif /* (0 != CapSense_PROXIMITY_WIDGET_EN) */
1035:Generated_Source\PSoC4/CapSense_Processing.c ****     #endif /* #if (0u != (CapSense_CSD_AUTOTUNE & CapSense_CSD_SS_TH_EN)) */
1036:Generated_Source\PSoC4/CapSense_Processing.c **** 
1037:Generated_Source\PSoC4/CapSense_Processing.c ****     #if (CapSense_ENABLE == CapSense_RC_FILTER_EN)
1038:Generated_Source\PSoC4/CapSense_Processing.c ****         CapSense_PTR_FILTER_VARIANT fltrHistV;
1039:Generated_Source\PSoC4/CapSense_Processing.c **** 
1040:Generated_Source\PSoC4/CapSense_Processing.c ****         /* Determine if widget type is proximity */
1041:Generated_Source\PSoC4/CapSense_Processing.c ****         uint32 isProxWdgt = (CapSense_GET_WIDGET_TYPE(ptrFlashWdgt) == CapSense_WD_PROXIMITY_E) ? 1
1042:Generated_Source\PSoC4/CapSense_Processing.c **** 
1043:Generated_Source\PSoC4/CapSense_Processing.c ****         /* Get pointer to the filter history object */
1044:Generated_Source\PSoC4/CapSense_Processing.c ****         fltrHistV.ptr = ptrFlashWdgt->ptr2FltrHistory;
1045:Generated_Source\PSoC4/CapSense_Processing.c ****     #endif /* #if (CapSense_ENABLE == CapSense_RC_FILTER_EN) */
1046:Generated_Source\PSoC4/CapSense_Processing.c **** 
1047:Generated_Source\PSoC4/CapSense_Processing.c ****     ptrSnsTmp = ptrFlashWdgt->ptr2SnsRam;
1048:Generated_Source\PSoC4/CapSense_Processing.c ****     ptrRamWdgt = (CapSense_RAM_WD_BASE_STRUCT *)ptrFlashWdgt->ptr2WdgtRam;
1049:Generated_Source\PSoC4/CapSense_Processing.c ****     widgetType = ptrFlashWdgt->wdgtType;
1050:Generated_Source\PSoC4/CapSense_Processing.c **** 
1051:Generated_Source\PSoC4/CapSense_Processing.c ****     #if (0u != (CapSense_CSD_AUTOTUNE & CapSense_CSD_SS_TH_EN))
1052:Generated_Source\PSoC4/CapSense_Processing.c ****         ptrNoiseEnvelope = ptrFlashWdgt->ptr2NoiseEnvlp;
1053:Generated_Source\PSoC4/CapSense_Processing.c ****     #endif /* #if (0u != (CapSense_CSD_AUTOTUNE & CapSense_CSD_SS_TH_EN)) */
1054:Generated_Source\PSoC4/CapSense_Processing.c **** 
1055:Generated_Source\PSoC4/CapSense_Processing.c ****     /* Iterate through all widget's sensors */
1056:Generated_Source\PSoC4/CapSense_Processing.c ****     for(snsId = 0u; snsId < ptrFlashWdgt->totalNumSns; snsId++)
1057:Generated_Source\PSoC4/CapSense_Processing.c ****     {
1058:Generated_Source\PSoC4/CapSense_Processing.c ****         /* Run all enabled filter on specified widget's sensor */
1059:Generated_Source\PSoC4/CapSense_Processing.c ****         #if (CapSense_ENABLE == CapSense_RC_FILTER_EN)
1060:Generated_Source\PSoC4/CapSense_Processing.c ****             CapSense_FtRunEnabledFiltersInternal(fltrHistV, ptrSnsTmp, widgetType);
1061:Generated_Source\PSoC4/CapSense_Processing.c ****             #if (CapSense_ALP_FILTER_EN)
1062:Generated_Source\PSoC4/CapSense_Processing.c ****                 CapSense_ConfigRunALPInternal(fltrHistV, ptrRamWdgt, ptrSnsTmp, widgetType);
1063:Generated_Source\PSoC4/CapSense_Processing.c ****             #endif
1064:Generated_Source\PSoC4/CapSense_Processing.c ****         #endif /* #if (CapSense_ENABLE == CapSense_RC_FILTER_EN) */
ARM GAS  C:\Users\Erik\AppData\Local\Temp\ccRdsmWm.s 			page 22


1065:Generated_Source\PSoC4/CapSense_Processing.c **** 
1066:Generated_Source\PSoC4/CapSense_Processing.c ****         /* Run auto-tuning activities */
1067:Generated_Source\PSoC4/CapSense_Processing.c ****         #if (0u != (CapSense_CSD_AUTOTUNE & CapSense_CSD_SS_TH_EN))
1068:Generated_Source\PSoC4/CapSense_Processing.c ****             SmartSense_RunNoiseEnvelope(ptrSnsTmp->raw[0u], ptrRamWdgt->sigPFC, ptrNoiseEnvelope);
1069:Generated_Source\PSoC4/CapSense_Processing.c ****             CapSense_DpUpdateThresholds(ptrRamWdgt, ptrNoiseEnvelope, snsId);
1070:Generated_Source\PSoC4/CapSense_Processing.c **** 
1071:Generated_Source\PSoC4/CapSense_Processing.c ****             /* Calculate Proximity Touch Threshold in SmartSense mode based on Finger Threshold and
1072:Generated_Source\PSoC4/CapSense_Processing.c ****             #if (CapSense_ENABLE == CapSense_PROXIMITY_WIDGET_EN)
1073:Generated_Source\PSoC4/CapSense_Processing.c ****                 if (CapSense_WD_PROXIMITY_E == CapSense_GET_WIDGET_TYPE(ptrFlashWdgt))
1074:Generated_Source\PSoC4/CapSense_Processing.c ****                 {
1075:Generated_Source\PSoC4/CapSense_Processing.c ****                     proximityThreshold = ((uint32)ptrRamWdgt->fingerTh * CapSense_PROX_TOUCH_COEFF)
1076:Generated_Source\PSoC4/CapSense_Processing.c ****                     if ((((1Lu) << CapSense_THRESHOLD_SIZE) - 1u) < proximityThreshold)
1077:Generated_Source\PSoC4/CapSense_Processing.c ****                     {
1078:Generated_Source\PSoC4/CapSense_Processing.c ****                         proximityThreshold = ((1Lu) << CapSense_THRESHOLD_SIZE) - 1u;
1079:Generated_Source\PSoC4/CapSense_Processing.c ****                     }
1080:Generated_Source\PSoC4/CapSense_Processing.c ****                     ((CapSense_RAM_WD_PROXIMITY_STRUCT *)ptrFlashWdgt->ptr2WdgtRam)->proxTouchTh =
1081:Generated_Source\PSoC4/CapSense_Processing.c ****                         (CapSense_THRESHOLD_TYPE)proximityThreshold;
1082:Generated_Source\PSoC4/CapSense_Processing.c ****                 }
1083:Generated_Source\PSoC4/CapSense_Processing.c ****             #endif /* (0 != CapSense_PROXIMITY_WIDGET_EN) */
1084:Generated_Source\PSoC4/CapSense_Processing.c **** 
1085:Generated_Source\PSoC4/CapSense_Processing.c ****             /* Move to next noise-envelope object */
1086:Generated_Source\PSoC4/CapSense_Processing.c ****             ptrNoiseEnvelope++;
1087:Generated_Source\PSoC4/CapSense_Processing.c ****         #endif /* (0u != (CapSense_CSD_AUTOTUNE & CapSense_CSD_SS_TH_EN)) */
1088:Generated_Source\PSoC4/CapSense_Processing.c **** 
1089:Generated_Source\PSoC4/CapSense_Processing.c ****         #if (CapSense_ENABLE == CapSense_TST_BSLN_DUPLICATION_EN)
1090:Generated_Source\PSoC4/CapSense_Processing.c ****             bslnTstResult = CapSense_FtUpdateBaseline(ptrRamWdgt, ptrSnsTmp, widgetType);
1091:Generated_Source\PSoC4/CapSense_Processing.c ****             if ((CYRET_SUCCESS != bslnTstResult) && (CYRET_SUCCESS == result))
1092:Generated_Source\PSoC4/CapSense_Processing.c ****             {
1093:Generated_Source\PSoC4/CapSense_Processing.c ****                 result = snsId | CapSense_PROCESS_BASELINE_FAILED;
1094:Generated_Source\PSoC4/CapSense_Processing.c ****             }
1095:Generated_Source\PSoC4/CapSense_Processing.c ****         #else /* (CapSense_ENABLE == CapSense_TST_BSLN_DUPLICATION_EN) */
1096:Generated_Source\PSoC4/CapSense_Processing.c ****             result = CapSense_FtUpdateBaseline(ptrRamWdgt, ptrSnsTmp, widgetType);
1097:Generated_Source\PSoC4/CapSense_Processing.c ****         #endif /* (CapSense_ENABLE == CapSense_TST_BSLN_DUPLICATION_EN) */
1098:Generated_Source\PSoC4/CapSense_Processing.c **** 
1099:Generated_Source\PSoC4/CapSense_Processing.c ****         CapSense_DpUpdateDifferences(ptrRamWdgt, ptrSnsTmp);
1100:Generated_Source\PSoC4/CapSense_Processing.c **** 
1101:Generated_Source\PSoC4/CapSense_Processing.c ****         /* Move to next sensor object */
1102:Generated_Source\PSoC4/CapSense_Processing.c ****         ptrSnsTmp++;
1103:Generated_Source\PSoC4/CapSense_Processing.c **** 
1104:Generated_Source\PSoC4/CapSense_Processing.c ****         #if (CapSense_ENABLE == CapSense_RC_FILTER_EN)
1105:Generated_Source\PSoC4/CapSense_Processing.c ****             /* Move to the next filter history object */
1106:Generated_Source\PSoC4/CapSense_Processing.c ****             CapSense_INC_FLTR_OBJ_VARIANT(isProxWdgt, fltrHistV);
1107:Generated_Source\PSoC4/CapSense_Processing.c ****         #endif /* #if (CapSense_ENABLE == CapSense_RC_FILTER_EN) */
1108:Generated_Source\PSoC4/CapSense_Processing.c ****     }
1109:Generated_Source\PSoC4/CapSense_Processing.c ****     return result;
1110:Generated_Source\PSoC4/CapSense_Processing.c **** }
1111:Generated_Source\PSoC4/CapSense_Processing.c **** 
1112:Generated_Source\PSoC4/CapSense_Processing.c **** 
1113:Generated_Source\PSoC4/CapSense_Processing.c **** /*******************************************************************************
1114:Generated_Source\PSoC4/CapSense_Processing.c **** * Function Name: CapSense_DpProcessCsdSensorRawCountsExt
1115:Generated_Source\PSoC4/CapSense_Processing.c **** ****************************************************************************//**
1116:Generated_Source\PSoC4/CapSense_Processing.c **** *
1117:Generated_Source\PSoC4/CapSense_Processing.c **** * \brief
1118:Generated_Source\PSoC4/CapSense_Processing.c **** *   Performs customized processing of the CSD sensor raw counts.
1119:Generated_Source\PSoC4/CapSense_Processing.c **** *
1120:Generated_Source\PSoC4/CapSense_Processing.c **** * \details
1121:Generated_Source\PSoC4/CapSense_Processing.c **** *   Performs customized processing of the CSD sensor raw counts.
ARM GAS  C:\Users\Erik\AppData\Local\Temp\ccRdsmWm.s 			page 23


1122:Generated_Source\PSoC4/CapSense_Processing.c **** *
1123:Generated_Source\PSoC4/CapSense_Processing.c **** *   Note that this API updates data associated only with the sensor. It cannot be used to update
1124:Generated_Source\PSoC4/CapSense_Processing.c **** *   widget status.
1125:Generated_Source\PSoC4/CapSense_Processing.c **** *
1126:Generated_Source\PSoC4/CapSense_Processing.c **** * \param ptrFlashWdgt The pointer to the Flash widget structure.
1127:Generated_Source\PSoC4/CapSense_Processing.c **** * \param curSnsPtr    The pointer to the sensor object in RAM.
1128:Generated_Source\PSoC4/CapSense_Processing.c **** * \param fltrHistV    The pointer to the Filter History Object in RAM.
1129:Generated_Source\PSoC4/CapSense_Processing.c **** * \param mode         The bit-mask with the data processing tasks to be executed.
1130:Generated_Source\PSoC4/CapSense_Processing.c **** *   The mode parameters can take the following values:
1131:Generated_Source\PSoC4/CapSense_Processing.c **** *    - CapSense_PROCESS_FILTER     (0x01) Run Firmware Filter
1132:Generated_Source\PSoC4/CapSense_Processing.c **** *    - CapSense_PROCESS_BASELINE   (0x02) Update Baselines
1133:Generated_Source\PSoC4/CapSense_Processing.c **** *    - CapSense_PROCESS_DIFFCOUNTS (0x04) Update Difference Counts
1134:Generated_Source\PSoC4/CapSense_Processing.c **** *    - CapSense_PROCESS_CALC_NOISE (0x08) Calculate Noise (only if FW Tuning is enabled)
1135:Generated_Source\PSoC4/CapSense_Processing.c **** *    - CapSense_PROCESS_THRESHOLDS (0x10) Update Thresholds (only if FW Tuning is enabled)
1136:Generated_Source\PSoC4/CapSense_Processing.c **** *    - CapSense_PROCESS_ALL               Execute all tasks
1137:Generated_Source\PSoC4/CapSense_Processing.c **** *
1138:Generated_Source\PSoC4/CapSense_Processing.c **** * \return
1139:Generated_Source\PSoC4/CapSense_Processing.c **** *  Returns the status of the specified sensor processing operation:
1140:Generated_Source\PSoC4/CapSense_Processing.c **** *  - CYRET_SUCCESS if operation was successfully completed.
1141:Generated_Source\PSoC4/CapSense_Processing.c **** *  - CapSense_PROCESS_BASELINE_FAILED if baseline processing of any
1142:Generated_Source\PSoC4/CapSense_Processing.c **** *    sensor of the specified widget failed. The result is concatenated with the index
1143:Generated_Source\PSoC4/CapSense_Processing.c **** *    of failed sensor.
1144:Generated_Source\PSoC4/CapSense_Processing.c **** *
1145:Generated_Source\PSoC4/CapSense_Processing.c **** *******************************************************************************/
1146:Generated_Source\PSoC4/CapSense_Processing.c **** uint32 CapSense_DpProcessCsdSensorRawCountsExt(
1147:Generated_Source\PSoC4/CapSense_Processing.c ****                 CapSense_FLASH_WD_STRUCT const *ptrFlashWdgt,
1148:Generated_Source\PSoC4/CapSense_Processing.c ****                 CapSense_RAM_SNS_STRUCT *curSnsPtr,
1149:Generated_Source\PSoC4/CapSense_Processing.c ****                 CapSense_PTR_FILTER_VARIANT fltrHistV,
1150:Generated_Source\PSoC4/CapSense_Processing.c ****                  uint32 mode)
1151:Generated_Source\PSoC4/CapSense_Processing.c **** {
1152:Generated_Source\PSoC4/CapSense_Processing.c ****     uint32 result = CYRET_SUCCESS;
1153:Generated_Source\PSoC4/CapSense_Processing.c ****     uint32  widgetType;
1154:Generated_Source\PSoC4/CapSense_Processing.c ****     CapSense_RAM_WD_BASE_STRUCT *ptrRamWdgt;
1155:Generated_Source\PSoC4/CapSense_Processing.c **** 
1156:Generated_Source\PSoC4/CapSense_Processing.c ****     #if (0u != (CapSense_CSD_AUTOTUNE & CapSense_CSD_SS_TH_EN))
1157:Generated_Source\PSoC4/CapSense_Processing.c ****         SMARTSENSE_CSD_NOISE_ENVELOPE_STRUCT *ptrNoiseEnvelope;
1158:Generated_Source\PSoC4/CapSense_Processing.c ****         #if (CapSense_ENABLE == CapSense_PROXIMITY_WIDGET_EN)
1159:Generated_Source\PSoC4/CapSense_Processing.c ****             uint32  proximityThreshold;
1160:Generated_Source\PSoC4/CapSense_Processing.c ****         #endif /* (0 != CapSense_PROXIMITY_WIDGET_EN) */
1161:Generated_Source\PSoC4/CapSense_Processing.c **** 
1162:Generated_Source\PSoC4/CapSense_Processing.c ****         /* Need to specify pointer to corresponding sensor's noise-envelope object.*/
1163:Generated_Source\PSoC4/CapSense_Processing.c ****         ptrNoiseEnvelope = ptrFlashWdgt->ptr2NoiseEnvlp;
1164:Generated_Source\PSoC4/CapSense_Processing.c ****     #endif /* (0u != (CapSense_CSD_AUTOTUNE & CapSense_CSD_SS_TH_EN)) */
1165:Generated_Source\PSoC4/CapSense_Processing.c **** 
1166:Generated_Source\PSoC4/CapSense_Processing.c ****     widgetType = ptrFlashWdgt->wdgtType;
1167:Generated_Source\PSoC4/CapSense_Processing.c ****     ptrRamWdgt = (CapSense_RAM_WD_BASE_STRUCT *)ptrFlashWdgt->ptr2WdgtRam;
1168:Generated_Source\PSoC4/CapSense_Processing.c **** 
1169:Generated_Source\PSoC4/CapSense_Processing.c ****     #if (CapSense_ENABLE == CapSense_RC_FILTER_EN)
1170:Generated_Source\PSoC4/CapSense_Processing.c ****         if (0u != (mode & CapSense_PROCESS_FILTER))
1171:Generated_Source\PSoC4/CapSense_Processing.c ****         {
1172:Generated_Source\PSoC4/CapSense_Processing.c ****             CapSense_FtRunEnabledFiltersInternal(fltrHistV, curSnsPtr, widgetType);
1173:Generated_Source\PSoC4/CapSense_Processing.c ****             #if (CapSense_ALP_FILTER_EN)
1174:Generated_Source\PSoC4/CapSense_Processing.c ****                 CapSense_ConfigRunALPInternal(fltrHistV, ptrRamWdgt, curSnsPtr, widgetType);
1175:Generated_Source\PSoC4/CapSense_Processing.c ****             #endif
1176:Generated_Source\PSoC4/CapSense_Processing.c ****         }
1177:Generated_Source\PSoC4/CapSense_Processing.c ****     #else
1178:Generated_Source\PSoC4/CapSense_Processing.c ****         (void)fltrHistV; /* This parameter is unused in such configurations */
ARM GAS  C:\Users\Erik\AppData\Local\Temp\ccRdsmWm.s 			page 24


1179:Generated_Source\PSoC4/CapSense_Processing.c ****     #endif /* #if (CapSense_ENABLE == CapSense_RC_FILTER_EN) */
1180:Generated_Source\PSoC4/CapSense_Processing.c **** 
1181:Generated_Source\PSoC4/CapSense_Processing.c ****     #if (0u != (CapSense_CSD_AUTOTUNE & CapSense_CSD_SS_TH_EN))
1182:Generated_Source\PSoC4/CapSense_Processing.c ****         if (0u != (mode & CapSense_PROCESS_CALC_NOISE))
1183:Generated_Source\PSoC4/CapSense_Processing.c ****         {
1184:Generated_Source\PSoC4/CapSense_Processing.c ****             SmartSense_RunNoiseEnvelope(curSnsPtr->raw[0u], ptrRamWdgt->sigPFC, ptrNoiseEnvelope);
1185:Generated_Source\PSoC4/CapSense_Processing.c ****         }
1186:Generated_Source\PSoC4/CapSense_Processing.c **** 
1187:Generated_Source\PSoC4/CapSense_Processing.c ****         if (0u != (mode & CapSense_PROCESS_THRESHOLDS))
1188:Generated_Source\PSoC4/CapSense_Processing.c ****         {
1189:Generated_Source\PSoC4/CapSense_Processing.c ****             CapSense_DpUpdateThresholds(ptrRamWdgt, ptrNoiseEnvelope, 0u);
1190:Generated_Source\PSoC4/CapSense_Processing.c **** 
1191:Generated_Source\PSoC4/CapSense_Processing.c ****             /* Calculate Proximity Touch Threshold in SmartSense mode based on Finger Threshold and
1192:Generated_Source\PSoC4/CapSense_Processing.c ****             #if (CapSense_ENABLE == CapSense_PROXIMITY_WIDGET_EN)
1193:Generated_Source\PSoC4/CapSense_Processing.c ****                 if (CapSense_WD_PROXIMITY_E == CapSense_GET_WIDGET_TYPE(ptrFlashWdgt))
1194:Generated_Source\PSoC4/CapSense_Processing.c ****                 {
1195:Generated_Source\PSoC4/CapSense_Processing.c ****                     proximityThreshold = ((uint32)ptrRamWdgt->fingerTh * CapSense_PROX_TOUCH_COEFF)
1196:Generated_Source\PSoC4/CapSense_Processing.c ****                     if ((((1Lu) << CapSense_THRESHOLD_SIZE) - 1u) < proximityThreshold)
1197:Generated_Source\PSoC4/CapSense_Processing.c ****                     {
1198:Generated_Source\PSoC4/CapSense_Processing.c ****                         proximityThreshold = ((1Lu) << CapSense_THRESHOLD_SIZE) - 1u;
1199:Generated_Source\PSoC4/CapSense_Processing.c ****                     }
1200:Generated_Source\PSoC4/CapSense_Processing.c ****                     ((CapSense_RAM_WD_PROXIMITY_STRUCT *)ptrFlashWdgt->ptr2WdgtRam)->proxTouchTh =
1201:Generated_Source\PSoC4/CapSense_Processing.c ****                         (CapSense_THRESHOLD_TYPE)proximityThreshold;
1202:Generated_Source\PSoC4/CapSense_Processing.c ****                 }
1203:Generated_Source\PSoC4/CapSense_Processing.c ****             #endif /* (0 != CapSense_PROXIMITY_WIDGET_EN) */
1204:Generated_Source\PSoC4/CapSense_Processing.c ****         }
1205:Generated_Source\PSoC4/CapSense_Processing.c ****     #endif /* #if (0u != (CapSense_CSD_AUTOTUNE & CapSense_CSD_SS_TH_EN)) */
1206:Generated_Source\PSoC4/CapSense_Processing.c **** 
1207:Generated_Source\PSoC4/CapSense_Processing.c ****     if (0u != (mode & CapSense_PROCESS_BASELINE))
1208:Generated_Source\PSoC4/CapSense_Processing.c ****     {
1209:Generated_Source\PSoC4/CapSense_Processing.c ****         result = CapSense_FtUpdateBaseline(ptrRamWdgt, curSnsPtr, widgetType);
1210:Generated_Source\PSoC4/CapSense_Processing.c ****     }
1211:Generated_Source\PSoC4/CapSense_Processing.c **** 
1212:Generated_Source\PSoC4/CapSense_Processing.c ****     if (0u != (mode & CapSense_PROCESS_DIFFCOUNTS))
1213:Generated_Source\PSoC4/CapSense_Processing.c ****     {
1214:Generated_Source\PSoC4/CapSense_Processing.c ****         CapSense_DpUpdateDifferences(ptrRamWdgt, curSnsPtr);
1215:Generated_Source\PSoC4/CapSense_Processing.c ****     }
1216:Generated_Source\PSoC4/CapSense_Processing.c ****     return result;
1217:Generated_Source\PSoC4/CapSense_Processing.c **** }
1218:Generated_Source\PSoC4/CapSense_Processing.c **** 
1219:Generated_Source\PSoC4/CapSense_Processing.c **** /*******************************************************************************
1220:Generated_Source\PSoC4/CapSense_Processing.c **** * Function Name: CapSense_DpProcessCsdWidgetStatus
1221:Generated_Source\PSoC4/CapSense_Processing.c **** ****************************************************************************//**
1222:Generated_Source\PSoC4/CapSense_Processing.c **** *
1223:Generated_Source\PSoC4/CapSense_Processing.c **** * \brief
1224:Generated_Source\PSoC4/CapSense_Processing.c **** *  Runs the status processing of the CSD widget and updates it in the Data Structure.
1225:Generated_Source\PSoC4/CapSense_Processing.c **** *
1226:Generated_Source\PSoC4/CapSense_Processing.c **** * \details
1227:Generated_Source\PSoC4/CapSense_Processing.c **** *  This API determines the widget type and calls the appropriate low-level processing
1228:Generated_Source\PSoC4/CapSense_Processing.c **** *  function. Based on the returned results it updates the widget and sensor
1229:Generated_Source\PSoC4/CapSense_Processing.c **** *  status in the data structure. Any widget specific registers like the centroid
1230:Generated_Source\PSoC4/CapSense_Processing.c **** *  position are updated directly in the low-level processing function.
1231:Generated_Source\PSoC4/CapSense_Processing.c **** *
1232:Generated_Source\PSoC4/CapSense_Processing.c **** *  When the widget-specific processing completes this API updates the snsStatus
1233:Generated_Source\PSoC4/CapSense_Processing.c **** *  and wdgtStatus registers in the data structure. The wdgtStatus register
1234:Generated_Source\PSoC4/CapSense_Processing.c **** *  is a bitmask were each bit corresponds to the specific widget identified by
1235:Generated_Source\PSoC4/CapSense_Processing.c **** *  the widget index. When the bit is set the widget is active (touched);
ARM GAS  C:\Users\Erik\AppData\Local\Temp\ccRdsmWm.s 			page 25


1236:Generated_Source\PSoC4/CapSense_Processing.c **** *
1237:Generated_Source\PSoC4/CapSense_Processing.c **** *  The snsStatus register for CSD widgets contains status of each widget sensor
1238:Generated_Source\PSoC4/CapSense_Processing.c **** *  (active/non-active). Each bit corresponds to one sensor. In case of the
1239:Generated_Source\PSoC4/CapSense_Processing.c **** *  Proximity widget two bits are used per sensor: one for proximity status and
1240:Generated_Source\PSoC4/CapSense_Processing.c **** *  second for the touch status.
1241:Generated_Source\PSoC4/CapSense_Processing.c **** *
1242:Generated_Source\PSoC4/CapSense_Processing.c **** * \param widgetId      The widget index number.
1243:Generated_Source\PSoC4/CapSense_Processing.c **** * \param ptrFlashWdgt  The pointer to the Flash widget structure.
1244:Generated_Source\PSoC4/CapSense_Processing.c **** *
1245:Generated_Source\PSoC4/CapSense_Processing.c **** *******************************************************************************/
1246:Generated_Source\PSoC4/CapSense_Processing.c **** void CapSense_DpProcessCsdWidgetStatus(uint32 widgetId, CapSense_FLASH_WD_STRUCT const *ptrFlashWdg
1247:Generated_Source\PSoC4/CapSense_Processing.c **** {
1248:Generated_Source\PSoC4/CapSense_Processing.c ****     uint32 sensorStatus;
1249:Generated_Source\PSoC4/CapSense_Processing.c ****     uint32 wdStatusIndex;
1250:Generated_Source\PSoC4/CapSense_Processing.c ****     uint32 wdStatusMask;
1251:Generated_Source\PSoC4/CapSense_Processing.c ****     CapSense_WD_TYPE_ENUM widgetType;
1252:Generated_Source\PSoC4/CapSense_Processing.c **** 
1253:Generated_Source\PSoC4/CapSense_Processing.c ****     widgetType = (CapSense_WD_TYPE_ENUM)ptrFlashWdgt->wdgtType;
1254:Generated_Source\PSoC4/CapSense_Processing.c ****     sensorStatus = CapSense_dsRam.snsStatus[widgetId];
1255:Generated_Source\PSoC4/CapSense_Processing.c **** 
1256:Generated_Source\PSoC4/CapSense_Processing.c ****     switch (widgetType)
1257:Generated_Source\PSoC4/CapSense_Processing.c ****     {
1258:Generated_Source\PSoC4/CapSense_Processing.c ****     #if (0u != CapSense_BUTTON_WIDGET_EN)
1259:Generated_Source\PSoC4/CapSense_Processing.c ****         case CapSense_WD_BUTTON_E:
1260:Generated_Source\PSoC4/CapSense_Processing.c ****             sensorStatus = CapSense_DpProcessButton(sensorStatus, ptrFlashWdgt);
1261:Generated_Source\PSoC4/CapSense_Processing.c ****             break;
1262:Generated_Source\PSoC4/CapSense_Processing.c ****     #endif /* #if (0u != CapSense_BUTTON_WIDGET_EN) */
1263:Generated_Source\PSoC4/CapSense_Processing.c **** 
1264:Generated_Source\PSoC4/CapSense_Processing.c ****     #if (0u != CapSense_SLIDER_WIDGET_EN)
1265:Generated_Source\PSoC4/CapSense_Processing.c ****         case CapSense_WD_LINEAR_SLIDER_E:
1266:Generated_Source\PSoC4/CapSense_Processing.c ****         case CapSense_WD_RADIAL_SLIDER_E:
1267:Generated_Source\PSoC4/CapSense_Processing.c ****             sensorStatus = CapSense_DpProcessSlider(sensorStatus, ptrFlashWdgt);
1268:Generated_Source\PSoC4/CapSense_Processing.c ****             break;
1269:Generated_Source\PSoC4/CapSense_Processing.c ****     #endif /* #if (0u != CapSense_SLIDER_WIDGET_EN) */
1270:Generated_Source\PSoC4/CapSense_Processing.c **** 
1271:Generated_Source\PSoC4/CapSense_Processing.c ****     #if (0u != CapSense_CSD_MATRIX_WIDGET_EN)
1272:Generated_Source\PSoC4/CapSense_Processing.c ****         case CapSense_WD_MATRIX_BUTTON_E:
1273:Generated_Source\PSoC4/CapSense_Processing.c ****             sensorStatus = CapSense_DpProcessCsdMatrix(sensorStatus, ptrFlashWdgt);
1274:Generated_Source\PSoC4/CapSense_Processing.c ****             break;
1275:Generated_Source\PSoC4/CapSense_Processing.c ****     #endif /* #if (0u != CapSense_CSD_MATRIX_WIDGET_EN) */
1276:Generated_Source\PSoC4/CapSense_Processing.c **** 
1277:Generated_Source\PSoC4/CapSense_Processing.c ****     #if (0u != CapSense_CSD_TOUCHPAD_WIDGET_EN)
1278:Generated_Source\PSoC4/CapSense_Processing.c ****         case CapSense_WD_TOUCHPAD_E:
1279:Generated_Source\PSoC4/CapSense_Processing.c ****             sensorStatus = CapSense_DpProcessCsdTouchpad(sensorStatus, ptrFlashWdgt);
1280:Generated_Source\PSoC4/CapSense_Processing.c ****             #if (0u != CapSense_BALLISTIC_MULTIPLIER_EN)
1281:Generated_Source\PSoC4/CapSense_Processing.c ****                 CapSense_RunBallisticMultiplier(widgetId);
1282:Generated_Source\PSoC4/CapSense_Processing.c ****             #endif /* (0u != CapSense_BALLISTIC_MULTIPLIER_EN) */
1283:Generated_Source\PSoC4/CapSense_Processing.c ****             break;
1284:Generated_Source\PSoC4/CapSense_Processing.c ****     #endif /* #if (0u != CapSense_CSD_TOUCHPAD_WIDGET_EN) */
1285:Generated_Source\PSoC4/CapSense_Processing.c **** 
1286:Generated_Source\PSoC4/CapSense_Processing.c ****     #if (0u != CapSense_PROXIMITY_WIDGET_EN)
1287:Generated_Source\PSoC4/CapSense_Processing.c ****         case CapSense_WD_PROXIMITY_E:
1288:Generated_Source\PSoC4/CapSense_Processing.c ****             sensorStatus = CapSense_DpProcessProximity(sensorStatus, ptrFlashWdgt);
1289:Generated_Source\PSoC4/CapSense_Processing.c ****             break;
1290:Generated_Source\PSoC4/CapSense_Processing.c ****     #endif /* #if (0u != CapSense_PROXIMITY_WIDGET_EN) */
1291:Generated_Source\PSoC4/CapSense_Processing.c **** 
1292:Generated_Source\PSoC4/CapSense_Processing.c ****     default:
ARM GAS  C:\Users\Erik\AppData\Local\Temp\ccRdsmWm.s 			page 26


1293:Generated_Source\PSoC4/CapSense_Processing.c ****         CYASSERT(0u);
1294:Generated_Source\PSoC4/CapSense_Processing.c ****         break;
1295:Generated_Source\PSoC4/CapSense_Processing.c ****     }
1296:Generated_Source\PSoC4/CapSense_Processing.c **** 
1297:Generated_Source\PSoC4/CapSense_Processing.c ****     CapSense_dsRam.snsStatus[widgetId] = (CapSense_SNS_STS_TYPE)sensorStatus;
1298:Generated_Source\PSoC4/CapSense_Processing.c **** 
1299:Generated_Source\PSoC4/CapSense_Processing.c ****     /* The next two lines calculate index and bitmask of the widget status bit in the wdgtStatus ar
1300:Generated_Source\PSoC4/CapSense_Processing.c ****     wdStatusIndex = CapSense_GET_WDGT_STATUS_INDEX(widgetId);
1301:Generated_Source\PSoC4/CapSense_Processing.c ****     wdStatusMask = CapSense_GET_WDGT_STATUS_MASK(widgetId);
1302:Generated_Source\PSoC4/CapSense_Processing.c **** 
1303:Generated_Source\PSoC4/CapSense_Processing.c ****     /* Check if there are active sensors and update widget status accordingly */
1304:Generated_Source\PSoC4/CapSense_Processing.c ****     if (0u == sensorStatus)
1305:Generated_Source\PSoC4/CapSense_Processing.c ****     {
1306:Generated_Source\PSoC4/CapSense_Processing.c ****         CapSense_dsRam.wdgtStatus[wdStatusIndex] &= ~wdStatusMask;
1307:Generated_Source\PSoC4/CapSense_Processing.c ****     }
1308:Generated_Source\PSoC4/CapSense_Processing.c ****     else
1309:Generated_Source\PSoC4/CapSense_Processing.c ****     {
1310:Generated_Source\PSoC4/CapSense_Processing.c ****         CapSense_dsRam.wdgtStatus[wdStatusIndex] |= wdStatusMask;
1311:Generated_Source\PSoC4/CapSense_Processing.c ****     }
1312:Generated_Source\PSoC4/CapSense_Processing.c **** }
1313:Generated_Source\PSoC4/CapSense_Processing.c **** #endif /* #if (0u != CapSense_TOTAL_CSD_WIDGETS) */
1314:Generated_Source\PSoC4/CapSense_Processing.c **** 
1315:Generated_Source\PSoC4/CapSense_Processing.c **** 
1316:Generated_Source\PSoC4/CapSense_Processing.c **** #if (0 != (CapSense_CSD_AUTOTUNE & CapSense_CSD_SS_TH_EN))
1317:Generated_Source\PSoC4/CapSense_Processing.c **** /*******************************************************************************
1318:Generated_Source\PSoC4/CapSense_Processing.c **** * Function Name: CapSense_DpUpdateThresholds
1319:Generated_Source\PSoC4/CapSense_Processing.c **** ****************************************************************************//**
1320:Generated_Source\PSoC4/CapSense_Processing.c **** *
1321:Generated_Source\PSoC4/CapSense_Processing.c **** * \brief
1322:Generated_Source\PSoC4/CapSense_Processing.c **** *   Updates noise and finger thresholds for a specified widget.
1323:Generated_Source\PSoC4/CapSense_Processing.c **** *
1324:Generated_Source\PSoC4/CapSense_Processing.c **** * \details
1325:Generated_Source\PSoC4/CapSense_Processing.c **** *   Updates noise and finger thresholds for a specified widget.
1326:Generated_Source\PSoC4/CapSense_Processing.c **** *   This algorithm is a part of Auto-tuning feature.
1327:Generated_Source\PSoC4/CapSense_Processing.c **** *
1328:Generated_Source\PSoC4/CapSense_Processing.c **** * \param ptrRamWdgt       The pointer to the RAM widget object.
1329:Generated_Source\PSoC4/CapSense_Processing.c **** * \param ptrNoiseEnvelope The pointer to the noise-envelope object in RAM.
1330:Generated_Source\PSoC4/CapSense_Processing.c **** * \param startFlag        The flag indicates when new widget is processed.
1331:Generated_Source\PSoC4/CapSense_Processing.c **** *
1332:Generated_Source\PSoC4/CapSense_Processing.c **** *******************************************************************************/
1333:Generated_Source\PSoC4/CapSense_Processing.c **** void CapSense_DpUpdateThresholds(CapSense_RAM_WD_BASE_STRUCT *ptrRamWdgt,
1334:Generated_Source\PSoC4/CapSense_Processing.c ****                                          SMARTSENSE_CSD_NOISE_ENVELOPE_STRUCT *ptrNoiseEnvelope,
1335:Generated_Source\PSoC4/CapSense_Processing.c ****                                          uint32 startFlag)
1336:Generated_Source\PSoC4/CapSense_Processing.c **** {
 129              		.loc 1 1336 0
 130              		.cfi_startproc
 131              		@ args = 0, pretend = 0, frame = 8
 132              		@ frame_needed = 0, uses_anonymous_args = 0
 133              	.LVL14:
 134 0000 10B5     		push	{r4, lr}
 135              		.cfi_def_cfa_offset 8
 136              		.cfi_offset 4, -8
 137              		.cfi_offset 14, -4
 138 0002 82B0     		sub	sp, sp, #8
 139              		.cfi_def_cfa_offset 16
 140 0004 0400     		movs	r4, r0
 141 0006 0800     		movs	r0, r1
ARM GAS  C:\Users\Erik\AppData\Local\Temp\ccRdsmWm.s 			page 27


 142              	.LVL15:
 143 0008 1300     		movs	r3, r2
 144              	.LVL16:
1337:Generated_Source\PSoC4/CapSense_Processing.c ****     SMARTSENSE_UPDATE_THRESHOLDS_STRUCT thresholds;
1338:Generated_Source\PSoC4/CapSense_Processing.c ****     SMARTSENSE_UPDATE_THRESHOLDS_STRUCT *ptrThresholds = &thresholds;
1339:Generated_Source\PSoC4/CapSense_Processing.c ****     ptrThresholds->fingerTh = ptrRamWdgt->fingerTh;
 145              		.loc 1 1339 0
 146 000a 6288     		ldrh	r2, [r4, #2]
 147              	.LVL17:
 148 000c 6946     		mov	r1, sp
 149              	.LVL18:
 150 000e 0A80     		strh	r2, [r1]
1340:Generated_Source\PSoC4/CapSense_Processing.c **** 
1341:Generated_Source\PSoC4/CapSense_Processing.c ****     SmartSense_UpdateThresholds(ptrNoiseEnvelope, ptrThresholds, ptrRamWdgt->sigPFC, startFlag);
 151              		.loc 1 1341 0
 152 0010 628A     		ldrh	r2, [r4, #18]
 153 0012 FFF7FEFF 		bl	SmartSense_UpdateThresholds
 154              	.LVL19:
1342:Generated_Source\PSoC4/CapSense_Processing.c **** 
1343:Generated_Source\PSoC4/CapSense_Processing.c ****     ptrRamWdgt->fingerTh = ptrThresholds->fingerTh;
 155              		.loc 1 1343 0
 156 0016 6B46     		mov	r3, sp
 157 0018 1B88     		ldrh	r3, [r3]
 158 001a 6380     		strh	r3, [r4, #2]
1344:Generated_Source\PSoC4/CapSense_Processing.c ****     ptrRamWdgt->noiseTh = ptrThresholds->noiseTh;
 159              		.loc 1 1344 0
 160 001c 6B46     		mov	r3, sp
 161 001e 9B78     		ldrb	r3, [r3, #2]
 162 0020 2371     		strb	r3, [r4, #4]
1345:Generated_Source\PSoC4/CapSense_Processing.c ****     ptrRamWdgt->nNoiseTh = ptrThresholds->nNoiseTh;
 163              		.loc 1 1345 0
 164 0022 6B46     		mov	r3, sp
 165 0024 DB78     		ldrb	r3, [r3, #3]
 166 0026 6371     		strb	r3, [r4, #5]
1346:Generated_Source\PSoC4/CapSense_Processing.c ****     ptrRamWdgt->hysteresis = ptrThresholds->hysteresis;
 167              		.loc 1 1346 0
 168 0028 6B46     		mov	r3, sp
 169 002a 1B79     		ldrb	r3, [r3, #4]
 170 002c A371     		strb	r3, [r4, #6]
1347:Generated_Source\PSoC4/CapSense_Processing.c **** }
 171              		.loc 1 1347 0
 172 002e 02B0     		add	sp, sp, #8
 173              	.LVL20:
 174              		@ sp needed
 175              	.LVL21:
 176 0030 10BD     		pop	{r4, pc}
 177              		.cfi_endproc
 178              	.LFE5:
 179              		.size	CapSense_DpUpdateThresholds, .-CapSense_DpUpdateThresholds
 180 0032 C046     		.section	.text.CapSense_DpUpdateDifferences,"ax",%progbits
 181              		.align	2
 182              		.global	CapSense_DpUpdateDifferences
 183              		.code	16
 184              		.thumb_func
 185              		.type	CapSense_DpUpdateDifferences, %function
 186              	CapSense_DpUpdateDifferences:
 187              	.LFB6:
ARM GAS  C:\Users\Erik\AppData\Local\Temp\ccRdsmWm.s 			page 28


1348:Generated_Source\PSoC4/CapSense_Processing.c **** #endif /* #if (0u != (CapSense_CSD_AUTOTUNE & CapSense_CSD_SS_TH_EN)) */
1349:Generated_Source\PSoC4/CapSense_Processing.c **** 
1350:Generated_Source\PSoC4/CapSense_Processing.c **** 
1351:Generated_Source\PSoC4/CapSense_Processing.c **** /*******************************************************************************
1352:Generated_Source\PSoC4/CapSense_Processing.c **** * Function Name: CapSense_DpUpdateDifferences
1353:Generated_Source\PSoC4/CapSense_Processing.c **** ****************************************************************************//**
1354:Generated_Source\PSoC4/CapSense_Processing.c **** *
1355:Generated_Source\PSoC4/CapSense_Processing.c **** * \brief
1356:Generated_Source\PSoC4/CapSense_Processing.c **** *   Calculates new difference values.
1357:Generated_Source\PSoC4/CapSense_Processing.c **** *   Also, executes the multi-frequency scan algorithm if it is enabled.
1358:Generated_Source\PSoC4/CapSense_Processing.c **** *
1359:Generated_Source\PSoC4/CapSense_Processing.c **** * \details
1360:Generated_Source\PSoC4/CapSense_Processing.c **** *   This API calculates the difference between the baseline and raw counts.
1361:Generated_Source\PSoC4/CapSense_Processing.c **** *   If the difference is positive (raw > baseline), and higher than the widget
1362:Generated_Source\PSoC4/CapSense_Processing.c **** *   noise threshold, it is saved into the data structure for further processing.
1363:Generated_Source\PSoC4/CapSense_Processing.c **** *   Otherwise the difference is set to zero. The final difference value is saved
1364:Generated_Source\PSoC4/CapSense_Processing.c **** *   with the subtracted noise threshold value.
1365:Generated_Source\PSoC4/CapSense_Processing.c **** *
1366:Generated_Source\PSoC4/CapSense_Processing.c **** *   If the multi-frequency scan algorithm is enabled, the difference is calculated
1367:Generated_Source\PSoC4/CapSense_Processing.c **** *   for the three sets of data available for each sensor. Then
1368:Generated_Source\PSoC4/CapSense_Processing.c **** *   the median filter selects the final difference value.
1369:Generated_Source\PSoC4/CapSense_Processing.c **** *
1370:Generated_Source\PSoC4/CapSense_Processing.c **** * \param ptrRamWdgt The pointer to the RAR Widget Object.
1371:Generated_Source\PSoC4/CapSense_Processing.c **** * \param curSnsPtr  The pointer to the sensor object in RAM.
1372:Generated_Source\PSoC4/CapSense_Processing.c **** *
1373:Generated_Source\PSoC4/CapSense_Processing.c **** *******************************************************************************/
1374:Generated_Source\PSoC4/CapSense_Processing.c **** void CapSense_DpUpdateDifferences(
1375:Generated_Source\PSoC4/CapSense_Processing.c ****                         CapSense_RAM_WD_BASE_STRUCT *ptrRamWdgt,
1376:Generated_Source\PSoC4/CapSense_Processing.c ****                         CapSense_RAM_SNS_STRUCT *curSnsPtr)
1377:Generated_Source\PSoC4/CapSense_Processing.c **** {
 188              		.loc 1 1377 0
 189              		.cfi_startproc
 190              		@ args = 0, pretend = 0, frame = 0
 191              		@ frame_needed = 0, uses_anonymous_args = 0
 192              	.LVL22:
 193 0000 30B5     		push	{r4, r5, lr}
 194              		.cfi_def_cfa_offset 12
 195              		.cfi_offset 4, -12
 196              		.cfi_offset 5, -8
 197              		.cfi_offset 14, -4
 198              	.LVL23:
1378:Generated_Source\PSoC4/CapSense_Processing.c ****     register int32 diffValue = 0;
1379:Generated_Source\PSoC4/CapSense_Processing.c **** 
1380:Generated_Source\PSoC4/CapSense_Processing.c ****     #if (0u != CapSense_MULTI_FREQ_SCAN_EN)
1381:Generated_Source\PSoC4/CapSense_Processing.c ****         register int32 diffValue_0 = 0;
1382:Generated_Source\PSoC4/CapSense_Processing.c ****         register int32 diffValue_2 = 0;
1383:Generated_Source\PSoC4/CapSense_Processing.c ****     #endif /* #if (0u != CapSense_MULTI_FREQ_SCAN_EN) */
1384:Generated_Source\PSoC4/CapSense_Processing.c **** 
1385:Generated_Source\PSoC4/CapSense_Processing.c ****     /* Calculate difference */
1386:Generated_Source\PSoC4/CapSense_Processing.c ****     diffValue = (int32)curSnsPtr->raw[0u] - (int32)curSnsPtr->bsln[0u];
 199              		.loc 1 1386 0
 200 0002 0B88     		ldrh	r3, [r1]
 201 0004 4A88     		ldrh	r2, [r1, #2]
 202 0006 9C1A     		subs	r4, r3, r2
 203              	.LVL24:
1387:Generated_Source\PSoC4/CapSense_Processing.c **** 
1388:Generated_Source\PSoC4/CapSense_Processing.c ****     #if (0u != CapSense_MULTI_FREQ_SCAN_EN)
ARM GAS  C:\Users\Erik\AppData\Local\Temp\ccRdsmWm.s 			page 29


1389:Generated_Source\PSoC4/CapSense_Processing.c ****         diffValue_0 = (int32)curSnsPtr->raw[1u] - (int32)curSnsPtr->bsln[1u];
1390:Generated_Source\PSoC4/CapSense_Processing.c ****         diffValue_2 = (int32)curSnsPtr->raw[2u] - (int32)curSnsPtr->bsln[2u];
1391:Generated_Source\PSoC4/CapSense_Processing.c **** 
1392:Generated_Source\PSoC4/CapSense_Processing.c ****         /* Find median and put it into [0u] element */
1393:Generated_Source\PSoC4/CapSense_Processing.c ****         if (diffValue_0 > diffValue)
1394:Generated_Source\PSoC4/CapSense_Processing.c ****         {
1395:Generated_Source\PSoC4/CapSense_Processing.c ****             register int32 swapv = diffValue_0;
1396:Generated_Source\PSoC4/CapSense_Processing.c ****             diffValue_0 = diffValue;
1397:Generated_Source\PSoC4/CapSense_Processing.c ****             diffValue = swapv;
1398:Generated_Source\PSoC4/CapSense_Processing.c ****         }
1399:Generated_Source\PSoC4/CapSense_Processing.c **** 
1400:Generated_Source\PSoC4/CapSense_Processing.c ****         if (diffValue > diffValue_2)
1401:Generated_Source\PSoC4/CapSense_Processing.c ****         {
1402:Generated_Source\PSoC4/CapSense_Processing.c ****             register int32 swapv = diffValue;
1403:Generated_Source\PSoC4/CapSense_Processing.c ****             diffValue = diffValue_2;
1404:Generated_Source\PSoC4/CapSense_Processing.c ****             diffValue_2 = swapv;
1405:Generated_Source\PSoC4/CapSense_Processing.c ****         }
1406:Generated_Source\PSoC4/CapSense_Processing.c **** 
1407:Generated_Source\PSoC4/CapSense_Processing.c ****         if (diffValue_0 > diffValue)
1408:Generated_Source\PSoC4/CapSense_Processing.c ****         {
1409:Generated_Source\PSoC4/CapSense_Processing.c ****             register int32 swapv = diffValue_0;
1410:Generated_Source\PSoC4/CapSense_Processing.c ****             diffValue_0 = diffValue;
1411:Generated_Source\PSoC4/CapSense_Processing.c ****             diffValue = swapv;
1412:Generated_Source\PSoC4/CapSense_Processing.c ****         }
1413:Generated_Source\PSoC4/CapSense_Processing.c ****     #endif /* #if (0u != CapSense_MULTI_FREQ_SCAN_EN) */
1414:Generated_Source\PSoC4/CapSense_Processing.c **** 
1415:Generated_Source\PSoC4/CapSense_Processing.c ****     curSnsPtr->diff = 0u;
 204              		.loc 1 1415 0
 205 0008 0025     		movs	r5, #0
 206 000a CD80     		strh	r5, [r1, #6]
1416:Generated_Source\PSoC4/CapSense_Processing.c **** 
1417:Generated_Source\PSoC4/CapSense_Processing.c ****     if (diffValue > (int32)ptrRamWdgt->noiseTh)
 207              		.loc 1 1417 0
 208 000c 0079     		ldrb	r0, [r0, #4]
 209              	.LVL25:
 210 000e 8442     		cmp	r4, r0
 211 0010 00DD     		ble	.L11
1418:Generated_Source\PSoC4/CapSense_Processing.c ****     {
1419:Generated_Source\PSoC4/CapSense_Processing.c ****         curSnsPtr->diff = (CapSense_THRESHOLD_TYPE) diffValue;
 212              		.loc 1 1419 0
 213 0012 CC80     		strh	r4, [r1, #6]
 214              	.L11:
1420:Generated_Source\PSoC4/CapSense_Processing.c ****     }
1421:Generated_Source\PSoC4/CapSense_Processing.c **** }
 215              		.loc 1 1421 0
 216              		@ sp needed
 217              	.LVL26:
 218 0014 30BD     		pop	{r4, r5, pc}
 219              		.cfi_endproc
 220              	.LFE6:
 221              		.size	CapSense_DpUpdateDifferences, .-CapSense_DpUpdateDifferences
 222 0016 C046     		.section	.text.CapSense_DpProcessCsdWidgetRawCounts,"ax",%progbits
 223              		.align	2
 224              		.global	CapSense_DpProcessCsdWidgetRawCounts
 225              		.code	16
 226              		.thumb_func
 227              		.type	CapSense_DpProcessCsdWidgetRawCounts, %function
ARM GAS  C:\Users\Erik\AppData\Local\Temp\ccRdsmWm.s 			page 30


 228              	CapSense_DpProcessCsdWidgetRawCounts:
 229              	.LFB2:
1017:Generated_Source\PSoC4/CapSense_Processing.c ****     uint32  result = CYRET_SUCCESS;
 230              		.loc 1 1017 0
 231              		.cfi_startproc
 232              		@ args = 0, pretend = 0, frame = 8
 233              		@ frame_needed = 0, uses_anonymous_args = 0
 234              	.LVL27:
 235 0000 F0B5     		push	{r4, r5, r6, r7, lr}
 236              		.cfi_def_cfa_offset 20
 237              		.cfi_offset 4, -20
 238              		.cfi_offset 5, -16
 239              		.cfi_offset 6, -12
 240              		.cfi_offset 7, -8
 241              		.cfi_offset 14, -4
 242 0002 5F46     		mov	r7, fp
 243 0004 5646     		mov	r6, r10
 244 0006 4D46     		mov	r5, r9
 245 0008 E0B4     		push	{r5, r6, r7}
 246              		.cfi_def_cfa_offset 32
 247              		.cfi_offset 9, -32
 248              		.cfi_offset 10, -28
 249              		.cfi_offset 11, -24
 250 000a 82B0     		sub	sp, sp, #8
 251              		.cfi_def_cfa_offset 40
 252 000c 8246     		mov	r10, r0
 253              	.LVL28:
1041:Generated_Source\PSoC4/CapSense_Processing.c **** 
 254              		.loc 1 1041 0
 255 000e 837E     		ldrb	r3, [r0, #26]
 256 0010 062B     		cmp	r3, #6
 257 0012 02D1     		bne	.L18
 258 0014 0122     		movs	r2, #1
 259 0016 9346     		mov	fp, r2
 260 0018 01E0     		b	.L14
 261              	.L18:
 262 001a 0022     		movs	r2, #0
 263 001c 9346     		mov	fp, r2
 264              	.L14:
 265              	.LVL29:
1044:Generated_Source\PSoC4/CapSense_Processing.c ****     #endif /* #if (CapSense_ENABLE == CapSense_RC_FILTER_EN) */
 266              		.loc 1 1044 0 discriminator 4
 267 001e 5246     		mov	r2, r10
 268 0020 D268     		ldr	r2, [r2, #12]
 269              	.LVL30:
 270 0022 9146     		mov	r9, r2
1047:Generated_Source\PSoC4/CapSense_Processing.c ****     ptrRamWdgt = (CapSense_RAM_WD_BASE_STRUCT *)ptrFlashWdgt->ptr2WdgtRam;
 271              		.loc 1 1047 0 discriminator 4
 272 0024 5246     		mov	r2, r10
 273              	.LVL31:
 274 0026 9468     		ldr	r4, [r2, #8]
 275              	.LVL32:
1048:Generated_Source\PSoC4/CapSense_Processing.c ****     widgetType = ptrFlashWdgt->wdgtType;
 276              		.loc 1 1048 0 discriminator 4
 277 0028 5668     		ldr	r6, [r2, #4]
 278              	.LVL33:
1049:Generated_Source\PSoC4/CapSense_Processing.c **** 
ARM GAS  C:\Users\Erik\AppData\Local\Temp\ccRdsmWm.s 			page 31


 279              		.loc 1 1049 0 discriminator 4
 280 002a 0093     		str	r3, [sp]
 281              	.LVL34:
1052:Generated_Source\PSoC4/CapSense_Processing.c ****     #endif /* #if (0u != (CapSense_CSD_AUTOTUNE & CapSense_CSD_SS_TH_EN)) */
 282              		.loc 1 1052 0 discriminator 4
 283 002c D769     		ldr	r7, [r2, #28]
 284              	.LVL35:
1056:Generated_Source\PSoC4/CapSense_Processing.c ****     {
 285              		.loc 1 1056 0 discriminator 4
 286 002e 0025     		movs	r5, #0
1018:Generated_Source\PSoC4/CapSense_Processing.c **** 
 287              		.loc 1 1018 0 discriminator 4
 288 0030 0023     		movs	r3, #0
 289 0032 0193     		str	r3, [sp, #4]
1056:Generated_Source\PSoC4/CapSense_Processing.c ****     {
 290              		.loc 1 1056 0 discriminator 4
 291 0034 21E0     		b	.L15
 292              	.LVL36:
 293              	.L17:
1060:Generated_Source\PSoC4/CapSense_Processing.c ****             #if (CapSense_ALP_FILTER_EN)
 294              		.loc 1 1060 0
 295 0036 009A     		ldr	r2, [sp]
 296 0038 2100     		movs	r1, r4
 297 003a 4846     		mov	r0, r9
 298 003c FFF7FEFF 		bl	CapSense_FtRunEnabledFiltersInternal
 299              	.LVL37:
1068:Generated_Source\PSoC4/CapSense_Processing.c ****             CapSense_DpUpdateThresholds(ptrRamWdgt, ptrNoiseEnvelope, snsId);
 300              		.loc 1 1068 0
 301 0040 718A     		ldrh	r1, [r6, #18]
 302 0042 2088     		ldrh	r0, [r4]
 303 0044 3A00     		movs	r2, r7
 304 0046 FFF7FEFF 		bl	SmartSense_RunNoiseEnvelope
 305              	.LVL38:
1069:Generated_Source\PSoC4/CapSense_Processing.c **** 
 306              		.loc 1 1069 0
 307 004a 2A00     		movs	r2, r5
 308 004c 3900     		movs	r1, r7
 309 004e 3000     		movs	r0, r6
 310 0050 FFF7FEFF 		bl	CapSense_DpUpdateThresholds
 311              	.LVL39:
1086:Generated_Source\PSoC4/CapSense_Processing.c ****         #endif /* (0u != (CapSense_CSD_AUTOTUNE & CapSense_CSD_SS_TH_EN)) */
 312              		.loc 1 1086 0
 313 0054 0C37     		adds	r7, r7, #12
 314              	.LVL40:
1096:Generated_Source\PSoC4/CapSense_Processing.c ****         #endif /* (CapSense_ENABLE == CapSense_TST_BSLN_DUPLICATION_EN) */
 315              		.loc 1 1096 0
 316 0056 009A     		ldr	r2, [sp]
 317 0058 2100     		movs	r1, r4
 318 005a 3000     		movs	r0, r6
 319 005c FFF7FEFF 		bl	CapSense_FtUpdateBaseline
 320              	.LVL41:
 321 0060 0190     		str	r0, [sp, #4]
 322              	.LVL42:
1099:Generated_Source\PSoC4/CapSense_Processing.c **** 
 323              		.loc 1 1099 0
 324 0062 2100     		movs	r1, r4
 325 0064 3000     		movs	r0, r6
ARM GAS  C:\Users\Erik\AppData\Local\Temp\ccRdsmWm.s 			page 32


 326              	.LVL43:
 327 0066 FFF7FEFF 		bl	CapSense_DpUpdateDifferences
 328              	.LVL44:
1102:Generated_Source\PSoC4/CapSense_Processing.c **** 
 329              		.loc 1 1102 0
 330 006a 0A34     		adds	r4, r4, #10
 331              	.LVL45:
1106:Generated_Source\PSoC4/CapSense_Processing.c ****         #endif /* #if (CapSense_ENABLE == CapSense_RC_FILTER_EN) */
 332              		.loc 1 1106 0
 333 006c 5B46     		mov	r3, fp
 334 006e 002B     		cmp	r3, #0
 335 0070 02D1     		bne	.L16
 336              	.LVL46:
1106:Generated_Source\PSoC4/CapSense_Processing.c ****         #endif /* #if (CapSense_ENABLE == CapSense_RC_FILTER_EN) */
 337              		.loc 1 1106 0 is_stmt 0 discriminator 1
 338 0072 0233     		adds	r3, r3, #2
 339              	.LVL47:
 340 0074 9C46     		mov	ip, r3
 341 0076 E144     		add	r9, r9, ip
 342              	.LVL48:
 343              	.L16:
1056:Generated_Source\PSoC4/CapSense_Processing.c ****     {
 344              		.loc 1 1056 0 is_stmt 1 discriminator 2
 345 0078 0135     		adds	r5, r5, #1
 346              	.LVL49:
 347              	.L15:
1056:Generated_Source\PSoC4/CapSense_Processing.c ****     {
 348              		.loc 1 1056 0 is_stmt 0 discriminator 1
 349 007a 5346     		mov	r3, r10
 350 007c 1B8B     		ldrh	r3, [r3, #24]
 351 007e 9D42     		cmp	r5, r3
 352 0080 D9D3     		bcc	.L17
1110:Generated_Source\PSoC4/CapSense_Processing.c **** 
 353              		.loc 1 1110 0 is_stmt 1
 354 0082 0198     		ldr	r0, [sp, #4]
 355 0084 02B0     		add	sp, sp, #8
 356              	.LVL50:
 357              		@ sp needed
 358              	.LVL51:
 359              	.LVL52:
 360              	.LVL53:
 361              	.LVL54:
 362              	.LVL55:
 363              	.LVL56:
 364              	.LVL57:
 365 0086 1CBC     		pop	{r2, r3, r4}
 366 0088 9146     		mov	r9, r2
 367 008a 9A46     		mov	r10, r3
 368 008c A346     		mov	fp, r4
 369 008e F0BD     		pop	{r4, r5, r6, r7, pc}
 370              		.cfi_endproc
 371              	.LFE2:
 372              		.size	CapSense_DpProcessCsdWidgetRawCounts, .-CapSense_DpProcessCsdWidgetRawCounts
 373              		.section	.text.CapSense_DpProcessCsdSensorRawCountsExt,"ax",%progbits
 374              		.align	2
 375              		.global	CapSense_DpProcessCsdSensorRawCountsExt
 376              		.code	16
ARM GAS  C:\Users\Erik\AppData\Local\Temp\ccRdsmWm.s 			page 33


 377              		.thumb_func
 378              		.type	CapSense_DpProcessCsdSensorRawCountsExt, %function
 379              	CapSense_DpProcessCsdSensorRawCountsExt:
 380              	.LFB3:
1151:Generated_Source\PSoC4/CapSense_Processing.c ****     uint32 result = CYRET_SUCCESS;
 381              		.loc 1 1151 0
 382              		.cfi_startproc
 383              		@ args = 0, pretend = 0, frame = 8
 384              		@ frame_needed = 0, uses_anonymous_args = 0
 385              	.LVL58:
 386 0000 F0B5     		push	{r4, r5, r6, r7, lr}
 387              		.cfi_def_cfa_offset 20
 388              		.cfi_offset 4, -20
 389              		.cfi_offset 5, -16
 390              		.cfi_offset 6, -12
 391              		.cfi_offset 7, -8
 392              		.cfi_offset 14, -4
 393 0002 83B0     		sub	sp, sp, #12
 394              		.cfi_def_cfa_offset 32
 395 0004 0091     		str	r1, [sp]
 396 0006 0192     		str	r2, [sp, #4]
 397 0008 1C00     		movs	r4, r3
 398              	.LVL59:
1163:Generated_Source\PSoC4/CapSense_Processing.c ****     #endif /* (0u != (CapSense_CSD_AUTOTUNE & CapSense_CSD_SS_TH_EN)) */
 399              		.loc 1 1163 0
 400 000a C669     		ldr	r6, [r0, #28]
 401              	.LVL60:
1166:Generated_Source\PSoC4/CapSense_Processing.c ****     ptrRamWdgt = (CapSense_RAM_WD_BASE_STRUCT *)ptrFlashWdgt->ptr2WdgtRam;
 402              		.loc 1 1166 0
 403 000c 877E     		ldrb	r7, [r0, #26]
 404              	.LVL61:
1167:Generated_Source\PSoC4/CapSense_Processing.c **** 
 405              		.loc 1 1167 0
 406 000e 4568     		ldr	r5, [r0, #4]
 407              	.LVL62:
1170:Generated_Source\PSoC4/CapSense_Processing.c ****         {
 408              		.loc 1 1170 0
 409 0010 E307     		lsls	r3, r4, #31
 410 0012 03D5     		bpl	.L20
 411              	.LVL63:
1172:Generated_Source\PSoC4/CapSense_Processing.c ****             #if (CapSense_ALP_FILTER_EN)
 412              		.loc 1 1172 0
 413 0014 3A00     		movs	r2, r7
 414              	.LVL64:
 415 0016 0198     		ldr	r0, [sp, #4]
 416              	.LVL65:
 417 0018 FFF7FEFF 		bl	CapSense_FtRunEnabledFiltersInternal
 418              	.LVL66:
 419              	.L20:
1182:Generated_Source\PSoC4/CapSense_Processing.c ****         {
 420              		.loc 1 1182 0
 421 001c 2307     		lsls	r3, r4, #28
 422 001e 05D5     		bpl	.L21
1184:Generated_Source\PSoC4/CapSense_Processing.c ****         }
 423              		.loc 1 1184 0
 424 0020 698A     		ldrh	r1, [r5, #18]
 425 0022 009B     		ldr	r3, [sp]
ARM GAS  C:\Users\Erik\AppData\Local\Temp\ccRdsmWm.s 			page 34


 426 0024 1888     		ldrh	r0, [r3]
 427 0026 3200     		movs	r2, r6
 428              	.LVL67:
 429 0028 FFF7FEFF 		bl	SmartSense_RunNoiseEnvelope
 430              	.LVL68:
 431              	.L21:
1187:Generated_Source\PSoC4/CapSense_Processing.c ****         {
 432              		.loc 1 1187 0
 433 002c E306     		lsls	r3, r4, #27
 434 002e 04D5     		bpl	.L22
1189:Generated_Source\PSoC4/CapSense_Processing.c **** 
 435              		.loc 1 1189 0
 436 0030 0022     		movs	r2, #0
 437              	.LVL69:
 438 0032 3100     		movs	r1, r6
 439 0034 2800     		movs	r0, r5
 440 0036 FFF7FEFF 		bl	CapSense_DpUpdateThresholds
 441              	.LVL70:
 442              	.L22:
1207:Generated_Source\PSoC4/CapSense_Processing.c ****     {
 443              		.loc 1 1207 0
 444 003a A307     		lsls	r3, r4, #30
 445 003c 06D5     		bpl	.L25
1209:Generated_Source\PSoC4/CapSense_Processing.c ****     }
 446              		.loc 1 1209 0
 447 003e 3A00     		movs	r2, r7
 448              	.LVL71:
 449 0040 0099     		ldr	r1, [sp]
 450 0042 2800     		movs	r0, r5
 451 0044 FFF7FEFF 		bl	CapSense_FtUpdateBaseline
 452              	.LVL72:
 453 0048 0700     		movs	r7, r0
 454              	.LVL73:
 455 004a 00E0     		b	.L23
 456              	.LVL74:
 457              	.L25:
1152:Generated_Source\PSoC4/CapSense_Processing.c ****     uint32  widgetType;
 458              		.loc 1 1152 0
 459 004c 0027     		movs	r7, #0
 460              	.LVL75:
 461              	.L23:
1212:Generated_Source\PSoC4/CapSense_Processing.c ****     {
 462              		.loc 1 1212 0
 463 004e 6307     		lsls	r3, r4, #29
 464 0050 03D5     		bpl	.L24
1214:Generated_Source\PSoC4/CapSense_Processing.c ****     }
 465              		.loc 1 1214 0
 466 0052 0099     		ldr	r1, [sp]
 467 0054 2800     		movs	r0, r5
 468 0056 FFF7FEFF 		bl	CapSense_DpUpdateDifferences
 469              	.LVL76:
 470              	.L24:
1217:Generated_Source\PSoC4/CapSense_Processing.c **** 
 471              		.loc 1 1217 0
 472 005a 3800     		movs	r0, r7
 473 005c 03B0     		add	sp, sp, #12
 474              	.LVL77:
ARM GAS  C:\Users\Erik\AppData\Local\Temp\ccRdsmWm.s 			page 35


 475              		@ sp needed
 476              	.LVL78:
 477              	.LVL79:
 478              	.LVL80:
 479              	.LVL81:
 480 005e F0BD     		pop	{r4, r5, r6, r7, pc}
 481              		.cfi_endproc
 482              	.LFE3:
 483              		.size	CapSense_DpProcessCsdSensorRawCountsExt, .-CapSense_DpProcessCsdSensorRawCountsExt
 484              		.section	.text.CapSense_DpProcessButton,"ax",%progbits
 485              		.align	2
 486              		.global	CapSense_DpProcessButton
 487              		.code	16
 488              		.thumb_func
 489              		.type	CapSense_DpProcessButton, %function
 490              	CapSense_DpProcessButton:
 491              	.LFB7:
1422:Generated_Source\PSoC4/CapSense_Processing.c **** 
1423:Generated_Source\PSoC4/CapSense_Processing.c **** 
1424:Generated_Source\PSoC4/CapSense_Processing.c **** #if ((0u != CapSense_BUTTON_WIDGET_EN) || (0u != CapSense_CSX_MATRIX_WIDGET_EN))
1425:Generated_Source\PSoC4/CapSense_Processing.c **** /*******************************************************************************
1426:Generated_Source\PSoC4/CapSense_Processing.c **** * Function Name: CapSense_DpProcessButton
1427:Generated_Source\PSoC4/CapSense_Processing.c **** ****************************************************************************//**
1428:Generated_Source\PSoC4/CapSense_Processing.c **** *
1429:Generated_Source\PSoC4/CapSense_Processing.c **** * \brief
1430:Generated_Source\PSoC4/CapSense_Processing.c **** *   Processes the status of the Button widget.
1431:Generated_Source\PSoC4/CapSense_Processing.c **** *
1432:Generated_Source\PSoC4/CapSense_Processing.c **** * \details
1433:Generated_Source\PSoC4/CapSense_Processing.c **** *   This API processes the status of the CSD/CSX Button widget and
1434:Generated_Source\PSoC4/CapSense_Processing.c **** *   CSX Matrix Button widget. It applies the hysteresis and de-bounce algorithm
1435:Generated_Source\PSoC4/CapSense_Processing.c **** *   to each sensor difference value. This API is expected to be called
1436:Generated_Source\PSoC4/CapSense_Processing.c **** *   after each new widget scan. If it is called multiple times for the same
1437:Generated_Source\PSoC4/CapSense_Processing.c **** *   scan data, the de-bounce algorithm will not work properly.
1438:Generated_Source\PSoC4/CapSense_Processing.c **** *
1439:Generated_Source\PSoC4/CapSense_Processing.c **** *   This API does not update any Data Structure registers
1440:Generated_Source\PSoC4/CapSense_Processing.c **** *   except the de-bounce counters.
1441:Generated_Source\PSoC4/CapSense_Processing.c **** *
1442:Generated_Source\PSoC4/CapSense_Processing.c **** * \param currStatus   The current status of the widget sensors.
1443:Generated_Source\PSoC4/CapSense_Processing.c **** * \param ptrFlashWdgt The pointer to the Flash Widget Object.
1444:Generated_Source\PSoC4/CapSense_Processing.c **** *
1445:Generated_Source\PSoC4/CapSense_Processing.c **** * \return Returns the status of the widget's sensors. Bit #0 - corresponds to Sensor #0.
1446:Generated_Source\PSoC4/CapSense_Processing.c **** *
1447:Generated_Source\PSoC4/CapSense_Processing.c **** *******************************************************************************/
1448:Generated_Source\PSoC4/CapSense_Processing.c **** uint32 CapSense_DpProcessButton(uint32 currStatus, CapSense_FLASH_WD_STRUCT const *ptrFlashWdgt)
1449:Generated_Source\PSoC4/CapSense_Processing.c **** {
 492              		.loc 1 1449 0
 493              		.cfi_startproc
 494              		@ args = 0, pretend = 0, frame = 0
 495              		@ frame_needed = 0, uses_anonymous_args = 0
 496              	.LVL82:
 497 0000 F0B5     		push	{r4, r5, r6, r7, lr}
 498              		.cfi_def_cfa_offset 20
 499              		.cfi_offset 4, -20
 500              		.cfi_offset 5, -16
 501              		.cfi_offset 6, -12
 502              		.cfi_offset 7, -8
 503              		.cfi_offset 14, -4
ARM GAS  C:\Users\Erik\AppData\Local\Temp\ccRdsmWm.s 			page 36


1450:Generated_Source\PSoC4/CapSense_Processing.c ****     uint32 snsCnt;
1451:Generated_Source\PSoC4/CapSense_Processing.c ****     uint32 snsMask;
1452:Generated_Source\PSoC4/CapSense_Processing.c ****     uint32 newStatus;
1453:Generated_Source\PSoC4/CapSense_Processing.c ****     uint32 touchTh;
1454:Generated_Source\PSoC4/CapSense_Processing.c ****     CapSense_RAM_SNS_STRUCT *ptrSnsTmp;
1455:Generated_Source\PSoC4/CapSense_Processing.c ****     CapSense_RAM_WD_BASE_STRUCT *ptrRamWdgt;
1456:Generated_Source\PSoC4/CapSense_Processing.c ****     uint8 * ptrDebounceCnt;
1457:Generated_Source\PSoC4/CapSense_Processing.c **** 
1458:Generated_Source\PSoC4/CapSense_Processing.c ****     snsCnt = ptrFlashWdgt->totalNumSns;
 504              		.loc 1 1458 0
 505 0002 0A8B     		ldrh	r2, [r1, #24]
 506              	.LVL83:
1459:Generated_Source\PSoC4/CapSense_Processing.c ****     ptrSnsTmp = ptrFlashWdgt->ptr2SnsRam;
 507              		.loc 1 1459 0
 508 0004 8D68     		ldr	r5, [r1, #8]
 509              	.LVL84:
1460:Generated_Source\PSoC4/CapSense_Processing.c ****     ptrRamWdgt = (CapSense_RAM_WD_BASE_STRUCT *)ptrFlashWdgt->ptr2WdgtRam;
 510              		.loc 1 1460 0
 511 0006 4F68     		ldr	r7, [r1, #4]
 512              	.LVL85:
1461:Generated_Source\PSoC4/CapSense_Processing.c ****     ptrDebounceCnt = ptrFlashWdgt->ptr2DebounceArr;
 513              		.loc 1 1461 0
 514 0008 0B69     		ldr	r3, [r1, #16]
 515              	.LVL86:
1462:Generated_Source\PSoC4/CapSense_Processing.c **** 
1463:Generated_Source\PSoC4/CapSense_Processing.c ****     /* Go through all widget's sensors */
1464:Generated_Source\PSoC4/CapSense_Processing.c ****     snsMask = 1Lu;
 516              		.loc 1 1464 0
 517 000a 0121     		movs	r1, #1
 518              	.LVL87:
1465:Generated_Source\PSoC4/CapSense_Processing.c ****     for (; snsCnt-- > 0u; )
 519              		.loc 1 1465 0
 520 000c 25E0     		b	.L27
 521              	.LVL88:
 522              	.L35:
1466:Generated_Source\PSoC4/CapSense_Processing.c ****     {
1467:Generated_Source\PSoC4/CapSense_Processing.c ****         /* Calculate touch threshold taking into account hysteresis
1468:Generated_Source\PSoC4/CapSense_Processing.c ****            and current sensor state. */
1469:Generated_Source\PSoC4/CapSense_Processing.c ****         touchTh = (0u == (currStatus & snsMask)) ?
 523              		.loc 1 1469 0
 524 000e 0C00     		movs	r4, r1
 525              	.LVL89:
 526 0010 0440     		ands	r4, r0
1470:Generated_Source\PSoC4/CapSense_Processing.c ****                   ((uint32)ptrRamWdgt->fingerTh + ptrRamWdgt->hysteresis) :
 527              		.loc 1 1470 0
 528 0012 03D1     		bne	.L28
 529              		.loc 1 1470 0 is_stmt 0 discriminator 1
 530 0014 7E88     		ldrh	r6, [r7, #2]
 531 0016 BA79     		ldrb	r2, [r7, #6]
 532 0018 B218     		adds	r2, r6, r2
 533 001a 02E0     		b	.L29
 534              	.L28:
1471:Generated_Source\PSoC4/CapSense_Processing.c ****                   ((uint32)ptrRamWdgt->fingerTh - ptrRamWdgt->hysteresis);
 535              		.loc 1 1471 0 is_stmt 1 discriminator 2
 536 001c 7A88     		ldrh	r2, [r7, #2]
 537 001e BE79     		ldrb	r6, [r7, #6]
1470:Generated_Source\PSoC4/CapSense_Processing.c ****                   ((uint32)ptrRamWdgt->fingerTh + ptrRamWdgt->hysteresis) :
ARM GAS  C:\Users\Erik\AppData\Local\Temp\ccRdsmWm.s 			page 37


 538              		.loc 1 1470 0 discriminator 2
 539 0020 921B     		subs	r2, r2, r6
 540              	.L29:
 541              	.LVL90:
1472:Generated_Source\PSoC4/CapSense_Processing.c **** 
1473:Generated_Source\PSoC4/CapSense_Processing.c ****         /* Determine new potential sensor state */
1474:Generated_Source\PSoC4/CapSense_Processing.c ****         newStatus = (ptrSnsTmp->diff > touchTh) ? snsMask : 0u;
 542              		.loc 1 1474 0
 543 0022 EE88     		ldrh	r6, [r5, #6]
 544 0024 B242     		cmp	r2, r6
 545 0026 01D3     		bcc	.L36
 546 0028 0022     		movs	r2, #0
 547              	.LVL91:
 548 002a 00E0     		b	.L30
 549              	.LVL92:
 550              	.L36:
 551 002c 0A00     		movs	r2, r1
 552              	.LVL93:
 553              	.L30:
1475:Generated_Source\PSoC4/CapSense_Processing.c **** 
1476:Generated_Source\PSoC4/CapSense_Processing.c ****         /* Sensor state changed ? */
1477:Generated_Source\PSoC4/CapSense_Processing.c ****         if (newStatus != (currStatus & snsMask))
 554              		.loc 1 1477 0 discriminator 4
 555 002e A242     		cmp	r2, r4
 556 0030 02D0     		beq	.L31
1478:Generated_Source\PSoC4/CapSense_Processing.c ****         {
1479:Generated_Source\PSoC4/CapSense_Processing.c ****             /* Decrement de-bounce counter */
1480:Generated_Source\PSoC4/CapSense_Processing.c ****             (*ptrDebounceCnt)--;
 557              		.loc 1 1480 0
 558 0032 1E78     		ldrb	r6, [r3]
 559 0034 013E     		subs	r6, r6, #1
 560 0036 1E70     		strb	r6, [r3]
 561              	.L31:
1481:Generated_Source\PSoC4/CapSense_Processing.c ****         }
1482:Generated_Source\PSoC4/CapSense_Processing.c **** 
1483:Generated_Source\PSoC4/CapSense_Processing.c ****         /*
1484:Generated_Source\PSoC4/CapSense_Processing.c ****         *  This piece of code has two objectives:
1485:Generated_Source\PSoC4/CapSense_Processing.c ****         *  1. Reset de-bounce counter if the sensor state did not change.
1486:Generated_Source\PSoC4/CapSense_Processing.c ****         *     (It is possible that during previous processing cycles sensor
1487:Generated_Source\PSoC4/CapSense_Processing.c ****         *     was active and de-bounce counter was decremented.)
1488:Generated_Source\PSoC4/CapSense_Processing.c ****         *  2. Set new sensor state after successful de-bounce.
1489:Generated_Source\PSoC4/CapSense_Processing.c ****         */
1490:Generated_Source\PSoC4/CapSense_Processing.c ****         if ((newStatus == (currStatus & snsMask)) || (0u == (*ptrDebounceCnt)))
 562              		.loc 1 1490 0
 563 0038 A242     		cmp	r2, r4
 564 003a 02D0     		beq	.L32
 565              		.loc 1 1490 0 is_stmt 0 discriminator 1
 566 003c 1C78     		ldrb	r4, [r3]
 567 003e 002C     		cmp	r4, #0
 568 0040 07D1     		bne	.L33
 569              	.L32:
1491:Generated_Source\PSoC4/CapSense_Processing.c ****         {
1492:Generated_Source\PSoC4/CapSense_Processing.c ****             /* Set new sensor status */
1493:Generated_Source\PSoC4/CapSense_Processing.c ****             currStatus &= ~snsMask;
 570              		.loc 1 1493 0 is_stmt 1
 571 0042 8843     		bics	r0, r1
 572              	.LVL94:
ARM GAS  C:\Users\Erik\AppData\Local\Temp\ccRdsmWm.s 			page 38


1494:Generated_Source\PSoC4/CapSense_Processing.c ****             currStatus |= newStatus;
 573              		.loc 1 1494 0
 574 0044 1043     		orrs	r0, r2
 575              	.LVL95:
1495:Generated_Source\PSoC4/CapSense_Processing.c **** 
1496:Generated_Source\PSoC4/CapSense_Processing.c ****             /* Reset de-bounce counter */
1497:Generated_Source\PSoC4/CapSense_Processing.c ****             #if (0u != CapSense_OFF_DEBOUNCE_EN)
1498:Generated_Source\PSoC4/CapSense_Processing.c ****                 *ptrDebounceCnt = (0Lu == newStatus) ? ptrRamWdgt->onDebounce : ptrRamWdgt->offDebo
1499:Generated_Source\PSoC4/CapSense_Processing.c ****             #else
1500:Generated_Source\PSoC4/CapSense_Processing.c ****                 *ptrDebounceCnt = (0Lu == newStatus) ? ptrRamWdgt->onDebounce : DEFAULT_OFF_DEBOUNC
 576              		.loc 1 1500 0
 577 0046 002A     		cmp	r2, #0
 578 0048 01D1     		bne	.L37
 579              		.loc 1 1500 0 is_stmt 0 discriminator 1
 580 004a FA79     		ldrb	r2, [r7, #7]
 581              	.LVL96:
 582 004c 00E0     		b	.L34
 583              	.LVL97:
 584              	.L37:
 585              		.loc 1 1500 0
 586 004e 0122     		movs	r2, #1
 587              	.LVL98:
 588              	.L34:
 589              		.loc 1 1500 0 discriminator 4
 590 0050 1A70     		strb	r2, [r3]
 591              	.L33:
1501:Generated_Source\PSoC4/CapSense_Processing.c ****             #endif /* #if (0u != CapSense_OFF_DEBOUNCE_EN) */
1502:Generated_Source\PSoC4/CapSense_Processing.c ****         }
1503:Generated_Source\PSoC4/CapSense_Processing.c **** 
1504:Generated_Source\PSoC4/CapSense_Processing.c ****         /* Move mask to the next sensor */
1505:Generated_Source\PSoC4/CapSense_Processing.c ****         snsMask <<= 1u;
 592              		.loc 1 1505 0 is_stmt 1
 593 0052 4900     		lsls	r1, r1, #1
 594              	.LVL99:
1506:Generated_Source\PSoC4/CapSense_Processing.c **** 
1507:Generated_Source\PSoC4/CapSense_Processing.c ****         ptrSnsTmp++;
 595              		.loc 1 1507 0
 596 0054 0A35     		adds	r5, r5, #10
 597              	.LVL100:
1508:Generated_Source\PSoC4/CapSense_Processing.c ****         ptrDebounceCnt++;
 598              		.loc 1 1508 0
 599 0056 0133     		adds	r3, r3, #1
 600              	.LVL101:
1465:Generated_Source\PSoC4/CapSense_Processing.c ****     {
 601              		.loc 1 1465 0
 602 0058 6246     		mov	r2, ip
 603              	.LVL102:
 604              	.L27:
 605 005a 541E     		subs	r4, r2, #1
 606 005c A446     		mov	ip, r4
 607              	.LVL103:
 608 005e 002A     		cmp	r2, #0
 609 0060 D5D1     		bne	.L35
1509:Generated_Source\PSoC4/CapSense_Processing.c ****     }
1510:Generated_Source\PSoC4/CapSense_Processing.c **** 
1511:Generated_Source\PSoC4/CapSense_Processing.c ****     return currStatus;
1512:Generated_Source\PSoC4/CapSense_Processing.c **** }
ARM GAS  C:\Users\Erik\AppData\Local\Temp\ccRdsmWm.s 			page 39


 610              		.loc 1 1512 0
 611              		@ sp needed
 612              	.LVL104:
 613              	.LVL105:
 614              	.LVL106:
 615 0062 F0BD     		pop	{r4, r5, r6, r7, pc}
 616              		.cfi_endproc
 617              	.LFE7:
 618              		.size	CapSense_DpProcessButton, .-CapSense_DpProcessButton
 619              		.section	.text.CapSense_DpProcessCsdWidgetStatus,"ax",%progbits
 620              		.align	2
 621              		.global	CapSense_DpProcessCsdWidgetStatus
 622              		.code	16
 623              		.thumb_func
 624              		.type	CapSense_DpProcessCsdWidgetStatus, %function
 625              	CapSense_DpProcessCsdWidgetStatus:
 626              	.LFB4:
1247:Generated_Source\PSoC4/CapSense_Processing.c ****     uint32 sensorStatus;
 627              		.loc 1 1247 0
 628              		.cfi_startproc
 629              		@ args = 0, pretend = 0, frame = 0
 630              		@ frame_needed = 0, uses_anonymous_args = 0
 631              	.LVL107:
 632 0000 70B5     		push	{r4, r5, r6, lr}
 633              		.cfi_def_cfa_offset 16
 634              		.cfi_offset 4, -16
 635              		.cfi_offset 5, -12
 636              		.cfi_offset 6, -8
 637              		.cfi_offset 14, -4
 638 0002 0400     		movs	r4, r0
1253:Generated_Source\PSoC4/CapSense_Processing.c ****     sensorStatus = CapSense_dsRam.snsStatus[widgetId];
 639              		.loc 1 1253 0
 640 0004 8A7E     		ldrb	r2, [r1, #26]
 641              	.LVL108:
1254:Generated_Source\PSoC4/CapSense_Processing.c **** 
 642              		.loc 1 1254 0
 643 0006 831D     		adds	r3, r0, #6
 644 0008 9B00     		lsls	r3, r3, #2
 645 000a 1348     		ldr	r0, .L45
 646              	.LVL109:
 647 000c 1D58     		ldr	r5, [r3, r0]
 648              	.LVL110:
1256:Generated_Source\PSoC4/CapSense_Processing.c ****     {
 649              		.loc 1 1256 0
 650 000e 012A     		cmp	r2, #1
 651 0010 04D1     		bne	.L44
1260:Generated_Source\PSoC4/CapSense_Processing.c ****             break;
 652              		.loc 1 1260 0
 653 0012 2800     		movs	r0, r5
 654 0014 FFF7FEFF 		bl	CapSense_DpProcessButton
 655              	.LVL111:
 656 0018 0500     		movs	r5, r0
 657              	.LVL112:
1261:Generated_Source\PSoC4/CapSense_Processing.c ****     #endif /* #if (0u != CapSense_BUTTON_WIDGET_EN) */
 658              		.loc 1 1261 0
 659 001a 02E0     		b	.L41
 660              	.LVL113:
ARM GAS  C:\Users\Erik\AppData\Local\Temp\ccRdsmWm.s 			page 40


 661              	.L44:
1293:Generated_Source\PSoC4/CapSense_Processing.c ****         break;
 662              		.loc 1 1293 0 discriminator 1
 663 001c 0020     		movs	r0, #0
 664 001e FFF7FEFF 		bl	CyHalt
 665              	.LVL114:
 666              	.L41:
1297:Generated_Source\PSoC4/CapSense_Processing.c **** 
 667              		.loc 1 1297 0
 668 0022 A31D     		adds	r3, r4, #6
 669 0024 9B00     		lsls	r3, r3, #2
 670 0026 0C4A     		ldr	r2, .L45
 671 0028 9D50     		str	r5, [r3, r2]
1300:Generated_Source\PSoC4/CapSense_Processing.c ****     wdStatusMask = CapSense_GET_WDGT_STATUS_MASK(widgetId);
 672              		.loc 1 1300 0
 673 002a 6309     		lsrs	r3, r4, #5
 674              	.LVL115:
1301:Generated_Source\PSoC4/CapSense_Processing.c **** 
 675              		.loc 1 1301 0
 676 002c 1F22     		movs	r2, #31
 677 002e 1440     		ands	r4, r2
 678              	.LVL116:
 679 0030 1E3A     		subs	r2, r2, #30
 680 0032 A240     		lsls	r2, r2, r4
 681              	.LVL117:
1304:Generated_Source\PSoC4/CapSense_Processing.c ****     {
 682              		.loc 1 1304 0
 683 0034 002D     		cmp	r5, #0
 684 0036 07D1     		bne	.L42
1306:Generated_Source\PSoC4/CapSense_Processing.c ****     }
 685              		.loc 1 1306 0
 686 0038 0433     		adds	r3, r3, #4
 687              	.LVL118:
 688 003a 9B00     		lsls	r3, r3, #2
 689              	.LVL119:
 690 003c 0649     		ldr	r1, .L45
 691 003e CB18     		adds	r3, r1, r3
 692 0040 5968     		ldr	r1, [r3, #4]
 693 0042 9143     		bics	r1, r2
 694 0044 5960     		str	r1, [r3, #4]
 695 0046 06E0     		b	.L38
 696              	.LVL120:
 697              	.L42:
1310:Generated_Source\PSoC4/CapSense_Processing.c ****     }
 698              		.loc 1 1310 0
 699 0048 0433     		adds	r3, r3, #4
 700              	.LVL121:
 701 004a 9B00     		lsls	r3, r3, #2
 702              	.LVL122:
 703 004c 0249     		ldr	r1, .L45
 704 004e CB18     		adds	r3, r1, r3
 705 0050 5968     		ldr	r1, [r3, #4]
 706 0052 0A43     		orrs	r2, r1
 707              	.LVL123:
 708 0054 5A60     		str	r2, [r3, #4]
 709              	.L38:
1312:Generated_Source\PSoC4/CapSense_Processing.c **** #endif /* #if (0u != CapSense_TOTAL_CSD_WIDGETS) */
ARM GAS  C:\Users\Erik\AppData\Local\Temp\ccRdsmWm.s 			page 41


 710              		.loc 1 1312 0
 711              		@ sp needed
 712              	.LVL124:
 713              	.LVL125:
 714 0056 70BD     		pop	{r4, r5, r6, pc}
 715              	.L46:
 716              		.align	2
 717              	.L45:
 718 0058 00000000 		.word	CapSense_dsRam
 719              		.cfi_endproc
 720              	.LFE4:
 721              		.size	CapSense_DpProcessCsdWidgetStatus, .-CapSense_DpProcessCsdWidgetStatus
 722              		.text
 723              	.Letext0:
 724              		.file 2 "Generated_Source\\PSoC4\\cytypes.h"
 725              		.file 3 "c:\\program files (x86)\\cypress\\psoc creator\\4.3\\psoc creator\\import\\gnu\\arm\\5.4.
 726              		.file 4 "Generated_Source\\PSoC4\\CapSense_Configuration.h"
 727              		.file 5 "Generated_Source\\PSoC4\\CapSense_SmartSense_LL.h"
 728              		.file 6 "Generated_Source\\PSoC4\\CapSense_Structure.h"
 729              		.file 7 "c:\\program files (x86)\\cypress\\psoc creator\\4.3\\psoc creator\\import\\gnu\\arm\\5.4.
 730              		.file 8 "Generated_Source\\PSoC4\\CapSense_Filter.h"
 731              		.file 9 "Generated_Source\\PSoC4\\CyLib.h"
 732              		.section	.debug_info,"",%progbits
 733              	.Ldebug_info0:
 734 0000 060C0000 		.4byte	0xc06
 735 0004 0400     		.2byte	0x4
 736 0006 00000000 		.4byte	.Ldebug_abbrev0
 737 000a 04       		.byte	0x4
 738 000b 01       		.uleb128 0x1
 739 000c DA020000 		.4byte	.LASF142
 740 0010 0C       		.byte	0xc
 741 0011 8A040000 		.4byte	.LASF143
 742 0015 72010000 		.4byte	.LASF144
 743 0019 00000000 		.4byte	.Ldebug_ranges0+0
 744 001d 00000000 		.4byte	0
 745 0021 00000000 		.4byte	.Ldebug_line0
 746 0025 02       		.uleb128 0x2
 747 0026 01       		.byte	0x1
 748 0027 06       		.byte	0x6
 749 0028 60080000 		.4byte	.LASF0
 750 002c 02       		.uleb128 0x2
 751 002d 01       		.byte	0x1
 752 002e 08       		.byte	0x8
 753 002f D0070000 		.4byte	.LASF1
 754 0033 02       		.uleb128 0x2
 755 0034 02       		.byte	0x2
 756 0035 05       		.byte	0x5
 757 0036 7E060000 		.4byte	.LASF2
 758 003a 02       		.uleb128 0x2
 759 003b 02       		.byte	0x2
 760 003c 07       		.byte	0x7
 761 003d 71080000 		.4byte	.LASF3
 762 0041 02       		.uleb128 0x2
 763 0042 04       		.byte	0x4
 764 0043 05       		.byte	0x5
 765 0044 B9060000 		.4byte	.LASF4
 766 0048 02       		.uleb128 0x2
ARM GAS  C:\Users\Erik\AppData\Local\Temp\ccRdsmWm.s 			page 42


 767 0049 04       		.byte	0x4
 768 004a 07       		.byte	0x7
 769 004b 77070000 		.4byte	.LASF5
 770 004f 02       		.uleb128 0x2
 771 0050 08       		.byte	0x8
 772 0051 05       		.byte	0x5
 773 0052 FB040000 		.4byte	.LASF6
 774 0056 02       		.uleb128 0x2
 775 0057 08       		.byte	0x8
 776 0058 07       		.byte	0x7
 777 0059 33020000 		.4byte	.LASF7
 778 005d 03       		.uleb128 0x3
 779 005e 04       		.byte	0x4
 780 005f 05       		.byte	0x5
 781 0060 696E7400 		.ascii	"int\000"
 782 0064 02       		.uleb128 0x2
 783 0065 04       		.byte	0x4
 784 0066 07       		.byte	0x7
 785 0067 D6000000 		.4byte	.LASF8
 786 006b 04       		.uleb128 0x4
 787 006c 91080000 		.4byte	.LASF9
 788 0070 02       		.byte	0x2
 789 0071 F701     		.2byte	0x1f7
 790 0073 2C000000 		.4byte	0x2c
 791 0077 04       		.uleb128 0x4
 792 0078 71040000 		.4byte	.LASF10
 793 007c 02       		.byte	0x2
 794 007d F801     		.2byte	0x1f8
 795 007f 3A000000 		.4byte	0x3a
 796 0083 04       		.uleb128 0x4
 797 0084 BE050000 		.4byte	.LASF11
 798 0088 02       		.byte	0x2
 799 0089 F901     		.2byte	0x1f9
 800 008b 48000000 		.4byte	0x48
 801 008f 04       		.uleb128 0x4
 802 0090 EE010000 		.4byte	.LASF12
 803 0094 02       		.byte	0x2
 804 0095 FC01     		.2byte	0x1fc
 805 0097 41000000 		.4byte	0x41
 806 009b 02       		.uleb128 0x2
 807 009c 04       		.byte	0x4
 808 009d 04       		.byte	0x4
 809 009e E8010000 		.4byte	.LASF13
 810 00a2 02       		.uleb128 0x2
 811 00a3 08       		.byte	0x8
 812 00a4 04       		.byte	0x4
 813 00a5 97080000 		.4byte	.LASF14
 814 00a9 02       		.uleb128 0x2
 815 00aa 01       		.byte	0x1
 816 00ab 08       		.byte	0x8
 817 00ac 2B040000 		.4byte	.LASF15
 818 00b0 05       		.uleb128 0x5
 819 00b1 83000000 		.4byte	0x83
 820 00b5 06       		.uleb128 0x6
 821 00b6 99030000 		.4byte	.LASF16
 822 00ba 03       		.byte	0x3
 823 00bb D8       		.byte	0xd8
ARM GAS  C:\Users\Erik\AppData\Local\Temp\ccRdsmWm.s 			page 43


 824 00bc 64000000 		.4byte	0x64
 825 00c0 02       		.uleb128 0x2
 826 00c1 08       		.byte	0x8
 827 00c2 04       		.byte	0x4
 828 00c3 07060000 		.4byte	.LASF17
 829 00c7 02       		.uleb128 0x2
 830 00c8 04       		.byte	0x4
 831 00c9 07       		.byte	0x7
 832 00ca 6E070000 		.4byte	.LASF18
 833 00ce 07       		.uleb128 0x7
 834 00cf 04       		.byte	0x4
 835 00d0 04       		.uleb128 0x4
 836 00d1 2B080000 		.4byte	.LASF19
 837 00d5 04       		.byte	0x4
 838 00d6 3D01     		.2byte	0x13d
 839 00d8 77000000 		.4byte	0x77
 840 00dc 04       		.uleb128 0x4
 841 00dd B7040000 		.4byte	.LASF20
 842 00e1 04       		.byte	0x4
 843 00e2 4101     		.2byte	0x141
 844 00e4 6B000000 		.4byte	0x6b
 845 00e8 08       		.uleb128 0x8
 846 00e9 0C       		.byte	0xc
 847 00ea 05       		.byte	0x5
 848 00eb 75       		.byte	0x75
 849 00ec 45010000 		.4byte	0x145
 850 00f0 09       		.uleb128 0x9
 851 00f1 B7080000 		.4byte	.LASF21
 852 00f5 05       		.byte	0x5
 853 00f6 7A       		.byte	0x7a
 854 00f7 77000000 		.4byte	0x77
 855 00fb 00       		.byte	0
 856 00fc 09       		.uleb128 0x9
 857 00fd BE080000 		.4byte	.LASF22
 858 0101 05       		.byte	0x5
 859 0102 7E       		.byte	0x7e
 860 0103 77000000 		.4byte	0x77
 861 0107 02       		.byte	0x2
 862 0108 09       		.uleb128 0x9
 863 0109 C5080000 		.4byte	.LASF23
 864 010d 05       		.byte	0x5
 865 010e 82       		.byte	0x82
 866 010f 77000000 		.4byte	0x77
 867 0113 04       		.byte	0x4
 868 0114 09       		.uleb128 0x9
 869 0115 CC080000 		.4byte	.LASF24
 870 0119 05       		.byte	0x5
 871 011a 86       		.byte	0x86
 872 011b 77000000 		.4byte	0x77
 873 011f 06       		.byte	0x6
 874 0120 09       		.uleb128 0x9
 875 0121 D3080000 		.4byte	.LASF25
 876 0125 05       		.byte	0x5
 877 0126 8A       		.byte	0x8a
 878 0127 77000000 		.4byte	0x77
 879 012b 08       		.byte	0x8
 880 012c 09       		.uleb128 0x9
ARM GAS  C:\Users\Erik\AppData\Local\Temp\ccRdsmWm.s 			page 44


 881 012d DA080000 		.4byte	.LASF26
 882 0131 05       		.byte	0x5
 883 0132 8E       		.byte	0x8e
 884 0133 6B000000 		.4byte	0x6b
 885 0137 0A       		.byte	0xa
 886 0138 09       		.uleb128 0x9
 887 0139 E1080000 		.4byte	.LASF27
 888 013d 05       		.byte	0x5
 889 013e 92       		.byte	0x92
 890 013f 6B000000 		.4byte	0x6b
 891 0143 0B       		.byte	0xb
 892 0144 00       		.byte	0
 893 0145 06       		.uleb128 0x6
 894 0146 FE030000 		.4byte	.LASF28
 895 014a 05       		.byte	0x5
 896 014b 93       		.byte	0x93
 897 014c E8000000 		.4byte	0xe8
 898 0150 08       		.uleb128 0x8
 899 0151 06       		.byte	0x6
 900 0152 05       		.byte	0x5
 901 0153 9B       		.byte	0x9b
 902 0154 89010000 		.4byte	0x189
 903 0158 09       		.uleb128 0x9
 904 0159 A1070000 		.4byte	.LASF29
 905 015d 05       		.byte	0x5
 906 015e A0       		.byte	0xa0
 907 015f 77000000 		.4byte	0x77
 908 0163 00       		.byte	0
 909 0164 09       		.uleb128 0x9
 910 0165 23040000 		.4byte	.LASF30
 911 0169 05       		.byte	0x5
 912 016a A5       		.byte	0xa5
 913 016b 6B000000 		.4byte	0x6b
 914 016f 02       		.byte	0x2
 915 0170 09       		.uleb128 0x9
 916 0171 6B050000 		.4byte	.LASF31
 917 0175 05       		.byte	0x5
 918 0176 AA       		.byte	0xaa
 919 0177 6B000000 		.4byte	0x6b
 920 017b 03       		.byte	0x3
 921 017c 09       		.uleb128 0x9
 922 017d A7030000 		.4byte	.LASF32
 923 0181 05       		.byte	0x5
 924 0182 AF       		.byte	0xaf
 925 0183 6B000000 		.4byte	0x6b
 926 0187 04       		.byte	0x4
 927 0188 00       		.byte	0
 928 0189 06       		.uleb128 0x6
 929 018a C2060000 		.4byte	.LASF33
 930 018e 05       		.byte	0x5
 931 018f B0       		.byte	0xb0
 932 0190 50010000 		.4byte	0x150
 933 0194 0A       		.uleb128 0xa
 934 0195 01       		.byte	0x1
 935 0196 2C000000 		.4byte	0x2c
 936 019a 06       		.byte	0x6
 937 019b 61       		.byte	0x61
ARM GAS  C:\Users\Erik\AppData\Local\Temp\ccRdsmWm.s 			page 45


 938 019c CB010000 		.4byte	0x1cb
 939 01a0 0B       		.uleb128 0xb
 940 01a1 05070000 		.4byte	.LASF34
 941 01a5 01       		.byte	0x1
 942 01a6 0B       		.uleb128 0xb
 943 01a7 DD050000 		.4byte	.LASF35
 944 01ab 02       		.byte	0x2
 945 01ac 0B       		.uleb128 0xb
 946 01ad B2030000 		.4byte	.LASF36
 947 01b1 03       		.byte	0x3
 948 01b2 0B       		.uleb128 0xb
 949 01b3 4A020000 		.4byte	.LASF37
 950 01b7 04       		.byte	0x4
 951 01b8 0B       		.uleb128 0xb
 952 01b9 3F010000 		.4byte	.LASF38
 953 01bd 05       		.byte	0x5
 954 01be 0B       		.uleb128 0xb
 955 01bf 11000000 		.4byte	.LASF39
 956 01c3 06       		.byte	0x6
 957 01c4 0B       		.uleb128 0xb
 958 01c5 57060000 		.4byte	.LASF40
 959 01c9 07       		.byte	0x7
 960 01ca 00       		.byte	0
 961 01cb 06       		.uleb128 0x6
 962 01cc 9B050000 		.4byte	.LASF41
 963 01d0 06       		.byte	0x6
 964 01d1 69       		.byte	0x69
 965 01d2 94010000 		.4byte	0x194
 966 01d6 08       		.uleb128 0x8
 967 01d7 14       		.byte	0x14
 968 01d8 06       		.byte	0x6
 969 01d9 AD       		.byte	0xad
 970 01da 7B020000 		.4byte	0x27b
 971 01de 09       		.uleb128 0x9
 972 01df 78040000 		.4byte	.LASF42
 973 01e3 06       		.byte	0x6
 974 01e4 B2       		.byte	0xb2
 975 01e5 77000000 		.4byte	0x77
 976 01e9 00       		.byte	0
 977 01ea 09       		.uleb128 0x9
 978 01eb A1070000 		.4byte	.LASF29
 979 01ef 06       		.byte	0x6
 980 01f0 B7       		.byte	0xb7
 981 01f1 D0000000 		.4byte	0xd0
 982 01f5 02       		.byte	0x2
 983 01f6 09       		.uleb128 0x9
 984 01f7 23040000 		.4byte	.LASF30
 985 01fb 06       		.byte	0x6
 986 01fc BC       		.byte	0xbc
 987 01fd 6B000000 		.4byte	0x6b
 988 0201 04       		.byte	0x4
 989 0202 09       		.uleb128 0x9
 990 0203 6B050000 		.4byte	.LASF31
 991 0207 06       		.byte	0x6
 992 0208 C1       		.byte	0xc1
 993 0209 6B000000 		.4byte	0x6b
 994 020d 05       		.byte	0x5
ARM GAS  C:\Users\Erik\AppData\Local\Temp\ccRdsmWm.s 			page 46


 995 020e 09       		.uleb128 0x9
 996 020f A7030000 		.4byte	.LASF32
 997 0213 06       		.byte	0x6
 998 0214 C7       		.byte	0xc7
 999 0215 6B000000 		.4byte	0x6b
 1000 0219 06       		.byte	0x6
 1001 021a 09       		.uleb128 0x9
 1002 021b 11050000 		.4byte	.LASF43
 1003 021f 06       		.byte	0x6
 1004 0220 CD       		.byte	0xcd
 1005 0221 6B000000 		.4byte	0x6b
 1006 0225 07       		.byte	0x7
 1007 0226 09       		.uleb128 0x9
 1008 0227 E7030000 		.4byte	.LASF44
 1009 022b 06       		.byte	0x6
 1010 022c D4       		.byte	0xd4
 1011 022d DC000000 		.4byte	0xdc
 1012 0231 08       		.byte	0x8
 1013 0232 09       		.uleb128 0x9
 1014 0233 89070000 		.4byte	.LASF45
 1015 0237 06       		.byte	0x6
 1016 0238 DB       		.byte	0xdb
 1017 0239 7B020000 		.4byte	0x27b
 1018 023d 09       		.byte	0x9
 1019 023e 09       		.uleb128 0x9
 1020 023f D0010000 		.4byte	.LASF46
 1021 0243 06       		.byte	0x6
 1022 0244 E0       		.byte	0xe0
 1023 0245 6B000000 		.4byte	0x6b
 1024 0249 0A       		.byte	0xa
 1025 024a 09       		.uleb128 0x9
 1026 024b 59080000 		.4byte	.LASF47
 1027 024f 06       		.byte	0x6
 1028 0250 E8       		.byte	0xe8
 1029 0251 77000000 		.4byte	0x77
 1030 0255 0C       		.byte	0xc
 1031 0256 09       		.uleb128 0x9
 1032 0257 71060000 		.4byte	.LASF48
 1033 025b 06       		.byte	0x6
 1034 025c ED       		.byte	0xed
 1035 025d 6B000000 		.4byte	0x6b
 1036 0261 0E       		.byte	0xe
 1037 0262 09       		.uleb128 0x9
 1038 0263 59070000 		.4byte	.LASF49
 1039 0267 06       		.byte	0x6
 1040 0268 F3       		.byte	0xf3
 1041 0269 77000000 		.4byte	0x77
 1042 026d 10       		.byte	0x10
 1043 026e 09       		.uleb128 0x9
 1044 026f A0030000 		.4byte	.LASF50
 1045 0273 06       		.byte	0x6
 1046 0274 F8       		.byte	0xf8
 1047 0275 77000000 		.4byte	0x77
 1048 0279 12       		.byte	0x12
 1049 027a 00       		.byte	0
 1050 027b 0C       		.uleb128 0xc
 1051 027c 6B000000 		.4byte	0x6b
ARM GAS  C:\Users\Erik\AppData\Local\Temp\ccRdsmWm.s 			page 47


 1052 0280 8B020000 		.4byte	0x28b
 1053 0284 0D       		.uleb128 0xd
 1054 0285 C7000000 		.4byte	0xc7
 1055 0289 00       		.byte	0
 1056 028a 00       		.byte	0
 1057 028b 06       		.uleb128 0x6
 1058 028c 7F050000 		.4byte	.LASF51
 1059 0290 06       		.byte	0x6
 1060 0291 F9       		.byte	0xf9
 1061 0292 D6010000 		.4byte	0x1d6
 1062 0296 08       		.uleb128 0x8
 1063 0297 14       		.byte	0x14
 1064 0298 06       		.byte	0x6
 1065 0299 FE       		.byte	0xfe
 1066 029a 48030000 		.4byte	0x348
 1067 029e 0E       		.uleb128 0xe
 1068 029f 78040000 		.4byte	.LASF42
 1069 02a3 06       		.byte	0x6
 1070 02a4 0301     		.2byte	0x103
 1071 02a6 77000000 		.4byte	0x77
 1072 02aa 00       		.byte	0
 1073 02ab 0E       		.uleb128 0xe
 1074 02ac A1070000 		.4byte	.LASF29
 1075 02b0 06       		.byte	0x6
 1076 02b1 0801     		.2byte	0x108
 1077 02b3 D0000000 		.4byte	0xd0
 1078 02b7 02       		.byte	0x2
 1079 02b8 0E       		.uleb128 0xe
 1080 02b9 23040000 		.4byte	.LASF30
 1081 02bd 06       		.byte	0x6
 1082 02be 0D01     		.2byte	0x10d
 1083 02c0 6B000000 		.4byte	0x6b
 1084 02c4 04       		.byte	0x4
 1085 02c5 0E       		.uleb128 0xe
 1086 02c6 6B050000 		.4byte	.LASF31
 1087 02ca 06       		.byte	0x6
 1088 02cb 1201     		.2byte	0x112
 1089 02cd 6B000000 		.4byte	0x6b
 1090 02d1 05       		.byte	0x5
 1091 02d2 0E       		.uleb128 0xe
 1092 02d3 A7030000 		.4byte	.LASF32
 1093 02d7 06       		.byte	0x6
 1094 02d8 1801     		.2byte	0x118
 1095 02da 6B000000 		.4byte	0x6b
 1096 02de 06       		.byte	0x6
 1097 02df 0E       		.uleb128 0xe
 1098 02e0 11050000 		.4byte	.LASF43
 1099 02e4 06       		.byte	0x6
 1100 02e5 1E01     		.2byte	0x11e
 1101 02e7 6B000000 		.4byte	0x6b
 1102 02eb 07       		.byte	0x7
 1103 02ec 0E       		.uleb128 0xe
 1104 02ed E7030000 		.4byte	.LASF44
 1105 02f1 06       		.byte	0x6
 1106 02f2 2501     		.2byte	0x125
 1107 02f4 DC000000 		.4byte	0xdc
 1108 02f8 08       		.byte	0x8
ARM GAS  C:\Users\Erik\AppData\Local\Temp\ccRdsmWm.s 			page 48


 1109 02f9 0E       		.uleb128 0xe
 1110 02fa 89070000 		.4byte	.LASF45
 1111 02fe 06       		.byte	0x6
 1112 02ff 2C01     		.2byte	0x12c
 1113 0301 7B020000 		.4byte	0x27b
 1114 0305 09       		.byte	0x9
 1115 0306 0E       		.uleb128 0xe
 1116 0307 D0010000 		.4byte	.LASF46
 1117 030b 06       		.byte	0x6
 1118 030c 3101     		.2byte	0x131
 1119 030e 6B000000 		.4byte	0x6b
 1120 0312 0A       		.byte	0xa
 1121 0313 0E       		.uleb128 0xe
 1122 0314 59080000 		.4byte	.LASF47
 1123 0318 06       		.byte	0x6
 1124 0319 3901     		.2byte	0x139
 1125 031b 77000000 		.4byte	0x77
 1126 031f 0C       		.byte	0xc
 1127 0320 0E       		.uleb128 0xe
 1128 0321 71060000 		.4byte	.LASF48
 1129 0325 06       		.byte	0x6
 1130 0326 3E01     		.2byte	0x13e
 1131 0328 6B000000 		.4byte	0x6b
 1132 032c 0E       		.byte	0xe
 1133 032d 0E       		.uleb128 0xe
 1134 032e 59070000 		.4byte	.LASF49
 1135 0332 06       		.byte	0x6
 1136 0333 4401     		.2byte	0x144
 1137 0335 77000000 		.4byte	0x77
 1138 0339 10       		.byte	0x10
 1139 033a 0E       		.uleb128 0xe
 1140 033b A0030000 		.4byte	.LASF50
 1141 033f 06       		.byte	0x6
 1142 0340 4901     		.2byte	0x149
 1143 0342 77000000 		.4byte	0x77
 1144 0346 12       		.byte	0x12
 1145 0347 00       		.byte	0
 1146 0348 04       		.uleb128 0x4
 1147 0349 B2070000 		.4byte	.LASF52
 1148 034d 06       		.byte	0x6
 1149 034e 4A01     		.2byte	0x14a
 1150 0350 96020000 		.4byte	0x296
 1151 0354 0F       		.uleb128 0xf
 1152 0355 14       		.byte	0x14
 1153 0356 06       		.byte	0x6
 1154 0357 5001     		.2byte	0x150
 1155 0359 6B030000 		.4byte	0x36b
 1156 035d 0E       		.uleb128 0xe
 1157 035e D2040000 		.4byte	.LASF53
 1158 0362 06       		.byte	0x6
 1159 0363 5501     		.2byte	0x155
 1160 0365 48030000 		.4byte	0x348
 1161 0369 00       		.byte	0
 1162 036a 00       		.byte	0
 1163 036b 04       		.uleb128 0x4
 1164 036c 56010000 		.4byte	.LASF54
 1165 0370 06       		.byte	0x6
ARM GAS  C:\Users\Erik\AppData\Local\Temp\ccRdsmWm.s 			page 49


 1166 0371 5601     		.2byte	0x156
 1167 0373 54030000 		.4byte	0x354
 1168 0377 0F       		.uleb128 0xf
 1169 0378 0A       		.byte	0xa
 1170 0379 06       		.byte	0x6
 1171 037a 5C01     		.2byte	0x15c
 1172 037c CF030000 		.4byte	0x3cf
 1173 0380 10       		.uleb128 0x10
 1174 0381 72617700 		.ascii	"raw\000"
 1175 0385 06       		.byte	0x6
 1176 0386 6101     		.2byte	0x161
 1177 0388 CF030000 		.4byte	0x3cf
 1178 038c 00       		.byte	0
 1179 038d 0E       		.uleb128 0xe
 1180 038e 6C080000 		.4byte	.LASF55
 1181 0392 06       		.byte	0x6
 1182 0393 6601     		.2byte	0x166
 1183 0395 CF030000 		.4byte	0x3cf
 1184 0399 02       		.byte	0x2
 1185 039a 0E       		.uleb128 0xe
 1186 039b AA070000 		.4byte	.LASF56
 1187 039f 06       		.byte	0x6
 1188 03a0 6C01     		.2byte	0x16c
 1189 03a2 7B020000 		.4byte	0x27b
 1190 03a6 04       		.byte	0x4
 1191 03a7 0E       		.uleb128 0xe
 1192 03a8 F1060000 		.4byte	.LASF57
 1193 03ac 06       		.byte	0x6
 1194 03ad 7101     		.2byte	0x171
 1195 03af D0000000 		.4byte	0xd0
 1196 03b3 06       		.byte	0x6
 1197 03b4 0E       		.uleb128 0xe
 1198 03b5 9E080000 		.4byte	.LASF58
 1199 03b9 06       		.byte	0x6
 1200 03ba 7601     		.2byte	0x176
 1201 03bc DF030000 		.4byte	0x3df
 1202 03c0 08       		.byte	0x8
 1203 03c1 0E       		.uleb128 0xe
 1204 03c2 F2040000 		.4byte	.LASF59
 1205 03c6 06       		.byte	0x6
 1206 03c7 7B01     		.2byte	0x17b
 1207 03c9 7B020000 		.4byte	0x27b
 1208 03cd 09       		.byte	0x9
 1209 03ce 00       		.byte	0
 1210 03cf 0C       		.uleb128 0xc
 1211 03d0 77000000 		.4byte	0x77
 1212 03d4 DF030000 		.4byte	0x3df
 1213 03d8 0D       		.uleb128 0xd
 1214 03d9 C7000000 		.4byte	0xc7
 1215 03dd 00       		.byte	0
 1216 03de 00       		.byte	0
 1217 03df 0C       		.uleb128 0xc
 1218 03e0 DC000000 		.4byte	0xdc
 1219 03e4 EF030000 		.4byte	0x3ef
 1220 03e8 0D       		.uleb128 0xd
 1221 03e9 C7000000 		.4byte	0xc7
 1222 03ed 00       		.byte	0
ARM GAS  C:\Users\Erik\AppData\Local\Temp\ccRdsmWm.s 			page 50


 1223 03ee 00       		.byte	0
 1224 03ef 04       		.uleb128 0x4
 1225 03f0 81030000 		.4byte	.LASF60
 1226 03f4 06       		.byte	0x6
 1227 03f5 7C01     		.2byte	0x17c
 1228 03f7 77030000 		.4byte	0x377
 1229 03fb 11       		.uleb128 0x11
 1230 03fc 4001     		.2byte	0x140
 1231 03fe 06       		.byte	0x6
 1232 03ff 8201     		.2byte	0x182
 1233 0401 13040000 		.4byte	0x413
 1234 0405 0E       		.uleb128 0xe
 1235 0406 D2040000 		.4byte	.LASF53
 1236 040a 06       		.byte	0x6
 1237 040b 8701     		.2byte	0x187
 1238 040d 13040000 		.4byte	0x413
 1239 0411 00       		.byte	0
 1240 0412 00       		.byte	0
 1241 0413 0C       		.uleb128 0xc
 1242 0414 EF030000 		.4byte	0x3ef
 1243 0418 23040000 		.4byte	0x423
 1244 041c 0D       		.uleb128 0xd
 1245 041d C7000000 		.4byte	0xc7
 1246 0421 1F       		.byte	0x1f
 1247 0422 00       		.byte	0
 1248 0423 04       		.uleb128 0x4
 1249 0424 FA080000 		.4byte	.LASF61
 1250 0428 06       		.byte	0x6
 1251 0429 8801     		.2byte	0x188
 1252 042b FB030000 		.4byte	0x3fb
 1253 042f 11       		.uleb128 0x11
 1254 0430 7C01     		.2byte	0x17c
 1255 0432 06       		.byte	0x6
 1256 0433 8E01     		.2byte	0x18e
 1257 0435 37050000 		.4byte	0x537
 1258 0439 0E       		.uleb128 0xe
 1259 043a 39060000 		.4byte	.LASF62
 1260 043e 06       		.byte	0x6
 1261 043f 9501     		.2byte	0x195
 1262 0441 77000000 		.4byte	0x77
 1263 0445 00       		.byte	0
 1264 0446 0E       		.uleb128 0xe
 1265 0447 E8080000 		.4byte	.LASF63
 1266 044b 06       		.byte	0x6
 1267 044c 9A01     		.2byte	0x19a
 1268 044e 77000000 		.4byte	0x77
 1269 0452 02       		.byte	0x2
 1270 0453 0E       		.uleb128 0xe
 1271 0454 0C010000 		.4byte	.LASF64
 1272 0458 06       		.byte	0x6
 1273 0459 9F01     		.2byte	0x19f
 1274 045b 77000000 		.4byte	0x77
 1275 045f 04       		.byte	0x4
 1276 0460 0E       		.uleb128 0xe
 1277 0461 F6060000 		.4byte	.LASF65
 1278 0465 06       		.byte	0x6
 1279 0466 A501     		.2byte	0x1a5
ARM GAS  C:\Users\Erik\AppData\Local\Temp\ccRdsmWm.s 			page 51


 1280 0468 77000000 		.4byte	0x77
 1281 046c 06       		.byte	0x6
 1282 046d 0E       		.uleb128 0xe
 1283 046e E3000000 		.4byte	.LASF66
 1284 0472 06       		.byte	0x6
 1285 0473 AA01     		.2byte	0x1aa
 1286 0475 77000000 		.4byte	0x77
 1287 0479 08       		.byte	0x8
 1288 047a 0E       		.uleb128 0xe
 1289 047b 83040000 		.4byte	.LASF67
 1290 047f 06       		.byte	0x6
 1291 0480 AF01     		.2byte	0x1af
 1292 0482 B0000000 		.4byte	0xb0
 1293 0486 0C       		.byte	0xc
 1294 0487 0E       		.uleb128 0xe
 1295 0488 E6060000 		.4byte	.LASF68
 1296 048c 06       		.byte	0x6
 1297 048d B501     		.2byte	0x1b5
 1298 048f 37050000 		.4byte	0x537
 1299 0493 10       		.byte	0x10
 1300 0494 0E       		.uleb128 0xe
 1301 0495 63070000 		.4byte	.LASF69
 1302 0499 06       		.byte	0x6
 1303 049a BC01     		.2byte	0x1bc
 1304 049c 37050000 		.4byte	0x537
 1305 04a0 14       		.byte	0x14
 1306 04a1 0E       		.uleb128 0xe
 1307 04a2 4D060000 		.4byte	.LASF70
 1308 04a6 06       		.byte	0x6
 1309 04a7 CC01     		.2byte	0x1cc
 1310 04a9 37050000 		.4byte	0x537
 1311 04ad 18       		.byte	0x18
 1312 04ae 0E       		.uleb128 0xe
 1313 04af 74050000 		.4byte	.LASF71
 1314 04b3 06       		.byte	0x6
 1315 04b4 D201     		.2byte	0x1d2
 1316 04b6 77000000 		.4byte	0x77
 1317 04ba 1C       		.byte	0x1c
 1318 04bb 0E       		.uleb128 0xe
 1319 04bc 77030000 		.4byte	.LASF72
 1320 04c0 06       		.byte	0x6
 1321 04c1 D701     		.2byte	0x1d7
 1322 04c3 6B000000 		.4byte	0x6b
 1323 04c7 1E       		.byte	0x1e
 1324 04c8 0E       		.uleb128 0xe
 1325 04c9 26050000 		.4byte	.LASF73
 1326 04cd 06       		.byte	0x6
 1327 04ce DC01     		.2byte	0x1dc
 1328 04d0 6B030000 		.4byte	0x36b
 1329 04d4 20       		.byte	0x20
 1330 04d5 0E       		.uleb128 0xe
 1331 04d6 24020000 		.4byte	.LASF74
 1332 04da 06       		.byte	0x6
 1333 04db E101     		.2byte	0x1e1
 1334 04dd 23040000 		.4byte	0x423
 1335 04e1 34       		.byte	0x34
 1336 04e2 12       		.uleb128 0x12
ARM GAS  C:\Users\Erik\AppData\Local\Temp\ccRdsmWm.s 			page 52


 1337 04e3 85000000 		.4byte	.LASF75
 1338 04e7 06       		.byte	0x6
 1339 04e8 E601     		.2byte	0x1e6
 1340 04ea 6B000000 		.4byte	0x6b
 1341 04ee 7401     		.2byte	0x174
 1342 04f0 12       		.uleb128 0x12
 1343 04f1 71020000 		.4byte	.LASF76
 1344 04f5 06       		.byte	0x6
 1345 04f6 EB01     		.2byte	0x1eb
 1346 04f8 6B000000 		.4byte	0x6b
 1347 04fc 7501     		.2byte	0x175
 1348 04fe 12       		.uleb128 0x12
 1349 04ff 26060000 		.4byte	.LASF77
 1350 0503 06       		.byte	0x6
 1351 0504 F001     		.2byte	0x1f0
 1352 0506 77000000 		.4byte	0x77
 1353 050a 7601     		.2byte	0x176
 1354 050c 12       		.uleb128 0x12
 1355 050d 54050000 		.4byte	.LASF78
 1356 0511 06       		.byte	0x6
 1357 0512 F501     		.2byte	0x1f5
 1358 0514 CF030000 		.4byte	0x3cf
 1359 0518 7801     		.2byte	0x178
 1360 051a 12       		.uleb128 0x12
 1361 051b 14010000 		.4byte	.LASF79
 1362 051f 06       		.byte	0x6
 1363 0520 FA01     		.2byte	0x1fa
 1364 0522 6B000000 		.4byte	0x6b
 1365 0526 7A01     		.2byte	0x17a
 1366 0528 12       		.uleb128 0x12
 1367 0529 10080000 		.4byte	.LASF80
 1368 052d 06       		.byte	0x6
 1369 052e FF01     		.2byte	0x1ff
 1370 0530 6B000000 		.4byte	0x6b
 1371 0534 7B01     		.2byte	0x17b
 1372 0536 00       		.byte	0
 1373 0537 0C       		.uleb128 0xc
 1374 0538 83000000 		.4byte	0x83
 1375 053c 47050000 		.4byte	0x547
 1376 0540 0D       		.uleb128 0xd
 1377 0541 C7000000 		.4byte	0xc7
 1378 0545 00       		.byte	0
 1379 0546 00       		.byte	0
 1380 0547 04       		.uleb128 0x4
 1381 0548 88060000 		.4byte	.LASF81
 1382 054c 06       		.byte	0x6
 1383 054d 0002     		.2byte	0x200
 1384 054f 2F040000 		.4byte	0x42f
 1385 0553 0F       		.uleb128 0xf
 1386 0554 20       		.byte	0x20
 1387 0555 06       		.byte	0x6
 1388 0556 6702     		.2byte	0x267
 1389 0558 DF050000 		.4byte	0x5df
 1390 055c 0E       		.uleb128 0xe
 1391 055d 84080000 		.4byte	.LASF82
 1392 0561 06       		.byte	0x6
 1393 0562 7002     		.2byte	0x270
ARM GAS  C:\Users\Erik\AppData\Local\Temp\ccRdsmWm.s 			page 53


 1394 0564 DF050000 		.4byte	0x5df
 1395 0568 00       		.byte	0
 1396 0569 0E       		.uleb128 0xe
 1397 056a 1F080000 		.4byte	.LASF83
 1398 056e 06       		.byte	0x6
 1399 056f 7702     		.2byte	0x277
 1400 0571 CE000000 		.4byte	0xce
 1401 0575 04       		.byte	0x4
 1402 0576 0E       		.uleb128 0xe
 1403 0577 42060000 		.4byte	.LASF84
 1404 057b 06       		.byte	0x6
 1405 057c 7D02     		.2byte	0x27d
 1406 057e E6050000 		.4byte	0x5e6
 1407 0582 08       		.byte	0x8
 1408 0583 0E       		.uleb128 0xe
 1409 0584 CD050000 		.4byte	.LASF85
 1410 0588 06       		.byte	0x6
 1411 0589 8302     		.2byte	0x283
 1412 058b CE000000 		.4byte	0xce
 1413 058f 0C       		.byte	0xc
 1414 0590 0E       		.uleb128 0xe
 1415 0591 91070000 		.4byte	.LASF86
 1416 0595 06       		.byte	0x6
 1417 0596 8A02     		.2byte	0x28a
 1418 0598 EC050000 		.4byte	0x5ec
 1419 059c 10       		.byte	0x10
 1420 059d 0E       		.uleb128 0xe
 1421 059e 03080000 		.4byte	.LASF87
 1422 05a2 06       		.byte	0x6
 1423 05a3 8F02     		.2byte	0x28f
 1424 05a5 83000000 		.4byte	0x83
 1425 05a9 14       		.byte	0x14
 1426 05aa 0E       		.uleb128 0xe
 1427 05ab F2030000 		.4byte	.LASF88
 1428 05af 06       		.byte	0x6
 1429 05b0 9602     		.2byte	0x296
 1430 05b2 77000000 		.4byte	0x77
 1431 05b6 18       		.byte	0x18
 1432 05b7 0E       		.uleb128 0xe
 1433 05b8 90020000 		.4byte	.LASF89
 1434 05bc 06       		.byte	0x6
 1435 05bd 9D02     		.2byte	0x29d
 1436 05bf 6B000000 		.4byte	0x6b
 1437 05c3 1A       		.byte	0x1a
 1438 05c4 0E       		.uleb128 0xe
 1439 05c5 09050000 		.4byte	.LASF90
 1440 05c9 06       		.byte	0x6
 1441 05ca A702     		.2byte	0x2a7
 1442 05cc 6B000000 		.4byte	0x6b
 1443 05d0 1B       		.byte	0x1b
 1444 05d1 0E       		.uleb128 0xe
 1445 05d2 81020000 		.4byte	.LASF91
 1446 05d6 06       		.byte	0x6
 1447 05d7 AF02     		.2byte	0x2af
 1448 05d9 F2050000 		.4byte	0x5f2
 1449 05dd 1C       		.byte	0x1c
 1450 05de 00       		.byte	0
ARM GAS  C:\Users\Erik\AppData\Local\Temp\ccRdsmWm.s 			page 54


 1451 05df 13       		.uleb128 0x13
 1452 05e0 04       		.byte	0x4
 1453 05e1 E5050000 		.4byte	0x5e5
 1454 05e5 14       		.uleb128 0x14
 1455 05e6 13       		.uleb128 0x13
 1456 05e7 04       		.byte	0x4
 1457 05e8 EF030000 		.4byte	0x3ef
 1458 05ec 13       		.uleb128 0x13
 1459 05ed 04       		.byte	0x4
 1460 05ee 6B000000 		.4byte	0x6b
 1461 05f2 13       		.uleb128 0x13
 1462 05f3 04       		.byte	0x4
 1463 05f4 45010000 		.4byte	0x145
 1464 05f8 04       		.uleb128 0x4
 1465 05f9 CE030000 		.4byte	.LASF92
 1466 05fd 06       		.byte	0x6
 1467 05fe B002     		.2byte	0x2b0
 1468 0600 53050000 		.4byte	0x553
 1469 0604 0F       		.uleb128 0xf
 1470 0605 20       		.byte	0x20
 1471 0606 06       		.byte	0x6
 1472 0607 B602     		.2byte	0x2b6
 1473 0609 1B060000 		.4byte	0x61b
 1474 060d 0E       		.uleb128 0xe
 1475 060e 17090000 		.4byte	.LASF93
 1476 0612 06       		.byte	0x6
 1477 0613 BB02     		.2byte	0x2bb
 1478 0615 1B060000 		.4byte	0x61b
 1479 0619 00       		.byte	0
 1480 061a 00       		.byte	0
 1481 061b 0C       		.uleb128 0xc
 1482 061c F8050000 		.4byte	0x5f8
 1483 0620 2B060000 		.4byte	0x62b
 1484 0624 0D       		.uleb128 0xd
 1485 0625 C7000000 		.4byte	0xc7
 1486 0629 00       		.byte	0
 1487 062a 00       		.byte	0
 1488 062b 04       		.uleb128 0x4
 1489 062c 2F050000 		.4byte	.LASF94
 1490 0630 06       		.byte	0x6
 1491 0631 BC02     		.2byte	0x2bc
 1492 0633 04060000 		.4byte	0x604
 1493 0637 0F       		.uleb128 0xf
 1494 0638 02       		.byte	0x2
 1495 0639 06       		.byte	0x6
 1496 063a F102     		.2byte	0x2f1
 1497 063c 4E060000 		.4byte	0x64e
 1498 0640 0E       		.uleb128 0xe
 1499 0641 43080000 		.4byte	.LASF95
 1500 0645 06       		.byte	0x6
 1501 0646 F602     		.2byte	0x2f6
 1502 0648 77000000 		.4byte	0x77
 1503 064c 00       		.byte	0
 1504 064d 00       		.byte	0
 1505 064e 04       		.uleb128 0x4
 1506 064f 1A070000 		.4byte	.LASF96
 1507 0653 06       		.byte	0x6
ARM GAS  C:\Users\Erik\AppData\Local\Temp\ccRdsmWm.s 			page 55


 1508 0654 F702     		.2byte	0x2f7
 1509 0656 37060000 		.4byte	0x637
 1510 065a 0F       		.uleb128 0xf
 1511 065b 02       		.byte	0x2
 1512 065c 06       		.byte	0x6
 1513 065d FC02     		.2byte	0x2fc
 1514 065f 71060000 		.4byte	0x671
 1515 0663 0E       		.uleb128 0xe
 1516 0664 68030000 		.4byte	.LASF97
 1517 0668 06       		.byte	0x6
 1518 0669 0103     		.2byte	0x301
 1519 066b 71060000 		.4byte	0x671
 1520 066f 00       		.byte	0
 1521 0670 00       		.byte	0
 1522 0671 0C       		.uleb128 0xc
 1523 0672 4E060000 		.4byte	0x64e
 1524 0676 81060000 		.4byte	0x681
 1525 067a 0D       		.uleb128 0xd
 1526 067b C7000000 		.4byte	0xc7
 1527 067f 00       		.byte	0
 1528 0680 00       		.byte	0
 1529 0681 04       		.uleb128 0x4
 1530 0682 9C060000 		.4byte	.LASF98
 1531 0686 06       		.byte	0x6
 1532 0687 0203     		.2byte	0x302
 1533 0689 5A060000 		.4byte	0x65a
 1534 068d 15       		.uleb128 0x15
 1535 068e 04       		.byte	0x4
 1536 068f 06       		.byte	0x6
 1537 0690 0703     		.2byte	0x307
 1538 0692 AF060000 		.4byte	0x6af
 1539 0696 16       		.uleb128 0x16
 1540 0697 70747200 		.ascii	"ptr\000"
 1541 069b 06       		.byte	0x6
 1542 069c 0C03     		.2byte	0x30c
 1543 069e CE000000 		.4byte	0xce
 1544 06a2 17       		.uleb128 0x17
 1545 06a3 66020000 		.4byte	.LASF99
 1546 06a7 06       		.byte	0x6
 1547 06a8 1103     		.2byte	0x311
 1548 06aa AF060000 		.4byte	0x6af
 1549 06ae 00       		.byte	0
 1550 06af 13       		.uleb128 0x13
 1551 06b0 04       		.byte	0x4
 1552 06b1 81060000 		.4byte	0x681
 1553 06b5 04       		.uleb128 0x4
 1554 06b6 BE020000 		.4byte	.LASF100
 1555 06ba 06       		.byte	0x6
 1556 06bb 1203     		.2byte	0x312
 1557 06bd 8D060000 		.4byte	0x68d
 1558 06c1 18       		.uleb128 0x18
 1559 06c2 F4010000 		.4byte	.LASF105
 1560 06c6 01       		.byte	0x1
 1561 06c7 9001     		.2byte	0x190
 1562 06c9 00000000 		.4byte	.LFB1
 1563 06cd 58000000 		.4byte	.LFE1-.LFB1
 1564 06d1 01       		.uleb128 0x1
ARM GAS  C:\Users\Erik\AppData\Local\Temp\ccRdsmWm.s 			page 56


 1565 06d2 9C       		.byte	0x9c
 1566 06d3 21070000 		.4byte	0x721
 1567 06d7 19       		.uleb128 0x19
 1568 06d8 74000000 		.4byte	.LASF101
 1569 06dc 01       		.byte	0x1
 1570 06dd 9201     		.2byte	0x192
 1571 06df 83000000 		.4byte	0x83
 1572 06e3 00000000 		.4byte	.LLST0
 1573 06e7 19       		.uleb128 0x19
 1574 06e8 AC080000 		.4byte	.LASF102
 1575 06ec 01       		.byte	0x1
 1576 06ed 9301     		.2byte	0x193
 1577 06ef CB010000 		.4byte	0x1cb
 1578 06f3 4D000000 		.4byte	.LLST1
 1579 06f7 19       		.uleb128 0x19
 1580 06f8 13060000 		.4byte	.LASF103
 1581 06fc 01       		.byte	0x1
 1582 06fd 9401     		.2byte	0x194
 1583 06ff 21070000 		.4byte	0x721
 1584 0703 60000000 		.4byte	.LLST2
 1585 0707 19       		.uleb128 0x19
 1586 0708 F6070000 		.4byte	.LASF104
 1587 070c 01       		.byte	0x1
 1588 070d 9501     		.2byte	0x195
 1589 070f 27070000 		.4byte	0x727
 1590 0713 73000000 		.4byte	.LLST3
 1591 0717 1A       		.uleb128 0x1a
 1592 0718 44000000 		.4byte	.LVL8
 1593 071c C70B0000 		.4byte	0xbc7
 1594 0720 00       		.byte	0
 1595 0721 13       		.uleb128 0x13
 1596 0722 04       		.byte	0x4
 1597 0723 8B020000 		.4byte	0x28b
 1598 0727 13       		.uleb128 0x13
 1599 0728 04       		.byte	0x4
 1600 0729 2D070000 		.4byte	0x72d
 1601 072d 1B       		.uleb128 0x1b
 1602 072e F8050000 		.4byte	0x5f8
 1603 0732 18       		.uleb128 0x18
 1604 0733 51000000 		.4byte	.LASF106
 1605 0737 01       		.byte	0x1
 1606 0738 3505     		.2byte	0x535
 1607 073a 00000000 		.4byte	.LFB5
 1608 073e 32000000 		.4byte	.LFE5-.LFB5
 1609 0742 01       		.uleb128 0x1
 1610 0743 9C       		.byte	0x9c
 1611 0744 B6070000 		.4byte	0x7b6
 1612 0748 1C       		.uleb128 0x1c
 1613 0749 13060000 		.4byte	.LASF103
 1614 074d 01       		.byte	0x1
 1615 074e 3505     		.2byte	0x535
 1616 0750 21070000 		.4byte	0x721
 1617 0754 86000000 		.4byte	.LLST4
 1618 0758 1C       		.uleb128 0x1c
 1619 0759 00000000 		.4byte	.LASF107
 1620 075d 01       		.byte	0x1
 1621 075e 3605     		.2byte	0x536
ARM GAS  C:\Users\Erik\AppData\Local\Temp\ccRdsmWm.s 			page 57


 1622 0760 F2050000 		.4byte	0x5f2
 1623 0764 B2000000 		.4byte	.LLST5
 1624 0768 1C       		.uleb128 0x1c
 1625 0769 1C050000 		.4byte	.LASF108
 1626 076d 01       		.byte	0x1
 1627 076e 3705     		.2byte	0x537
 1628 0770 83000000 		.4byte	0x83
 1629 0774 DE000000 		.4byte	.LLST6
 1630 0778 1D       		.uleb128 0x1d
 1631 0779 3F070000 		.4byte	.LASF109
 1632 077d 01       		.byte	0x1
 1633 077e 3905     		.2byte	0x539
 1634 0780 89010000 		.4byte	0x189
 1635 0784 02       		.uleb128 0x2
 1636 0785 91       		.byte	0x91
 1637 0786 70       		.sleb128 -16
 1638 0787 19       		.uleb128 0x19
 1639 0788 C8000000 		.4byte	.LASF110
 1640 078c 01       		.byte	0x1
 1641 078d 3A05     		.2byte	0x53a
 1642 078f B6070000 		.4byte	0x7b6
 1643 0793 0A010000 		.4byte	.LLST7
 1644 0797 1E       		.uleb128 0x1e
 1645 0798 16000000 		.4byte	.LVL19
 1646 079c D20B0000 		.4byte	0xbd2
 1647 07a0 1F       		.uleb128 0x1f
 1648 07a1 01       		.uleb128 0x1
 1649 07a2 50       		.byte	0x50
 1650 07a3 03       		.uleb128 0x3
 1651 07a4 F3       		.byte	0xf3
 1652 07a5 01       		.uleb128 0x1
 1653 07a6 51       		.byte	0x51
 1654 07a7 1F       		.uleb128 0x1f
 1655 07a8 01       		.uleb128 0x1
 1656 07a9 51       		.byte	0x51
 1657 07aa 02       		.uleb128 0x2
 1658 07ab 7D       		.byte	0x7d
 1659 07ac 00       		.sleb128 0
 1660 07ad 1F       		.uleb128 0x1f
 1661 07ae 01       		.uleb128 0x1
 1662 07af 53       		.byte	0x53
 1663 07b0 03       		.uleb128 0x3
 1664 07b1 F3       		.byte	0xf3
 1665 07b2 01       		.uleb128 0x1
 1666 07b3 52       		.byte	0x52
 1667 07b4 00       		.byte	0
 1668 07b5 00       		.byte	0
 1669 07b6 13       		.uleb128 0x13
 1670 07b7 04       		.byte	0x4
 1671 07b8 89010000 		.4byte	0x189
 1672 07bc 18       		.uleb128 0x18
 1673 07bd EF000000 		.4byte	.LASF111
 1674 07c1 01       		.byte	0x1
 1675 07c2 5E05     		.2byte	0x55e
 1676 07c4 00000000 		.4byte	.LFB6
 1677 07c8 16000000 		.4byte	.LFE6-.LFB6
 1678 07cc 01       		.uleb128 0x1
ARM GAS  C:\Users\Erik\AppData\Local\Temp\ccRdsmWm.s 			page 58


 1679 07cd 9C       		.byte	0x9c
 1680 07ce 01080000 		.4byte	0x801
 1681 07d2 1C       		.uleb128 0x1c
 1682 07d3 13060000 		.4byte	.LASF103
 1683 07d7 01       		.byte	0x1
 1684 07d8 5F05     		.2byte	0x55f
 1685 07da 21070000 		.4byte	0x721
 1686 07de 2A010000 		.4byte	.LLST8
 1687 07e2 20       		.uleb128 0x20
 1688 07e3 35010000 		.4byte	.LASF112
 1689 07e7 01       		.byte	0x1
 1690 07e8 6005     		.2byte	0x560
 1691 07ea E6050000 		.4byte	0x5e6
 1692 07ee 01       		.uleb128 0x1
 1693 07ef 51       		.byte	0x51
 1694 07f0 19       		.uleb128 0x19
 1695 07f1 26010000 		.4byte	.LASF113
 1696 07f5 01       		.byte	0x1
 1697 07f6 6205     		.2byte	0x562
 1698 07f8 8F000000 		.4byte	0x8f
 1699 07fc 4B010000 		.4byte	.LLST9
 1700 0800 00       		.byte	0
 1701 0801 21       		.uleb128 0x21
 1702 0802 30040000 		.4byte	.LASF119
 1703 0806 01       		.byte	0x1
 1704 0807 F803     		.2byte	0x3f8
 1705 0809 83000000 		.4byte	0x83
 1706 080d 00000000 		.4byte	.LFB2
 1707 0811 90000000 		.4byte	.LFE2-.LFB2
 1708 0815 01       		.uleb128 0x1
 1709 0816 9C       		.byte	0x9c
 1710 0817 38090000 		.4byte	0x938
 1711 081b 1C       		.uleb128 0x1c
 1712 081c F6070000 		.4byte	.LASF104
 1713 0820 01       		.byte	0x1
 1714 0821 F803     		.2byte	0x3f8
 1715 0823 27070000 		.4byte	0x727
 1716 0827 7A010000 		.4byte	.LLST10
 1717 082b 19       		.uleb128 0x19
 1718 082c 2C020000 		.4byte	.LASF114
 1719 0830 01       		.byte	0x1
 1720 0831 FA03     		.2byte	0x3fa
 1721 0833 83000000 		.4byte	0x83
 1722 0837 A6010000 		.4byte	.LLST11
 1723 083b 19       		.uleb128 0x19
 1724 083c AC080000 		.4byte	.LASF102
 1725 0840 01       		.byte	0x1
 1726 0841 0004     		.2byte	0x400
 1727 0843 83000000 		.4byte	0x83
 1728 0847 DD010000 		.4byte	.LLST12
 1729 084b 19       		.uleb128 0x19
 1730 084c FF060000 		.4byte	.LASF115
 1731 0850 01       		.byte	0x1
 1732 0851 0104     		.2byte	0x401
 1733 0853 83000000 		.4byte	0x83
 1734 0857 FD010000 		.4byte	.LLST13
 1735 085b 19       		.uleb128 0x19
ARM GAS  C:\Users\Erik\AppData\Local\Temp\ccRdsmWm.s 			page 59


 1736 085c C6010000 		.4byte	.LASF116
 1737 0860 01       		.byte	0x1
 1738 0861 0204     		.2byte	0x402
 1739 0863 E6050000 		.4byte	0x5e6
 1740 0867 1C020000 		.4byte	.LLST14
 1741 086b 19       		.uleb128 0x19
 1742 086c 13060000 		.4byte	.LASF103
 1743 0870 01       		.byte	0x1
 1744 0871 0304     		.2byte	0x403
 1745 0873 21070000 		.4byte	0x721
 1746 0877 2F020000 		.4byte	.LLST15
 1747 087b 19       		.uleb128 0x19
 1748 087c 00000000 		.4byte	.LASF107
 1749 0880 01       		.byte	0x1
 1750 0881 0704     		.2byte	0x407
 1751 0883 F2050000 		.4byte	0x5f2
 1752 0887 42020000 		.4byte	.LLST16
 1753 088b 19       		.uleb128 0x19
 1754 088c 7B000000 		.4byte	.LASF117
 1755 0890 01       		.byte	0x1
 1756 0891 0E04     		.2byte	0x40e
 1757 0893 B5060000 		.4byte	0x6b5
 1758 0897 55020000 		.4byte	.LLST17
 1759 089b 19       		.uleb128 0x19
 1760 089c EB070000 		.4byte	.LASF118
 1761 08a0 01       		.byte	0x1
 1762 08a1 1104     		.2byte	0x411
 1763 08a3 83000000 		.4byte	0x83
 1764 08a7 73020000 		.4byte	.LLST18
 1765 08ab 22       		.uleb128 0x22
 1766 08ac 40000000 		.4byte	.LVL37
 1767 08b0 DD0B0000 		.4byte	0xbdd
 1768 08b4 CC080000 		.4byte	0x8cc
 1769 08b8 1F       		.uleb128 0x1f
 1770 08b9 01       		.uleb128 0x1
 1771 08ba 50       		.byte	0x50
 1772 08bb 02       		.uleb128 0x2
 1773 08bc 79       		.byte	0x79
 1774 08bd 00       		.sleb128 0
 1775 08be 1F       		.uleb128 0x1f
 1776 08bf 01       		.uleb128 0x1
 1777 08c0 51       		.byte	0x51
 1778 08c1 02       		.uleb128 0x2
 1779 08c2 74       		.byte	0x74
 1780 08c3 00       		.sleb128 0
 1781 08c4 1F       		.uleb128 0x1f
 1782 08c5 01       		.uleb128 0x1
 1783 08c6 52       		.byte	0x52
 1784 08c7 03       		.uleb128 0x3
 1785 08c8 7D       		.byte	0x7d
 1786 08c9 00       		.sleb128 0
 1787 08ca 06       		.byte	0x6
 1788 08cb 00       		.byte	0
 1789 08cc 22       		.uleb128 0x22
 1790 08cd 4A000000 		.4byte	.LVL38
 1791 08d1 E80B0000 		.4byte	0xbe8
 1792 08d5 E0080000 		.4byte	0x8e0
ARM GAS  C:\Users\Erik\AppData\Local\Temp\ccRdsmWm.s 			page 60


 1793 08d9 1F       		.uleb128 0x1f
 1794 08da 01       		.uleb128 0x1
 1795 08db 52       		.byte	0x52
 1796 08dc 02       		.uleb128 0x2
 1797 08dd 77       		.byte	0x77
 1798 08de 00       		.sleb128 0
 1799 08df 00       		.byte	0
 1800 08e0 22       		.uleb128 0x22
 1801 08e1 54000000 		.4byte	.LVL39
 1802 08e5 32070000 		.4byte	0x732
 1803 08e9 00090000 		.4byte	0x900
 1804 08ed 1F       		.uleb128 0x1f
 1805 08ee 01       		.uleb128 0x1
 1806 08ef 50       		.byte	0x50
 1807 08f0 02       		.uleb128 0x2
 1808 08f1 76       		.byte	0x76
 1809 08f2 00       		.sleb128 0
 1810 08f3 1F       		.uleb128 0x1f
 1811 08f4 01       		.uleb128 0x1
 1812 08f5 51       		.byte	0x51
 1813 08f6 02       		.uleb128 0x2
 1814 08f7 77       		.byte	0x77
 1815 08f8 00       		.sleb128 0
 1816 08f9 1F       		.uleb128 0x1f
 1817 08fa 01       		.uleb128 0x1
 1818 08fb 52       		.byte	0x52
 1819 08fc 02       		.uleb128 0x2
 1820 08fd 75       		.byte	0x75
 1821 08fe 00       		.sleb128 0
 1822 08ff 00       		.byte	0
 1823 0900 22       		.uleb128 0x22
 1824 0901 60000000 		.4byte	.LVL41
 1825 0905 F30B0000 		.4byte	0xbf3
 1826 0909 21090000 		.4byte	0x921
 1827 090d 1F       		.uleb128 0x1f
 1828 090e 01       		.uleb128 0x1
 1829 090f 50       		.byte	0x50
 1830 0910 02       		.uleb128 0x2
 1831 0911 76       		.byte	0x76
 1832 0912 00       		.sleb128 0
 1833 0913 1F       		.uleb128 0x1f
 1834 0914 01       		.uleb128 0x1
 1835 0915 51       		.byte	0x51
 1836 0916 02       		.uleb128 0x2
 1837 0917 74       		.byte	0x74
 1838 0918 00       		.sleb128 0
 1839 0919 1F       		.uleb128 0x1f
 1840 091a 01       		.uleb128 0x1
 1841 091b 52       		.byte	0x52
 1842 091c 03       		.uleb128 0x3
 1843 091d 7D       		.byte	0x7d
 1844 091e 00       		.sleb128 0
 1845 091f 06       		.byte	0x6
 1846 0920 00       		.byte	0
 1847 0921 1E       		.uleb128 0x1e
 1848 0922 6A000000 		.4byte	.LVL44
 1849 0926 BC070000 		.4byte	0x7bc
ARM GAS  C:\Users\Erik\AppData\Local\Temp\ccRdsmWm.s 			page 61


 1850 092a 1F       		.uleb128 0x1f
 1851 092b 01       		.uleb128 0x1
 1852 092c 50       		.byte	0x50
 1853 092d 02       		.uleb128 0x2
 1854 092e 76       		.byte	0x76
 1855 092f 00       		.sleb128 0
 1856 0930 1F       		.uleb128 0x1f
 1857 0931 01       		.uleb128 0x1
 1858 0932 51       		.byte	0x51
 1859 0933 02       		.uleb128 0x2
 1860 0934 74       		.byte	0x74
 1861 0935 00       		.sleb128 0
 1862 0936 00       		.byte	0
 1863 0937 00       		.byte	0
 1864 0938 21       		.uleb128 0x21
 1865 0939 29000000 		.4byte	.LASF120
 1866 093d 01       		.byte	0x1
 1867 093e 7A04     		.2byte	0x47a
 1868 0940 83000000 		.4byte	0x83
 1869 0944 00000000 		.4byte	.LFB3
 1870 0948 60000000 		.4byte	.LFE3-.LFB3
 1871 094c 01       		.uleb128 0x1
 1872 094d 9C       		.byte	0x9c
 1873 094e 600A0000 		.4byte	0xa60
 1874 0952 1C       		.uleb128 0x1c
 1875 0953 F6070000 		.4byte	.LASF104
 1876 0957 01       		.byte	0x1
 1877 0958 7B04     		.2byte	0x47b
 1878 095a 27070000 		.4byte	0x727
 1879 095e 9C020000 		.4byte	.LLST19
 1880 0962 1C       		.uleb128 0x1c
 1881 0963 35010000 		.4byte	.LASF112
 1882 0967 01       		.byte	0x1
 1883 0968 7C04     		.2byte	0x47c
 1884 096a E6050000 		.4byte	0x5e6
 1885 096e BD020000 		.4byte	.LLST20
 1886 0972 1C       		.uleb128 0x1c
 1887 0973 7B000000 		.4byte	.LASF117
 1888 0977 01       		.byte	0x1
 1889 0978 7D04     		.2byte	0x47d
 1890 097a B5060000 		.4byte	0x6b5
 1891 097e E8020000 		.4byte	.LLST21
 1892 0982 1C       		.uleb128 0x1c
 1893 0983 30010000 		.4byte	.LASF121
 1894 0987 01       		.byte	0x1
 1895 0988 7E04     		.2byte	0x47e
 1896 098a 83000000 		.4byte	0x83
 1897 098e 32030000 		.4byte	.LLST22
 1898 0992 19       		.uleb128 0x19
 1899 0993 2C020000 		.4byte	.LASF114
 1900 0997 01       		.byte	0x1
 1901 0998 8004     		.2byte	0x480
 1902 099a 83000000 		.4byte	0x83
 1903 099e 5E030000 		.4byte	.LLST23
 1904 09a2 19       		.uleb128 0x19
 1905 09a3 AC080000 		.4byte	.LASF102
 1906 09a7 01       		.byte	0x1
ARM GAS  C:\Users\Erik\AppData\Local\Temp\ccRdsmWm.s 			page 62


 1907 09a8 8104     		.2byte	0x481
 1908 09aa 83000000 		.4byte	0x83
 1909 09ae 9F030000 		.4byte	.LLST24
 1910 09b2 19       		.uleb128 0x19
 1911 09b3 13060000 		.4byte	.LASF103
 1912 09b7 01       		.byte	0x1
 1913 09b8 8204     		.2byte	0x482
 1914 09ba 21070000 		.4byte	0x721
 1915 09be BD030000 		.4byte	.LLST25
 1916 09c2 19       		.uleb128 0x19
 1917 09c3 00000000 		.4byte	.LASF107
 1918 09c7 01       		.byte	0x1
 1919 09c8 8504     		.2byte	0x485
 1920 09ca F2050000 		.4byte	0x5f2
 1921 09ce D0030000 		.4byte	.LLST26
 1922 09d2 22       		.uleb128 0x22
 1923 09d3 1C000000 		.4byte	.LVL66
 1924 09d7 DD0B0000 		.4byte	0xbdd
 1925 09db F4090000 		.4byte	0x9f4
 1926 09df 1F       		.uleb128 0x1f
 1927 09e0 01       		.uleb128 0x1
 1928 09e1 50       		.byte	0x50
 1929 09e2 03       		.uleb128 0x3
 1930 09e3 91       		.byte	0x91
 1931 09e4 64       		.sleb128 -28
 1932 09e5 06       		.byte	0x6
 1933 09e6 1F       		.uleb128 0x1f
 1934 09e7 01       		.uleb128 0x1
 1935 09e8 51       		.byte	0x51
 1936 09e9 03       		.uleb128 0x3
 1937 09ea 7D       		.byte	0x7d
 1938 09eb 00       		.sleb128 0
 1939 09ec 06       		.byte	0x6
 1940 09ed 1F       		.uleb128 0x1f
 1941 09ee 01       		.uleb128 0x1
 1942 09ef 52       		.byte	0x52
 1943 09f0 02       		.uleb128 0x2
 1944 09f1 77       		.byte	0x77
 1945 09f2 00       		.sleb128 0
 1946 09f3 00       		.byte	0
 1947 09f4 22       		.uleb128 0x22
 1948 09f5 2C000000 		.4byte	.LVL68
 1949 09f9 E80B0000 		.4byte	0xbe8
 1950 09fd 080A0000 		.4byte	0xa08
 1951 0a01 1F       		.uleb128 0x1f
 1952 0a02 01       		.uleb128 0x1
 1953 0a03 52       		.byte	0x52
 1954 0a04 02       		.uleb128 0x2
 1955 0a05 76       		.byte	0x76
 1956 0a06 00       		.sleb128 0
 1957 0a07 00       		.byte	0
 1958 0a08 22       		.uleb128 0x22
 1959 0a09 3A000000 		.4byte	.LVL70
 1960 0a0d 32070000 		.4byte	0x732
 1961 0a11 270A0000 		.4byte	0xa27
 1962 0a15 1F       		.uleb128 0x1f
 1963 0a16 01       		.uleb128 0x1
ARM GAS  C:\Users\Erik\AppData\Local\Temp\ccRdsmWm.s 			page 63


 1964 0a17 50       		.byte	0x50
 1965 0a18 02       		.uleb128 0x2
 1966 0a19 75       		.byte	0x75
 1967 0a1a 00       		.sleb128 0
 1968 0a1b 1F       		.uleb128 0x1f
 1969 0a1c 01       		.uleb128 0x1
 1970 0a1d 51       		.byte	0x51
 1971 0a1e 02       		.uleb128 0x2
 1972 0a1f 76       		.byte	0x76
 1973 0a20 00       		.sleb128 0
 1974 0a21 1F       		.uleb128 0x1f
 1975 0a22 01       		.uleb128 0x1
 1976 0a23 52       		.byte	0x52
 1977 0a24 01       		.uleb128 0x1
 1978 0a25 30       		.byte	0x30
 1979 0a26 00       		.byte	0
 1980 0a27 22       		.uleb128 0x22
 1981 0a28 48000000 		.4byte	.LVL72
 1982 0a2c F30B0000 		.4byte	0xbf3
 1983 0a30 480A0000 		.4byte	0xa48
 1984 0a34 1F       		.uleb128 0x1f
 1985 0a35 01       		.uleb128 0x1
 1986 0a36 50       		.byte	0x50
 1987 0a37 02       		.uleb128 0x2
 1988 0a38 75       		.byte	0x75
 1989 0a39 00       		.sleb128 0
 1990 0a3a 1F       		.uleb128 0x1f
 1991 0a3b 01       		.uleb128 0x1
 1992 0a3c 51       		.byte	0x51
 1993 0a3d 03       		.uleb128 0x3
 1994 0a3e 7D       		.byte	0x7d
 1995 0a3f 00       		.sleb128 0
 1996 0a40 06       		.byte	0x6
 1997 0a41 1F       		.uleb128 0x1f
 1998 0a42 01       		.uleb128 0x1
 1999 0a43 52       		.byte	0x52
 2000 0a44 02       		.uleb128 0x2
 2001 0a45 77       		.byte	0x77
 2002 0a46 00       		.sleb128 0
 2003 0a47 00       		.byte	0
 2004 0a48 1E       		.uleb128 0x1e
 2005 0a49 5A000000 		.4byte	.LVL76
 2006 0a4d BC070000 		.4byte	0x7bc
 2007 0a51 1F       		.uleb128 0x1f
 2008 0a52 01       		.uleb128 0x1
 2009 0a53 50       		.byte	0x50
 2010 0a54 02       		.uleb128 0x2
 2011 0a55 75       		.byte	0x75
 2012 0a56 00       		.sleb128 0
 2013 0a57 1F       		.uleb128 0x1f
 2014 0a58 01       		.uleb128 0x1
 2015 0a59 51       		.byte	0x51
 2016 0a5a 03       		.uleb128 0x3
 2017 0a5b 7D       		.byte	0x7d
 2018 0a5c 00       		.sleb128 0
 2019 0a5d 06       		.byte	0x6
 2020 0a5e 00       		.byte	0
ARM GAS  C:\Users\Erik\AppData\Local\Temp\ccRdsmWm.s 			page 64


 2021 0a5f 00       		.byte	0
 2022 0a60 21       		.uleb128 0x21
 2023 0a61 D9040000 		.4byte	.LASF122
 2024 0a65 01       		.byte	0x1
 2025 0a66 A805     		.2byte	0x5a8
 2026 0a68 83000000 		.4byte	0x83
 2027 0a6c 00000000 		.4byte	.LFB7
 2028 0a70 64000000 		.4byte	.LFE7-.LFB7
 2029 0a74 01       		.uleb128 0x1
 2030 0a75 9C       		.byte	0x9c
 2031 0a76 090B0000 		.4byte	0xb09
 2032 0a7a 1C       		.uleb128 0x1c
 2033 0a7b 4E080000 		.4byte	.LASF123
 2034 0a7f 01       		.byte	0x1
 2035 0a80 A805     		.2byte	0x5a8
 2036 0a82 83000000 		.4byte	0x83
 2037 0a86 E3030000 		.4byte	.LLST27
 2038 0a8a 1C       		.uleb128 0x1c
 2039 0a8b F6070000 		.4byte	.LASF104
 2040 0a8f 01       		.byte	0x1
 2041 0a90 A805     		.2byte	0x5a8
 2042 0a92 27070000 		.4byte	0x727
 2043 0a96 01040000 		.4byte	.LLST28
 2044 0a9a 19       		.uleb128 0x19
 2045 0a9b 6D000000 		.4byte	.LASF124
 2046 0a9f 01       		.byte	0x1
 2047 0aa0 AA05     		.2byte	0x5aa
 2048 0aa2 83000000 		.4byte	0x83
 2049 0aa6 22040000 		.4byte	.LLST29
 2050 0aaa 19       		.uleb128 0x19
 2051 0aab 1E060000 		.4byte	.LASF125
 2052 0aaf 01       		.byte	0x1
 2053 0ab0 AB05     		.2byte	0x5ab
 2054 0ab2 83000000 		.4byte	0x83
 2055 0ab6 6C040000 		.4byte	.LLST30
 2056 0aba 19       		.uleb128 0x19
 2057 0abb DE010000 		.4byte	.LASF126
 2058 0abf 01       		.byte	0x1
 2059 0ac0 AC05     		.2byte	0x5ac
 2060 0ac2 83000000 		.4byte	0x83
 2061 0ac6 8B040000 		.4byte	.LLST31
 2062 0aca 19       		.uleb128 0x19
 2063 0acb C5050000 		.4byte	.LASF127
 2064 0acf 01       		.byte	0x1
 2065 0ad0 AD05     		.2byte	0x5ad
 2066 0ad2 83000000 		.4byte	0x83
 2067 0ad6 A9040000 		.4byte	.LLST32
 2068 0ada 19       		.uleb128 0x19
 2069 0adb C6010000 		.4byte	.LASF116
 2070 0adf 01       		.byte	0x1
 2071 0ae0 AE05     		.2byte	0x5ae
 2072 0ae2 E6050000 		.4byte	0x5e6
 2073 0ae6 C7040000 		.4byte	.LLST33
 2074 0aea 19       		.uleb128 0x19
 2075 0aeb 13060000 		.4byte	.LASF103
 2076 0aef 01       		.byte	0x1
 2077 0af0 AF05     		.2byte	0x5af
ARM GAS  C:\Users\Erik\AppData\Local\Temp\ccRdsmWm.s 			page 65


 2078 0af2 21070000 		.4byte	0x721
 2079 0af6 DA040000 		.4byte	.LLST34
 2080 0afa 1D       		.uleb128 0x1d
 2081 0afb 4A070000 		.4byte	.LASF128
 2082 0aff 01       		.byte	0x1
 2083 0b00 B005     		.2byte	0x5b0
 2084 0b02 EC050000 		.4byte	0x5ec
 2085 0b06 01       		.uleb128 0x1
 2086 0b07 53       		.byte	0x53
 2087 0b08 00       		.byte	0
 2088 0b09 18       		.uleb128 0x18
 2089 0b0a A6000000 		.4byte	.LASF129
 2090 0b0e 01       		.byte	0x1
 2091 0b0f DE04     		.2byte	0x4de
 2092 0b11 00000000 		.4byte	.LFB4
 2093 0b15 5C000000 		.4byte	.LFE4-.LFB4
 2094 0b19 01       		.uleb128 0x1
 2095 0b1a 9C       		.byte	0x9c
 2096 0b1b AA0B0000 		.4byte	0xbaa
 2097 0b1f 1C       		.uleb128 0x1c
 2098 0b20 F1080000 		.4byte	.LASF130
 2099 0b24 01       		.byte	0x1
 2100 0b25 DE04     		.2byte	0x4de
 2101 0b27 83000000 		.4byte	0x83
 2102 0b2b ED040000 		.4byte	.LLST35
 2103 0b2f 1C       		.uleb128 0x1c
 2104 0b30 F6070000 		.4byte	.LASF104
 2105 0b34 01       		.byte	0x1
 2106 0b35 DE04     		.2byte	0x4de
 2107 0b37 27070000 		.4byte	0x727
 2108 0b3b 19050000 		.4byte	.LLST36
 2109 0b3f 19       		.uleb128 0x19
 2110 0b40 B1050000 		.4byte	.LASF131
 2111 0b44 01       		.byte	0x1
 2112 0b45 E004     		.2byte	0x4e0
 2113 0b47 83000000 		.4byte	0x83
 2114 0b4b 53050000 		.4byte	.LLST37
 2115 0b4f 19       		.uleb128 0x19
 2116 0b50 F9050000 		.4byte	.LASF132
 2117 0b54 01       		.byte	0x1
 2118 0b55 E104     		.2byte	0x4e1
 2119 0b57 83000000 		.4byte	0x83
 2120 0b5b 7C050000 		.4byte	.LLST38
 2121 0b5f 19       		.uleb128 0x19
 2122 0b60 DE070000 		.4byte	.LASF133
 2123 0b64 01       		.byte	0x1
 2124 0b65 E204     		.2byte	0x4e2
 2125 0b67 83000000 		.4byte	0x83
 2126 0b6b D4050000 		.4byte	.LLST39
 2127 0b6f 19       		.uleb128 0x19
 2128 0b70 AC080000 		.4byte	.LASF102
 2129 0b74 01       		.byte	0x1
 2130 0b75 E304     		.2byte	0x4e3
 2131 0b77 CB010000 		.4byte	0x1cb
 2132 0b7b 08060000 		.4byte	.LLST40
 2133 0b7f 22       		.uleb128 0x22
 2134 0b80 18000000 		.4byte	.LVL111
ARM GAS  C:\Users\Erik\AppData\Local\Temp\ccRdsmWm.s 			page 66


 2135 0b84 600A0000 		.4byte	0xa60
 2136 0b88 9A0B0000 		.4byte	0xb9a
 2137 0b8c 1F       		.uleb128 0x1f
 2138 0b8d 01       		.uleb128 0x1
 2139 0b8e 50       		.byte	0x50
 2140 0b8f 02       		.uleb128 0x2
 2141 0b90 75       		.byte	0x75
 2142 0b91 00       		.sleb128 0
 2143 0b92 1F       		.uleb128 0x1f
 2144 0b93 01       		.uleb128 0x1
 2145 0b94 51       		.byte	0x51
 2146 0b95 03       		.uleb128 0x3
 2147 0b96 F3       		.byte	0xf3
 2148 0b97 01       		.uleb128 0x1
 2149 0b98 51       		.byte	0x51
 2150 0b99 00       		.byte	0
 2151 0b9a 1E       		.uleb128 0x1e
 2152 0b9b 22000000 		.4byte	.LVL114
 2153 0b9f FE0B0000 		.4byte	0xbfe
 2154 0ba3 1F       		.uleb128 0x1f
 2155 0ba4 01       		.uleb128 0x1
 2156 0ba5 50       		.byte	0x50
 2157 0ba6 01       		.uleb128 0x1
 2158 0ba7 30       		.byte	0x30
 2159 0ba8 00       		.byte	0
 2160 0ba9 00       		.byte	0
 2161 0baa 23       		.uleb128 0x23
 2162 0bab 45050000 		.4byte	.LASF134
 2163 0baf 06       		.byte	0x6
 2164 0bb0 5304     		.2byte	0x453
 2165 0bb2 47050000 		.4byte	0x547
 2166 0bb6 23       		.uleb128 0x23
 2167 0bb7 95000000 		.4byte	.LASF135
 2168 0bbb 06       		.byte	0x6
 2169 0bbc 5404     		.2byte	0x454
 2170 0bbe C20B0000 		.4byte	0xbc2
 2171 0bc2 1B       		.uleb128 0x1b
 2172 0bc3 2B060000 		.4byte	0x62b
 2173 0bc7 24       		.uleb128 0x24
 2174 0bc8 64050000 		.4byte	.LASF136
 2175 0bcc 64050000 		.4byte	.LASF136
 2176 0bd0 07       		.byte	0x7
 2177 0bd1 19       		.byte	0x19
 2178 0bd2 24       		.uleb128 0x24
 2179 0bd3 AA010000 		.4byte	.LASF137
 2180 0bd7 AA010000 		.4byte	.LASF137
 2181 0bdb 05       		.byte	0x5
 2182 0bdc BA       		.byte	0xba
 2183 0bdd 24       		.uleb128 0x24
 2184 0bde 99020000 		.4byte	.LASF138
 2185 0be2 99020000 		.4byte	.LASF138
 2186 0be6 08       		.byte	0x8
 2187 0be7 85       		.byte	0x85
 2188 0be8 24       		.uleb128 0x24
 2189 0be9 55040000 		.4byte	.LASF139
 2190 0bed 55040000 		.4byte	.LASF139
 2191 0bf1 05       		.byte	0x5
ARM GAS  C:\Users\Erik\AppData\Local\Temp\ccRdsmWm.s 			page 67


 2192 0bf2 C3       		.byte	0xc3
 2193 0bf3 24       		.uleb128 0x24
 2194 0bf4 0A020000 		.4byte	.LASF140
 2195 0bf8 0A020000 		.4byte	.LASF140
 2196 0bfc 08       		.byte	0x8
 2197 0bfd 72       		.byte	0x72
 2198 0bfe 24       		.uleb128 0x24
 2199 0bff 1F010000 		.4byte	.LASF141
 2200 0c03 1F010000 		.4byte	.LASF141
 2201 0c07 09       		.byte	0x9
 2202 0c08 FA       		.byte	0xfa
 2203 0c09 00       		.byte	0
 2204              		.section	.debug_abbrev,"",%progbits
 2205              	.Ldebug_abbrev0:
 2206 0000 01       		.uleb128 0x1
 2207 0001 11       		.uleb128 0x11
 2208 0002 01       		.byte	0x1
 2209 0003 25       		.uleb128 0x25
 2210 0004 0E       		.uleb128 0xe
 2211 0005 13       		.uleb128 0x13
 2212 0006 0B       		.uleb128 0xb
 2213 0007 03       		.uleb128 0x3
 2214 0008 0E       		.uleb128 0xe
 2215 0009 1B       		.uleb128 0x1b
 2216 000a 0E       		.uleb128 0xe
 2217 000b 55       		.uleb128 0x55
 2218 000c 17       		.uleb128 0x17
 2219 000d 11       		.uleb128 0x11
 2220 000e 01       		.uleb128 0x1
 2221 000f 10       		.uleb128 0x10
 2222 0010 17       		.uleb128 0x17
 2223 0011 00       		.byte	0
 2224 0012 00       		.byte	0
 2225 0013 02       		.uleb128 0x2
 2226 0014 24       		.uleb128 0x24
 2227 0015 00       		.byte	0
 2228 0016 0B       		.uleb128 0xb
 2229 0017 0B       		.uleb128 0xb
 2230 0018 3E       		.uleb128 0x3e
 2231 0019 0B       		.uleb128 0xb
 2232 001a 03       		.uleb128 0x3
 2233 001b 0E       		.uleb128 0xe
 2234 001c 00       		.byte	0
 2235 001d 00       		.byte	0
 2236 001e 03       		.uleb128 0x3
 2237 001f 24       		.uleb128 0x24
 2238 0020 00       		.byte	0
 2239 0021 0B       		.uleb128 0xb
 2240 0022 0B       		.uleb128 0xb
 2241 0023 3E       		.uleb128 0x3e
 2242 0024 0B       		.uleb128 0xb
 2243 0025 03       		.uleb128 0x3
 2244 0026 08       		.uleb128 0x8
 2245 0027 00       		.byte	0
 2246 0028 00       		.byte	0
 2247 0029 04       		.uleb128 0x4
 2248 002a 16       		.uleb128 0x16
ARM GAS  C:\Users\Erik\AppData\Local\Temp\ccRdsmWm.s 			page 68


 2249 002b 00       		.byte	0
 2250 002c 03       		.uleb128 0x3
 2251 002d 0E       		.uleb128 0xe
 2252 002e 3A       		.uleb128 0x3a
 2253 002f 0B       		.uleb128 0xb
 2254 0030 3B       		.uleb128 0x3b
 2255 0031 05       		.uleb128 0x5
 2256 0032 49       		.uleb128 0x49
 2257 0033 13       		.uleb128 0x13
 2258 0034 00       		.byte	0
 2259 0035 00       		.byte	0
 2260 0036 05       		.uleb128 0x5
 2261 0037 35       		.uleb128 0x35
 2262 0038 00       		.byte	0
 2263 0039 49       		.uleb128 0x49
 2264 003a 13       		.uleb128 0x13
 2265 003b 00       		.byte	0
 2266 003c 00       		.byte	0
 2267 003d 06       		.uleb128 0x6
 2268 003e 16       		.uleb128 0x16
 2269 003f 00       		.byte	0
 2270 0040 03       		.uleb128 0x3
 2271 0041 0E       		.uleb128 0xe
 2272 0042 3A       		.uleb128 0x3a
 2273 0043 0B       		.uleb128 0xb
 2274 0044 3B       		.uleb128 0x3b
 2275 0045 0B       		.uleb128 0xb
 2276 0046 49       		.uleb128 0x49
 2277 0047 13       		.uleb128 0x13
 2278 0048 00       		.byte	0
 2279 0049 00       		.byte	0
 2280 004a 07       		.uleb128 0x7
 2281 004b 0F       		.uleb128 0xf
 2282 004c 00       		.byte	0
 2283 004d 0B       		.uleb128 0xb
 2284 004e 0B       		.uleb128 0xb
 2285 004f 00       		.byte	0
 2286 0050 00       		.byte	0
 2287 0051 08       		.uleb128 0x8
 2288 0052 13       		.uleb128 0x13
 2289 0053 01       		.byte	0x1
 2290 0054 0B       		.uleb128 0xb
 2291 0055 0B       		.uleb128 0xb
 2292 0056 3A       		.uleb128 0x3a
 2293 0057 0B       		.uleb128 0xb
 2294 0058 3B       		.uleb128 0x3b
 2295 0059 0B       		.uleb128 0xb
 2296 005a 01       		.uleb128 0x1
 2297 005b 13       		.uleb128 0x13
 2298 005c 00       		.byte	0
 2299 005d 00       		.byte	0
 2300 005e 09       		.uleb128 0x9
 2301 005f 0D       		.uleb128 0xd
 2302 0060 00       		.byte	0
 2303 0061 03       		.uleb128 0x3
 2304 0062 0E       		.uleb128 0xe
 2305 0063 3A       		.uleb128 0x3a
ARM GAS  C:\Users\Erik\AppData\Local\Temp\ccRdsmWm.s 			page 69


 2306 0064 0B       		.uleb128 0xb
 2307 0065 3B       		.uleb128 0x3b
 2308 0066 0B       		.uleb128 0xb
 2309 0067 49       		.uleb128 0x49
 2310 0068 13       		.uleb128 0x13
 2311 0069 38       		.uleb128 0x38
 2312 006a 0B       		.uleb128 0xb
 2313 006b 00       		.byte	0
 2314 006c 00       		.byte	0
 2315 006d 0A       		.uleb128 0xa
 2316 006e 04       		.uleb128 0x4
 2317 006f 01       		.byte	0x1
 2318 0070 0B       		.uleb128 0xb
 2319 0071 0B       		.uleb128 0xb
 2320 0072 49       		.uleb128 0x49
 2321 0073 13       		.uleb128 0x13
 2322 0074 3A       		.uleb128 0x3a
 2323 0075 0B       		.uleb128 0xb
 2324 0076 3B       		.uleb128 0x3b
 2325 0077 0B       		.uleb128 0xb
 2326 0078 01       		.uleb128 0x1
 2327 0079 13       		.uleb128 0x13
 2328 007a 00       		.byte	0
 2329 007b 00       		.byte	0
 2330 007c 0B       		.uleb128 0xb
 2331 007d 28       		.uleb128 0x28
 2332 007e 00       		.byte	0
 2333 007f 03       		.uleb128 0x3
 2334 0080 0E       		.uleb128 0xe
 2335 0081 1C       		.uleb128 0x1c
 2336 0082 0B       		.uleb128 0xb
 2337 0083 00       		.byte	0
 2338 0084 00       		.byte	0
 2339 0085 0C       		.uleb128 0xc
 2340 0086 01       		.uleb128 0x1
 2341 0087 01       		.byte	0x1
 2342 0088 49       		.uleb128 0x49
 2343 0089 13       		.uleb128 0x13
 2344 008a 01       		.uleb128 0x1
 2345 008b 13       		.uleb128 0x13
 2346 008c 00       		.byte	0
 2347 008d 00       		.byte	0
 2348 008e 0D       		.uleb128 0xd
 2349 008f 21       		.uleb128 0x21
 2350 0090 00       		.byte	0
 2351 0091 49       		.uleb128 0x49
 2352 0092 13       		.uleb128 0x13
 2353 0093 2F       		.uleb128 0x2f
 2354 0094 0B       		.uleb128 0xb
 2355 0095 00       		.byte	0
 2356 0096 00       		.byte	0
 2357 0097 0E       		.uleb128 0xe
 2358 0098 0D       		.uleb128 0xd
 2359 0099 00       		.byte	0
 2360 009a 03       		.uleb128 0x3
 2361 009b 0E       		.uleb128 0xe
 2362 009c 3A       		.uleb128 0x3a
ARM GAS  C:\Users\Erik\AppData\Local\Temp\ccRdsmWm.s 			page 70


 2363 009d 0B       		.uleb128 0xb
 2364 009e 3B       		.uleb128 0x3b
 2365 009f 05       		.uleb128 0x5
 2366 00a0 49       		.uleb128 0x49
 2367 00a1 13       		.uleb128 0x13
 2368 00a2 38       		.uleb128 0x38
 2369 00a3 0B       		.uleb128 0xb
 2370 00a4 00       		.byte	0
 2371 00a5 00       		.byte	0
 2372 00a6 0F       		.uleb128 0xf
 2373 00a7 13       		.uleb128 0x13
 2374 00a8 01       		.byte	0x1
 2375 00a9 0B       		.uleb128 0xb
 2376 00aa 0B       		.uleb128 0xb
 2377 00ab 3A       		.uleb128 0x3a
 2378 00ac 0B       		.uleb128 0xb
 2379 00ad 3B       		.uleb128 0x3b
 2380 00ae 05       		.uleb128 0x5
 2381 00af 01       		.uleb128 0x1
 2382 00b0 13       		.uleb128 0x13
 2383 00b1 00       		.byte	0
 2384 00b2 00       		.byte	0
 2385 00b3 10       		.uleb128 0x10
 2386 00b4 0D       		.uleb128 0xd
 2387 00b5 00       		.byte	0
 2388 00b6 03       		.uleb128 0x3
 2389 00b7 08       		.uleb128 0x8
 2390 00b8 3A       		.uleb128 0x3a
 2391 00b9 0B       		.uleb128 0xb
 2392 00ba 3B       		.uleb128 0x3b
 2393 00bb 05       		.uleb128 0x5
 2394 00bc 49       		.uleb128 0x49
 2395 00bd 13       		.uleb128 0x13
 2396 00be 38       		.uleb128 0x38
 2397 00bf 0B       		.uleb128 0xb
 2398 00c0 00       		.byte	0
 2399 00c1 00       		.byte	0
 2400 00c2 11       		.uleb128 0x11
 2401 00c3 13       		.uleb128 0x13
 2402 00c4 01       		.byte	0x1
 2403 00c5 0B       		.uleb128 0xb
 2404 00c6 05       		.uleb128 0x5
 2405 00c7 3A       		.uleb128 0x3a
 2406 00c8 0B       		.uleb128 0xb
 2407 00c9 3B       		.uleb128 0x3b
 2408 00ca 05       		.uleb128 0x5
 2409 00cb 01       		.uleb128 0x1
 2410 00cc 13       		.uleb128 0x13
 2411 00cd 00       		.byte	0
 2412 00ce 00       		.byte	0
 2413 00cf 12       		.uleb128 0x12
 2414 00d0 0D       		.uleb128 0xd
 2415 00d1 00       		.byte	0
 2416 00d2 03       		.uleb128 0x3
 2417 00d3 0E       		.uleb128 0xe
 2418 00d4 3A       		.uleb128 0x3a
 2419 00d5 0B       		.uleb128 0xb
ARM GAS  C:\Users\Erik\AppData\Local\Temp\ccRdsmWm.s 			page 71


 2420 00d6 3B       		.uleb128 0x3b
 2421 00d7 05       		.uleb128 0x5
 2422 00d8 49       		.uleb128 0x49
 2423 00d9 13       		.uleb128 0x13
 2424 00da 38       		.uleb128 0x38
 2425 00db 05       		.uleb128 0x5
 2426 00dc 00       		.byte	0
 2427 00dd 00       		.byte	0
 2428 00de 13       		.uleb128 0x13
 2429 00df 0F       		.uleb128 0xf
 2430 00e0 00       		.byte	0
 2431 00e1 0B       		.uleb128 0xb
 2432 00e2 0B       		.uleb128 0xb
 2433 00e3 49       		.uleb128 0x49
 2434 00e4 13       		.uleb128 0x13
 2435 00e5 00       		.byte	0
 2436 00e6 00       		.byte	0
 2437 00e7 14       		.uleb128 0x14
 2438 00e8 26       		.uleb128 0x26
 2439 00e9 00       		.byte	0
 2440 00ea 00       		.byte	0
 2441 00eb 00       		.byte	0
 2442 00ec 15       		.uleb128 0x15
 2443 00ed 17       		.uleb128 0x17
 2444 00ee 01       		.byte	0x1
 2445 00ef 0B       		.uleb128 0xb
 2446 00f0 0B       		.uleb128 0xb
 2447 00f1 3A       		.uleb128 0x3a
 2448 00f2 0B       		.uleb128 0xb
 2449 00f3 3B       		.uleb128 0x3b
 2450 00f4 05       		.uleb128 0x5
 2451 00f5 01       		.uleb128 0x1
 2452 00f6 13       		.uleb128 0x13
 2453 00f7 00       		.byte	0
 2454 00f8 00       		.byte	0
 2455 00f9 16       		.uleb128 0x16
 2456 00fa 0D       		.uleb128 0xd
 2457 00fb 00       		.byte	0
 2458 00fc 03       		.uleb128 0x3
 2459 00fd 08       		.uleb128 0x8
 2460 00fe 3A       		.uleb128 0x3a
 2461 00ff 0B       		.uleb128 0xb
 2462 0100 3B       		.uleb128 0x3b
 2463 0101 05       		.uleb128 0x5
 2464 0102 49       		.uleb128 0x49
 2465 0103 13       		.uleb128 0x13
 2466 0104 00       		.byte	0
 2467 0105 00       		.byte	0
 2468 0106 17       		.uleb128 0x17
 2469 0107 0D       		.uleb128 0xd
 2470 0108 00       		.byte	0
 2471 0109 03       		.uleb128 0x3
 2472 010a 0E       		.uleb128 0xe
 2473 010b 3A       		.uleb128 0x3a
 2474 010c 0B       		.uleb128 0xb
 2475 010d 3B       		.uleb128 0x3b
 2476 010e 05       		.uleb128 0x5
ARM GAS  C:\Users\Erik\AppData\Local\Temp\ccRdsmWm.s 			page 72


 2477 010f 49       		.uleb128 0x49
 2478 0110 13       		.uleb128 0x13
 2479 0111 00       		.byte	0
 2480 0112 00       		.byte	0
 2481 0113 18       		.uleb128 0x18
 2482 0114 2E       		.uleb128 0x2e
 2483 0115 01       		.byte	0x1
 2484 0116 3F       		.uleb128 0x3f
 2485 0117 19       		.uleb128 0x19
 2486 0118 03       		.uleb128 0x3
 2487 0119 0E       		.uleb128 0xe
 2488 011a 3A       		.uleb128 0x3a
 2489 011b 0B       		.uleb128 0xb
 2490 011c 3B       		.uleb128 0x3b
 2491 011d 05       		.uleb128 0x5
 2492 011e 27       		.uleb128 0x27
 2493 011f 19       		.uleb128 0x19
 2494 0120 11       		.uleb128 0x11
 2495 0121 01       		.uleb128 0x1
 2496 0122 12       		.uleb128 0x12
 2497 0123 06       		.uleb128 0x6
 2498 0124 40       		.uleb128 0x40
 2499 0125 18       		.uleb128 0x18
 2500 0126 9742     		.uleb128 0x2117
 2501 0128 19       		.uleb128 0x19
 2502 0129 01       		.uleb128 0x1
 2503 012a 13       		.uleb128 0x13
 2504 012b 00       		.byte	0
 2505 012c 00       		.byte	0
 2506 012d 19       		.uleb128 0x19
 2507 012e 34       		.uleb128 0x34
 2508 012f 00       		.byte	0
 2509 0130 03       		.uleb128 0x3
 2510 0131 0E       		.uleb128 0xe
 2511 0132 3A       		.uleb128 0x3a
 2512 0133 0B       		.uleb128 0xb
 2513 0134 3B       		.uleb128 0x3b
 2514 0135 05       		.uleb128 0x5
 2515 0136 49       		.uleb128 0x49
 2516 0137 13       		.uleb128 0x13
 2517 0138 02       		.uleb128 0x2
 2518 0139 17       		.uleb128 0x17
 2519 013a 00       		.byte	0
 2520 013b 00       		.byte	0
 2521 013c 1A       		.uleb128 0x1a
 2522 013d 898201   		.uleb128 0x4109
 2523 0140 00       		.byte	0
 2524 0141 11       		.uleb128 0x11
 2525 0142 01       		.uleb128 0x1
 2526 0143 31       		.uleb128 0x31
 2527 0144 13       		.uleb128 0x13
 2528 0145 00       		.byte	0
 2529 0146 00       		.byte	0
 2530 0147 1B       		.uleb128 0x1b
 2531 0148 26       		.uleb128 0x26
 2532 0149 00       		.byte	0
 2533 014a 49       		.uleb128 0x49
ARM GAS  C:\Users\Erik\AppData\Local\Temp\ccRdsmWm.s 			page 73


 2534 014b 13       		.uleb128 0x13
 2535 014c 00       		.byte	0
 2536 014d 00       		.byte	0
 2537 014e 1C       		.uleb128 0x1c
 2538 014f 05       		.uleb128 0x5
 2539 0150 00       		.byte	0
 2540 0151 03       		.uleb128 0x3
 2541 0152 0E       		.uleb128 0xe
 2542 0153 3A       		.uleb128 0x3a
 2543 0154 0B       		.uleb128 0xb
 2544 0155 3B       		.uleb128 0x3b
 2545 0156 05       		.uleb128 0x5
 2546 0157 49       		.uleb128 0x49
 2547 0158 13       		.uleb128 0x13
 2548 0159 02       		.uleb128 0x2
 2549 015a 17       		.uleb128 0x17
 2550 015b 00       		.byte	0
 2551 015c 00       		.byte	0
 2552 015d 1D       		.uleb128 0x1d
 2553 015e 34       		.uleb128 0x34
 2554 015f 00       		.byte	0
 2555 0160 03       		.uleb128 0x3
 2556 0161 0E       		.uleb128 0xe
 2557 0162 3A       		.uleb128 0x3a
 2558 0163 0B       		.uleb128 0xb
 2559 0164 3B       		.uleb128 0x3b
 2560 0165 05       		.uleb128 0x5
 2561 0166 49       		.uleb128 0x49
 2562 0167 13       		.uleb128 0x13
 2563 0168 02       		.uleb128 0x2
 2564 0169 18       		.uleb128 0x18
 2565 016a 00       		.byte	0
 2566 016b 00       		.byte	0
 2567 016c 1E       		.uleb128 0x1e
 2568 016d 898201   		.uleb128 0x4109
 2569 0170 01       		.byte	0x1
 2570 0171 11       		.uleb128 0x11
 2571 0172 01       		.uleb128 0x1
 2572 0173 31       		.uleb128 0x31
 2573 0174 13       		.uleb128 0x13
 2574 0175 00       		.byte	0
 2575 0176 00       		.byte	0
 2576 0177 1F       		.uleb128 0x1f
 2577 0178 8A8201   		.uleb128 0x410a
 2578 017b 00       		.byte	0
 2579 017c 02       		.uleb128 0x2
 2580 017d 18       		.uleb128 0x18
 2581 017e 9142     		.uleb128 0x2111
 2582 0180 18       		.uleb128 0x18
 2583 0181 00       		.byte	0
 2584 0182 00       		.byte	0
 2585 0183 20       		.uleb128 0x20
 2586 0184 05       		.uleb128 0x5
 2587 0185 00       		.byte	0
 2588 0186 03       		.uleb128 0x3
 2589 0187 0E       		.uleb128 0xe
 2590 0188 3A       		.uleb128 0x3a
ARM GAS  C:\Users\Erik\AppData\Local\Temp\ccRdsmWm.s 			page 74


 2591 0189 0B       		.uleb128 0xb
 2592 018a 3B       		.uleb128 0x3b
 2593 018b 05       		.uleb128 0x5
 2594 018c 49       		.uleb128 0x49
 2595 018d 13       		.uleb128 0x13
 2596 018e 02       		.uleb128 0x2
 2597 018f 18       		.uleb128 0x18
 2598 0190 00       		.byte	0
 2599 0191 00       		.byte	0
 2600 0192 21       		.uleb128 0x21
 2601 0193 2E       		.uleb128 0x2e
 2602 0194 01       		.byte	0x1
 2603 0195 3F       		.uleb128 0x3f
 2604 0196 19       		.uleb128 0x19
 2605 0197 03       		.uleb128 0x3
 2606 0198 0E       		.uleb128 0xe
 2607 0199 3A       		.uleb128 0x3a
 2608 019a 0B       		.uleb128 0xb
 2609 019b 3B       		.uleb128 0x3b
 2610 019c 05       		.uleb128 0x5
 2611 019d 27       		.uleb128 0x27
 2612 019e 19       		.uleb128 0x19
 2613 019f 49       		.uleb128 0x49
 2614 01a0 13       		.uleb128 0x13
 2615 01a1 11       		.uleb128 0x11
 2616 01a2 01       		.uleb128 0x1
 2617 01a3 12       		.uleb128 0x12
 2618 01a4 06       		.uleb128 0x6
 2619 01a5 40       		.uleb128 0x40
 2620 01a6 18       		.uleb128 0x18
 2621 01a7 9742     		.uleb128 0x2117
 2622 01a9 19       		.uleb128 0x19
 2623 01aa 01       		.uleb128 0x1
 2624 01ab 13       		.uleb128 0x13
 2625 01ac 00       		.byte	0
 2626 01ad 00       		.byte	0
 2627 01ae 22       		.uleb128 0x22
 2628 01af 898201   		.uleb128 0x4109
 2629 01b2 01       		.byte	0x1
 2630 01b3 11       		.uleb128 0x11
 2631 01b4 01       		.uleb128 0x1
 2632 01b5 31       		.uleb128 0x31
 2633 01b6 13       		.uleb128 0x13
 2634 01b7 01       		.uleb128 0x1
 2635 01b8 13       		.uleb128 0x13
 2636 01b9 00       		.byte	0
 2637 01ba 00       		.byte	0
 2638 01bb 23       		.uleb128 0x23
 2639 01bc 34       		.uleb128 0x34
 2640 01bd 00       		.byte	0
 2641 01be 03       		.uleb128 0x3
 2642 01bf 0E       		.uleb128 0xe
 2643 01c0 3A       		.uleb128 0x3a
 2644 01c1 0B       		.uleb128 0xb
 2645 01c2 3B       		.uleb128 0x3b
 2646 01c3 05       		.uleb128 0x5
 2647 01c4 49       		.uleb128 0x49
ARM GAS  C:\Users\Erik\AppData\Local\Temp\ccRdsmWm.s 			page 75


 2648 01c5 13       		.uleb128 0x13
 2649 01c6 3F       		.uleb128 0x3f
 2650 01c7 19       		.uleb128 0x19
 2651 01c8 3C       		.uleb128 0x3c
 2652 01c9 19       		.uleb128 0x19
 2653 01ca 00       		.byte	0
 2654 01cb 00       		.byte	0
 2655 01cc 24       		.uleb128 0x24
 2656 01cd 2E       		.uleb128 0x2e
 2657 01ce 00       		.byte	0
 2658 01cf 3F       		.uleb128 0x3f
 2659 01d0 19       		.uleb128 0x19
 2660 01d1 3C       		.uleb128 0x3c
 2661 01d2 19       		.uleb128 0x19
 2662 01d3 6E       		.uleb128 0x6e
 2663 01d4 0E       		.uleb128 0xe
 2664 01d5 03       		.uleb128 0x3
 2665 01d6 0E       		.uleb128 0xe
 2666 01d7 3A       		.uleb128 0x3a
 2667 01d8 0B       		.uleb128 0xb
 2668 01d9 3B       		.uleb128 0x3b
 2669 01da 0B       		.uleb128 0xb
 2670 01db 00       		.byte	0
 2671 01dc 00       		.byte	0
 2672 01dd 00       		.byte	0
 2673              		.section	.debug_loc,"",%progbits
 2674              	.Ldebug_loc0:
 2675              	.LLST0:
 2676 0000 02000000 		.4byte	.LVL0
 2677 0004 06000000 		.4byte	.LVL1
 2678 0008 0200     		.2byte	0x2
 2679 000a 30       		.byte	0x30
 2680 000b 9F       		.byte	0x9f
 2681 000c 06000000 		.4byte	.LVL1
 2682 0010 22000000 		.4byte	.LVL3
 2683 0014 0100     		.2byte	0x1
 2684 0016 53       		.byte	0x53
 2685 0017 24000000 		.4byte	.LVL4
 2686 001b 48000000 		.4byte	.LVL10
 2687 001f 0100     		.2byte	0x1
 2688 0021 55       		.byte	0x55
 2689 0022 48000000 		.4byte	.LVL10
 2690 0026 4A000000 		.4byte	.LVL11
 2691 002a 0100     		.2byte	0x1
 2692 002c 53       		.byte	0x53
 2693 002d 4A000000 		.4byte	.LVL11
 2694 0031 4E000000 		.4byte	.LVL13
 2695 0035 0100     		.2byte	0x1
 2696 0037 55       		.byte	0x55
 2697 0038 4E000000 		.4byte	.LVL13
 2698 003c 58000000 		.4byte	.LFE1
 2699 0040 0300     		.2byte	0x3
 2700 0042 73       		.byte	0x73
 2701 0043 7F       		.sleb128 -1
 2702 0044 9F       		.byte	0x9f
 2703 0045 00000000 		.4byte	0
 2704 0049 00000000 		.4byte	0
ARM GAS  C:\Users\Erik\AppData\Local\Temp\ccRdsmWm.s 			page 76


 2705              	.LLST1:
 2706 004d 28000000 		.4byte	.LVL6
 2707 0051 40000000 		.4byte	.LVL7
 2708 0055 0100     		.2byte	0x1
 2709 0057 52       		.byte	0x52
 2710 0058 00000000 		.4byte	0
 2711 005c 00000000 		.4byte	0
 2712              	.LLST2:
 2713 0060 26000000 		.4byte	.LVL5
 2714 0064 48000000 		.4byte	.LVL10
 2715 0068 0100     		.2byte	0x1
 2716 006a 56       		.byte	0x56
 2717 006b 00000000 		.4byte	0
 2718 006f 00000000 		.4byte	0
 2719              	.LLST3:
 2720 0073 24000000 		.4byte	.LVL4
 2721 0077 4E000000 		.4byte	.LVL12
 2722 007b 0100     		.2byte	0x1
 2723 007d 54       		.byte	0x54
 2724 007e 00000000 		.4byte	0
 2725 0082 00000000 		.4byte	0
 2726              	.LLST4:
 2727 0086 00000000 		.4byte	.LVL14
 2728 008a 08000000 		.4byte	.LVL15
 2729 008e 0100     		.2byte	0x1
 2730 0090 50       		.byte	0x50
 2731 0091 08000000 		.4byte	.LVL15
 2732 0095 30000000 		.4byte	.LVL21
 2733 0099 0100     		.2byte	0x1
 2734 009b 54       		.byte	0x54
 2735 009c 30000000 		.4byte	.LVL21
 2736 00a0 32000000 		.4byte	.LFE5
 2737 00a4 0400     		.2byte	0x4
 2738 00a6 F3       		.byte	0xf3
 2739 00a7 01       		.uleb128 0x1
 2740 00a8 50       		.byte	0x50
 2741 00a9 9F       		.byte	0x9f
 2742 00aa 00000000 		.4byte	0
 2743 00ae 00000000 		.4byte	0
 2744              	.LLST5:
 2745 00b2 00000000 		.4byte	.LVL14
 2746 00b6 0E000000 		.4byte	.LVL18
 2747 00ba 0100     		.2byte	0x1
 2748 00bc 51       		.byte	0x51
 2749 00bd 0E000000 		.4byte	.LVL18
 2750 00c1 15000000 		.4byte	.LVL19-1
 2751 00c5 0100     		.2byte	0x1
 2752 00c7 50       		.byte	0x50
 2753 00c8 15000000 		.4byte	.LVL19-1
 2754 00cc 32000000 		.4byte	.LFE5
 2755 00d0 0400     		.2byte	0x4
 2756 00d2 F3       		.byte	0xf3
 2757 00d3 01       		.uleb128 0x1
 2758 00d4 51       		.byte	0x51
 2759 00d5 9F       		.byte	0x9f
 2760 00d6 00000000 		.4byte	0
 2761 00da 00000000 		.4byte	0
ARM GAS  C:\Users\Erik\AppData\Local\Temp\ccRdsmWm.s 			page 77


 2762              	.LLST6:
 2763 00de 00000000 		.4byte	.LVL14
 2764 00e2 0C000000 		.4byte	.LVL17
 2765 00e6 0100     		.2byte	0x1
 2766 00e8 52       		.byte	0x52
 2767 00e9 0C000000 		.4byte	.LVL17
 2768 00ed 15000000 		.4byte	.LVL19-1
 2769 00f1 0100     		.2byte	0x1
 2770 00f3 53       		.byte	0x53
 2771 00f4 15000000 		.4byte	.LVL19-1
 2772 00f8 32000000 		.4byte	.LFE5
 2773 00fc 0400     		.2byte	0x4
 2774 00fe F3       		.byte	0xf3
 2775 00ff 01       		.uleb128 0x1
 2776 0100 52       		.byte	0x52
 2777 0101 9F       		.byte	0x9f
 2778 0102 00000000 		.4byte	0
 2779 0106 00000000 		.4byte	0
 2780              	.LLST7:
 2781 010a 0A000000 		.4byte	.LVL16
 2782 010e 30000000 		.4byte	.LVL20
 2783 0112 0100     		.2byte	0x1
 2784 0114 5D       		.byte	0x5d
 2785 0115 30000000 		.4byte	.LVL20
 2786 0119 32000000 		.4byte	.LFE5
 2787 011d 0300     		.2byte	0x3
 2788 011f 91       		.byte	0x91
 2789 0120 70       		.sleb128 -16
 2790 0121 9F       		.byte	0x9f
 2791 0122 00000000 		.4byte	0
 2792 0126 00000000 		.4byte	0
 2793              	.LLST8:
 2794 012a 00000000 		.4byte	.LVL22
 2795 012e 0E000000 		.4byte	.LVL25
 2796 0132 0100     		.2byte	0x1
 2797 0134 50       		.byte	0x50
 2798 0135 0E000000 		.4byte	.LVL25
 2799 0139 16000000 		.4byte	.LFE6
 2800 013d 0400     		.2byte	0x4
 2801 013f F3       		.byte	0xf3
 2802 0140 01       		.uleb128 0x1
 2803 0141 50       		.byte	0x50
 2804 0142 9F       		.byte	0x9f
 2805 0143 00000000 		.4byte	0
 2806 0147 00000000 		.4byte	0
 2807              	.LLST9:
 2808 014b 02000000 		.4byte	.LVL23
 2809 014f 08000000 		.4byte	.LVL24
 2810 0153 0200     		.2byte	0x2
 2811 0155 30       		.byte	0x30
 2812 0156 9F       		.byte	0x9f
 2813 0157 08000000 		.4byte	.LVL24
 2814 015b 14000000 		.4byte	.LVL26
 2815 015f 0100     		.2byte	0x1
 2816 0161 54       		.byte	0x54
 2817 0162 14000000 		.4byte	.LVL26
 2818 0166 16000000 		.4byte	.LFE6
ARM GAS  C:\Users\Erik\AppData\Local\Temp\ccRdsmWm.s 			page 78


 2819 016a 0600     		.2byte	0x6
 2820 016c 73       		.byte	0x73
 2821 016d 00       		.sleb128 0
 2822 016e 72       		.byte	0x72
 2823 016f 00       		.sleb128 0
 2824 0170 1C       		.byte	0x1c
 2825 0171 9F       		.byte	0x9f
 2826 0172 00000000 		.4byte	0
 2827 0176 00000000 		.4byte	0
 2828              	.LLST10:
 2829 017a 00000000 		.4byte	.LVL27
 2830 017e 36000000 		.4byte	.LVL36
 2831 0182 0100     		.2byte	0x1
 2832 0184 50       		.byte	0x50
 2833 0185 36000000 		.4byte	.LVL36
 2834 0189 86000000 		.4byte	.LVL56
 2835 018d 0100     		.2byte	0x1
 2836 018f 5A       		.byte	0x5a
 2837 0190 86000000 		.4byte	.LVL56
 2838 0194 90000000 		.4byte	.LFE2
 2839 0198 0400     		.2byte	0x4
 2840 019a F3       		.byte	0xf3
 2841 019b 01       		.uleb128 0x1
 2842 019c 50       		.byte	0x50
 2843 019d 9F       		.byte	0x9f
 2844 019e 00000000 		.4byte	0
 2845 01a2 00000000 		.4byte	0
 2846              	.LLST11:
 2847 01a6 0E000000 		.4byte	.LVL28
 2848 01aa 36000000 		.4byte	.LVL36
 2849 01ae 0200     		.2byte	0x2
 2850 01b0 30       		.byte	0x30
 2851 01b1 9F       		.byte	0x9f
 2852 01b2 36000000 		.4byte	.LVL36
 2853 01b6 62000000 		.4byte	.LVL42
 2854 01ba 0200     		.2byte	0x2
 2855 01bc 91       		.byte	0x91
 2856 01bd 5C       		.sleb128 -36
 2857 01be 62000000 		.4byte	.LVL42
 2858 01c2 66000000 		.4byte	.LVL43
 2859 01c6 0100     		.2byte	0x1
 2860 01c8 50       		.byte	0x50
 2861 01c9 66000000 		.4byte	.LVL43
 2862 01cd 90000000 		.4byte	.LFE2
 2863 01d1 0200     		.2byte	0x2
 2864 01d3 91       		.byte	0x91
 2865 01d4 5C       		.sleb128 -36
 2866 01d5 00000000 		.4byte	0
 2867 01d9 00000000 		.4byte	0
 2868              	.LLST12:
 2869 01dd 2C000000 		.4byte	.LVL34
 2870 01e1 86000000 		.4byte	.LVL50
 2871 01e5 0200     		.2byte	0x2
 2872 01e7 7D       		.byte	0x7d
 2873 01e8 00       		.sleb128 0
 2874 01e9 86000000 		.4byte	.LVL50
 2875 01ed 90000000 		.4byte	.LFE2
ARM GAS  C:\Users\Erik\AppData\Local\Temp\ccRdsmWm.s 			page 79


 2876 01f1 0200     		.2byte	0x2
 2877 01f3 91       		.byte	0x91
 2878 01f4 58       		.sleb128 -40
 2879 01f5 00000000 		.4byte	0
 2880 01f9 00000000 		.4byte	0
 2881              	.LLST13:
 2882 01fd 2E000000 		.4byte	.LVL35
 2883 0201 36000000 		.4byte	.LVL36
 2884 0205 0200     		.2byte	0x2
 2885 0207 30       		.byte	0x30
 2886 0208 9F       		.byte	0x9f
 2887 0209 36000000 		.4byte	.LVL36
 2888 020d 86000000 		.4byte	.LVL52
 2889 0211 0100     		.2byte	0x1
 2890 0213 55       		.byte	0x55
 2891 0214 00000000 		.4byte	0
 2892 0218 00000000 		.4byte	0
 2893              	.LLST14:
 2894 021c 28000000 		.4byte	.LVL32
 2895 0220 86000000 		.4byte	.LVL51
 2896 0224 0100     		.2byte	0x1
 2897 0226 54       		.byte	0x54
 2898 0227 00000000 		.4byte	0
 2899 022b 00000000 		.4byte	0
 2900              	.LLST15:
 2901 022f 2A000000 		.4byte	.LVL33
 2902 0233 86000000 		.4byte	.LVL53
 2903 0237 0100     		.2byte	0x1
 2904 0239 56       		.byte	0x56
 2905 023a 00000000 		.4byte	0
 2906 023e 00000000 		.4byte	0
 2907              	.LLST16:
 2908 0242 2E000000 		.4byte	.LVL35
 2909 0246 86000000 		.4byte	.LVL54
 2910 024a 0100     		.2byte	0x1
 2911 024c 57       		.byte	0x57
 2912 024d 00000000 		.4byte	0
 2913 0251 00000000 		.4byte	0
 2914              	.LLST17:
 2915 0255 22000000 		.4byte	.LVL30
 2916 0259 26000000 		.4byte	.LVL31
 2917 025d 0100     		.2byte	0x1
 2918 025f 52       		.byte	0x52
 2919 0260 36000000 		.4byte	.LVL36
 2920 0264 86000000 		.4byte	.LVL55
 2921 0268 0100     		.2byte	0x1
 2922 026a 59       		.byte	0x59
 2923 026b 00000000 		.4byte	0
 2924 026f 00000000 		.4byte	0
 2925              	.LLST18:
 2926 0273 1E000000 		.4byte	.LVL29
 2927 0277 72000000 		.4byte	.LVL46
 2928 027b 0100     		.2byte	0x1
 2929 027d 5B       		.byte	0x5b
 2930 027e 72000000 		.4byte	.LVL46
 2931 0282 74000000 		.4byte	.LVL47
 2932 0286 0100     		.2byte	0x1
ARM GAS  C:\Users\Erik\AppData\Local\Temp\ccRdsmWm.s 			page 80


 2933 0288 53       		.byte	0x53
 2934 0289 74000000 		.4byte	.LVL47
 2935 028d 86000000 		.4byte	.LVL57
 2936 0291 0100     		.2byte	0x1
 2937 0293 5B       		.byte	0x5b
 2938 0294 00000000 		.4byte	0
 2939 0298 00000000 		.4byte	0
 2940              	.LLST19:
 2941 029c 00000000 		.4byte	.LVL58
 2942 02a0 18000000 		.4byte	.LVL65
 2943 02a4 0100     		.2byte	0x1
 2944 02a6 50       		.byte	0x50
 2945 02a7 18000000 		.4byte	.LVL65
 2946 02ab 60000000 		.4byte	.LFE3
 2947 02af 0400     		.2byte	0x4
 2948 02b1 F3       		.byte	0xf3
 2949 02b2 01       		.uleb128 0x1
 2950 02b3 50       		.byte	0x50
 2951 02b4 9F       		.byte	0x9f
 2952 02b5 00000000 		.4byte	0
 2953 02b9 00000000 		.4byte	0
 2954              	.LLST20:
 2955 02bd 00000000 		.4byte	.LVL58
 2956 02c1 1B000000 		.4byte	.LVL66-1
 2957 02c5 0100     		.2byte	0x1
 2958 02c7 51       		.byte	0x51
 2959 02c8 1B000000 		.4byte	.LVL66-1
 2960 02cc 5E000000 		.4byte	.LVL77
 2961 02d0 0200     		.2byte	0x2
 2962 02d2 7D       		.byte	0x7d
 2963 02d3 00       		.sleb128 0
 2964 02d4 5E000000 		.4byte	.LVL77
 2965 02d8 60000000 		.4byte	.LFE3
 2966 02dc 0200     		.2byte	0x2
 2967 02de 91       		.byte	0x91
 2968 02df 60       		.sleb128 -32
 2969 02e0 00000000 		.4byte	0
 2970 02e4 00000000 		.4byte	0
 2971              	.LLST21:
 2972 02e8 00000000 		.4byte	.LVL58
 2973 02ec 16000000 		.4byte	.LVL64
 2974 02f0 0100     		.2byte	0x1
 2975 02f2 52       		.byte	0x52
 2976 02f3 1C000000 		.4byte	.LVL66
 2977 02f7 28000000 		.4byte	.LVL67
 2978 02fb 0100     		.2byte	0x1
 2979 02fd 52       		.byte	0x52
 2980 02fe 2C000000 		.4byte	.LVL68
 2981 0302 32000000 		.4byte	.LVL69
 2982 0306 0100     		.2byte	0x1
 2983 0308 52       		.byte	0x52
 2984 0309 3A000000 		.4byte	.LVL70
 2985 030d 40000000 		.4byte	.LVL71
 2986 0311 0100     		.2byte	0x1
 2987 0313 52       		.byte	0x52
 2988 0314 4C000000 		.4byte	.LVL74
 2989 0318 59000000 		.4byte	.LVL76-1
ARM GAS  C:\Users\Erik\AppData\Local\Temp\ccRdsmWm.s 			page 81


 2990 031c 0100     		.2byte	0x1
 2991 031e 52       		.byte	0x52
 2992 031f 5A000000 		.4byte	.LVL76
 2993 0323 60000000 		.4byte	.LFE3
 2994 0327 0100     		.2byte	0x1
 2995 0329 52       		.byte	0x52
 2996 032a 00000000 		.4byte	0
 2997 032e 00000000 		.4byte	0
 2998              	.LLST22:
 2999 0332 00000000 		.4byte	.LVL58
 3000 0336 14000000 		.4byte	.LVL63
 3001 033a 0100     		.2byte	0x1
 3002 033c 53       		.byte	0x53
 3003 033d 14000000 		.4byte	.LVL63
 3004 0341 5E000000 		.4byte	.LVL78
 3005 0345 0100     		.2byte	0x1
 3006 0347 54       		.byte	0x54
 3007 0348 5E000000 		.4byte	.LVL78
 3008 034c 60000000 		.4byte	.LFE3
 3009 0350 0400     		.2byte	0x4
 3010 0352 F3       		.byte	0xf3
 3011 0353 01       		.uleb128 0x1
 3012 0354 53       		.byte	0x53
 3013 0355 9F       		.byte	0x9f
 3014 0356 00000000 		.4byte	0
 3015 035a 00000000 		.4byte	0
 3016              	.LLST23:
 3017 035e 0A000000 		.4byte	.LVL59
 3018 0362 4A000000 		.4byte	.LVL73
 3019 0366 0200     		.2byte	0x2
 3020 0368 30       		.byte	0x30
 3021 0369 9F       		.byte	0x9f
 3022 036a 4A000000 		.4byte	.LVL73
 3023 036e 4C000000 		.4byte	.LVL74
 3024 0372 0100     		.2byte	0x1
 3025 0374 50       		.byte	0x50
 3026 0375 4C000000 		.4byte	.LVL74
 3027 0379 4E000000 		.4byte	.LVL75
 3028 037d 0200     		.2byte	0x2
 3029 037f 30       		.byte	0x30
 3030 0380 9F       		.byte	0x9f
 3031 0381 4E000000 		.4byte	.LVL75
 3032 0385 5E000000 		.4byte	.LVL81
 3033 0389 0100     		.2byte	0x1
 3034 038b 57       		.byte	0x57
 3035 038c 5E000000 		.4byte	.LVL81
 3036 0390 60000000 		.4byte	.LFE3
 3037 0394 0100     		.2byte	0x1
 3038 0396 50       		.byte	0x50
 3039 0397 00000000 		.4byte	0
 3040 039b 00000000 		.4byte	0
 3041              	.LLST24:
 3042 039f 0E000000 		.4byte	.LVL61
 3043 03a3 4A000000 		.4byte	.LVL73
 3044 03a7 0100     		.2byte	0x1
 3045 03a9 57       		.byte	0x57
 3046 03aa 4C000000 		.4byte	.LVL74
ARM GAS  C:\Users\Erik\AppData\Local\Temp\ccRdsmWm.s 			page 82


 3047 03ae 4E000000 		.4byte	.LVL75
 3048 03b2 0100     		.2byte	0x1
 3049 03b4 57       		.byte	0x57
 3050 03b5 00000000 		.4byte	0
 3051 03b9 00000000 		.4byte	0
 3052              	.LLST25:
 3053 03bd 10000000 		.4byte	.LVL62
 3054 03c1 5E000000 		.4byte	.LVL79
 3055 03c5 0100     		.2byte	0x1
 3056 03c7 55       		.byte	0x55
 3057 03c8 00000000 		.4byte	0
 3058 03cc 00000000 		.4byte	0
 3059              	.LLST26:
 3060 03d0 0C000000 		.4byte	.LVL60
 3061 03d4 5E000000 		.4byte	.LVL80
 3062 03d8 0100     		.2byte	0x1
 3063 03da 56       		.byte	0x56
 3064 03db 00000000 		.4byte	0
 3065 03df 00000000 		.4byte	0
 3066              	.LLST27:
 3067 03e3 00000000 		.4byte	.LVL82
 3068 03e7 44000000 		.4byte	.LVL94
 3069 03eb 0100     		.2byte	0x1
 3070 03ed 50       		.byte	0x50
 3071 03ee 44000000 		.4byte	.LVL94
 3072 03f2 64000000 		.4byte	.LFE7
 3073 03f6 0100     		.2byte	0x1
 3074 03f8 50       		.byte	0x50
 3075 03f9 00000000 		.4byte	0
 3076 03fd 00000000 		.4byte	0
 3077              	.LLST28:
 3078 0401 00000000 		.4byte	.LVL82
 3079 0405 0C000000 		.4byte	.LVL87
 3080 0409 0100     		.2byte	0x1
 3081 040b 51       		.byte	0x51
 3082 040c 0C000000 		.4byte	.LVL87
 3083 0410 64000000 		.4byte	.LFE7
 3084 0414 0400     		.2byte	0x4
 3085 0416 F3       		.byte	0xf3
 3086 0417 01       		.uleb128 0x1
 3087 0418 51       		.byte	0x51
 3088 0419 9F       		.byte	0x9f
 3089 041a 00000000 		.4byte	0
 3090 041e 00000000 		.4byte	0
 3091              	.LLST29:
 3092 0422 04000000 		.4byte	.LVL83
 3093 0426 0E000000 		.4byte	.LVL88
 3094 042a 0100     		.2byte	0x1
 3095 042c 52       		.byte	0x52
 3096 042d 0E000000 		.4byte	.LVL88
 3097 0431 10000000 		.4byte	.LVL89
 3098 0435 0100     		.2byte	0x1
 3099 0437 54       		.byte	0x54
 3100 0438 10000000 		.4byte	.LVL89
 3101 043c 5A000000 		.4byte	.LVL102
 3102 0440 0100     		.2byte	0x1
 3103 0442 5C       		.byte	0x5c
ARM GAS  C:\Users\Erik\AppData\Local\Temp\ccRdsmWm.s 			page 83


 3104 0443 5A000000 		.4byte	.LVL102
 3105 0447 5E000000 		.4byte	.LVL103
 3106 044b 0100     		.2byte	0x1
 3107 044d 52       		.byte	0x52
 3108 044e 5E000000 		.4byte	.LVL103
 3109 0452 62000000 		.4byte	.LVL104
 3110 0456 0100     		.2byte	0x1
 3111 0458 54       		.byte	0x54
 3112 0459 62000000 		.4byte	.LVL104
 3113 045d 64000000 		.4byte	.LFE7
 3114 0461 0100     		.2byte	0x1
 3115 0463 5C       		.byte	0x5c
 3116 0464 00000000 		.4byte	0
 3117 0468 00000000 		.4byte	0
 3118              	.LLST30:
 3119 046c 0A000000 		.4byte	.LVL86
 3120 0470 0E000000 		.4byte	.LVL88
 3121 0474 0200     		.2byte	0x2
 3122 0476 31       		.byte	0x31
 3123 0477 9F       		.byte	0x9f
 3124 0478 0E000000 		.4byte	.LVL88
 3125 047c 64000000 		.4byte	.LFE7
 3126 0480 0100     		.2byte	0x1
 3127 0482 51       		.byte	0x51
 3128 0483 00000000 		.4byte	0
 3129 0487 00000000 		.4byte	0
 3130              	.LLST31:
 3131 048b 2E000000 		.4byte	.LVL93
 3132 048f 4C000000 		.4byte	.LVL96
 3133 0493 0100     		.2byte	0x1
 3134 0495 52       		.byte	0x52
 3135 0496 4E000000 		.4byte	.LVL97
 3136 049a 50000000 		.4byte	.LVL98
 3137 049e 0100     		.2byte	0x1
 3138 04a0 52       		.byte	0x52
 3139 04a1 00000000 		.4byte	0
 3140 04a5 00000000 		.4byte	0
 3141              	.LLST32:
 3142 04a9 22000000 		.4byte	.LVL90
 3143 04ad 2A000000 		.4byte	.LVL91
 3144 04b1 0100     		.2byte	0x1
 3145 04b3 52       		.byte	0x52
 3146 04b4 2C000000 		.4byte	.LVL92
 3147 04b8 2E000000 		.4byte	.LVL93
 3148 04bc 0100     		.2byte	0x1
 3149 04be 52       		.byte	0x52
 3150 04bf 00000000 		.4byte	0
 3151 04c3 00000000 		.4byte	0
 3152              	.LLST33:
 3153 04c7 06000000 		.4byte	.LVL84
 3154 04cb 62000000 		.4byte	.LVL105
 3155 04cf 0100     		.2byte	0x1
 3156 04d1 55       		.byte	0x55
 3157 04d2 00000000 		.4byte	0
 3158 04d6 00000000 		.4byte	0
 3159              	.LLST34:
 3160 04da 08000000 		.4byte	.LVL85
ARM GAS  C:\Users\Erik\AppData\Local\Temp\ccRdsmWm.s 			page 84


 3161 04de 62000000 		.4byte	.LVL106
 3162 04e2 0100     		.2byte	0x1
 3163 04e4 57       		.byte	0x57
 3164 04e5 00000000 		.4byte	0
 3165 04e9 00000000 		.4byte	0
 3166              	.LLST35:
 3167 04ed 00000000 		.4byte	.LVL107
 3168 04f1 0C000000 		.4byte	.LVL109
 3169 04f5 0100     		.2byte	0x1
 3170 04f7 50       		.byte	0x50
 3171 04f8 0C000000 		.4byte	.LVL109
 3172 04fc 30000000 		.4byte	.LVL116
 3173 0500 0100     		.2byte	0x1
 3174 0502 54       		.byte	0x54
 3175 0503 30000000 		.4byte	.LVL116
 3176 0507 5C000000 		.4byte	.LFE4
 3177 050b 0400     		.2byte	0x4
 3178 050d F3       		.byte	0xf3
 3179 050e 01       		.uleb128 0x1
 3180 050f 50       		.byte	0x50
 3181 0510 9F       		.byte	0x9f
 3182 0511 00000000 		.4byte	0
 3183 0515 00000000 		.4byte	0
 3184              	.LLST36:
 3185 0519 00000000 		.4byte	.LVL107
 3186 051d 17000000 		.4byte	.LVL111-1
 3187 0521 0100     		.2byte	0x1
 3188 0523 51       		.byte	0x51
 3189 0524 17000000 		.4byte	.LVL111-1
 3190 0528 1C000000 		.4byte	.LVL113
 3191 052c 0400     		.2byte	0x4
 3192 052e F3       		.byte	0xf3
 3193 052f 01       		.uleb128 0x1
 3194 0530 51       		.byte	0x51
 3195 0531 9F       		.byte	0x9f
 3196 0532 1C000000 		.4byte	.LVL113
 3197 0536 21000000 		.4byte	.LVL114-1
 3198 053a 0100     		.2byte	0x1
 3199 053c 51       		.byte	0x51
 3200 053d 21000000 		.4byte	.LVL114-1
 3201 0541 5C000000 		.4byte	.LFE4
 3202 0545 0400     		.2byte	0x4
 3203 0547 F3       		.byte	0xf3
 3204 0548 01       		.uleb128 0x1
 3205 0549 51       		.byte	0x51
 3206 054a 9F       		.byte	0x9f
 3207 054b 00000000 		.4byte	0
 3208 054f 00000000 		.4byte	0
 3209              	.LLST37:
 3210 0553 0E000000 		.4byte	.LVL110
 3211 0557 1A000000 		.4byte	.LVL112
 3212 055b 0100     		.2byte	0x1
 3213 055d 55       		.byte	0x55
 3214 055e 1A000000 		.4byte	.LVL112
 3215 0562 1C000000 		.4byte	.LVL113
 3216 0566 0100     		.2byte	0x1
 3217 0568 50       		.byte	0x50
ARM GAS  C:\Users\Erik\AppData\Local\Temp\ccRdsmWm.s 			page 85


 3218 0569 1C000000 		.4byte	.LVL113
 3219 056d 56000000 		.4byte	.LVL125
 3220 0571 0100     		.2byte	0x1
 3221 0573 55       		.byte	0x55
 3222 0574 00000000 		.4byte	0
 3223 0578 00000000 		.4byte	0
 3224              	.LLST38:
 3225 057c 2C000000 		.4byte	.LVL115
 3226 0580 3A000000 		.4byte	.LVL118
 3227 0584 0100     		.2byte	0x1
 3228 0586 53       		.byte	0x53
 3229 0587 3A000000 		.4byte	.LVL118
 3230 058b 3C000000 		.4byte	.LVL119
 3231 058f 0300     		.2byte	0x3
 3232 0591 73       		.byte	0x73
 3233 0592 7C       		.sleb128 -4
 3234 0593 9F       		.byte	0x9f
 3235 0594 3C000000 		.4byte	.LVL119
 3236 0598 48000000 		.4byte	.LVL120
 3237 059c 0600     		.2byte	0x6
 3238 059e F3       		.byte	0xf3
 3239 059f 01       		.uleb128 0x1
 3240 05a0 50       		.byte	0x50
 3241 05a1 35       		.byte	0x35
 3242 05a2 25       		.byte	0x25
 3243 05a3 9F       		.byte	0x9f
 3244 05a4 48000000 		.4byte	.LVL120
 3245 05a8 4A000000 		.4byte	.LVL121
 3246 05ac 0100     		.2byte	0x1
 3247 05ae 53       		.byte	0x53
 3248 05af 4A000000 		.4byte	.LVL121
 3249 05b3 4C000000 		.4byte	.LVL122
 3250 05b7 0300     		.2byte	0x3
 3251 05b9 73       		.byte	0x73
 3252 05ba 7C       		.sleb128 -4
 3253 05bb 9F       		.byte	0x9f
 3254 05bc 4C000000 		.4byte	.LVL122
 3255 05c0 5C000000 		.4byte	.LFE4
 3256 05c4 0600     		.2byte	0x6
 3257 05c6 F3       		.byte	0xf3
 3258 05c7 01       		.uleb128 0x1
 3259 05c8 50       		.byte	0x50
 3260 05c9 35       		.byte	0x35
 3261 05ca 25       		.byte	0x25
 3262 05cb 9F       		.byte	0x9f
 3263 05cc 00000000 		.4byte	0
 3264 05d0 00000000 		.4byte	0
 3265              	.LLST39:
 3266 05d4 34000000 		.4byte	.LVL117
 3267 05d8 54000000 		.4byte	.LVL123
 3268 05dc 0100     		.2byte	0x1
 3269 05de 52       		.byte	0x52
 3270 05df 54000000 		.4byte	.LVL123
 3271 05e3 56000000 		.4byte	.LVL124
 3272 05e7 0500     		.2byte	0x5
 3273 05e9 31       		.byte	0x31
 3274 05ea 74       		.byte	0x74
ARM GAS  C:\Users\Erik\AppData\Local\Temp\ccRdsmWm.s 			page 86


 3275 05eb 00       		.sleb128 0
 3276 05ec 24       		.byte	0x24
 3277 05ed 9F       		.byte	0x9f
 3278 05ee 56000000 		.4byte	.LVL124
 3279 05f2 5C000000 		.4byte	.LFE4
 3280 05f6 0800     		.2byte	0x8
 3281 05f8 31       		.byte	0x31
 3282 05f9 F3       		.byte	0xf3
 3283 05fa 01       		.uleb128 0x1
 3284 05fb 50       		.byte	0x50
 3285 05fc 4F       		.byte	0x4f
 3286 05fd 1A       		.byte	0x1a
 3287 05fe 24       		.byte	0x24
 3288 05ff 9F       		.byte	0x9f
 3289 0600 00000000 		.4byte	0
 3290 0604 00000000 		.4byte	0
 3291              	.LLST40:
 3292 0608 06000000 		.4byte	.LVL108
 3293 060c 17000000 		.4byte	.LVL111-1
 3294 0610 0100     		.2byte	0x1
 3295 0612 52       		.byte	0x52
 3296 0613 1C000000 		.4byte	.LVL113
 3297 0617 21000000 		.4byte	.LVL114-1
 3298 061b 0100     		.2byte	0x1
 3299 061d 52       		.byte	0x52
 3300 061e 00000000 		.4byte	0
 3301 0622 00000000 		.4byte	0
 3302              		.section	.debug_aranges,"",%progbits
 3303 0000 4C000000 		.4byte	0x4c
 3304 0004 0200     		.2byte	0x2
 3305 0006 00000000 		.4byte	.Ldebug_info0
 3306 000a 04       		.byte	0x4
 3307 000b 00       		.byte	0
 3308 000c 0000     		.2byte	0
 3309 000e 0000     		.2byte	0
 3310 0010 00000000 		.4byte	.LFB1
 3311 0014 58000000 		.4byte	.LFE1-.LFB1
 3312 0018 00000000 		.4byte	.LFB5
 3313 001c 32000000 		.4byte	.LFE5-.LFB5
 3314 0020 00000000 		.4byte	.LFB6
 3315 0024 16000000 		.4byte	.LFE6-.LFB6
 3316 0028 00000000 		.4byte	.LFB2
 3317 002c 90000000 		.4byte	.LFE2-.LFB2
 3318 0030 00000000 		.4byte	.LFB3
 3319 0034 60000000 		.4byte	.LFE3-.LFB3
 3320 0038 00000000 		.4byte	.LFB7
 3321 003c 64000000 		.4byte	.LFE7-.LFB7
 3322 0040 00000000 		.4byte	.LFB4
 3323 0044 5C000000 		.4byte	.LFE4-.LFB4
 3324 0048 00000000 		.4byte	0
 3325 004c 00000000 		.4byte	0
 3326              		.section	.debug_ranges,"",%progbits
 3327              	.Ldebug_ranges0:
 3328 0000 00000000 		.4byte	.LFB1
 3329 0004 58000000 		.4byte	.LFE1
 3330 0008 00000000 		.4byte	.LFB5
 3331 000c 32000000 		.4byte	.LFE5
ARM GAS  C:\Users\Erik\AppData\Local\Temp\ccRdsmWm.s 			page 87


 3332 0010 00000000 		.4byte	.LFB6
 3333 0014 16000000 		.4byte	.LFE6
 3334 0018 00000000 		.4byte	.LFB2
 3335 001c 90000000 		.4byte	.LFE2
 3336 0020 00000000 		.4byte	.LFB3
 3337 0024 60000000 		.4byte	.LFE3
 3338 0028 00000000 		.4byte	.LFB7
 3339 002c 64000000 		.4byte	.LFE7
 3340 0030 00000000 		.4byte	.LFB4
 3341 0034 5C000000 		.4byte	.LFE4
 3342 0038 00000000 		.4byte	0
 3343 003c 00000000 		.4byte	0
 3344              		.section	.debug_line,"",%progbits
 3345              	.Ldebug_line0:
 3346 0000 38030000 		.section	.debug_str,"MS",%progbits,1
 3346      0200B601 
 3346      00000201 
 3346      FB0E0D00 
 3346      01010101 
 3347              	.LASF107:
 3348 0000 7074724E 		.ascii	"ptrNoiseEnvelope\000"
 3348      6F697365 
 3348      456E7665 
 3348      6C6F7065 
 3348      00
 3349              	.LASF39:
 3350 0011 43617053 		.ascii	"CapSense_WD_PROXIMITY_E\000"
 3350      656E7365 
 3350      5F57445F 
 3350      50524F58 
 3350      494D4954 
 3351              	.LASF120:
 3352 0029 43617053 		.ascii	"CapSense_DpProcessCsdSensorRawCountsExt\000"
 3352      656E7365 
 3352      5F447050 
 3352      726F6365 
 3352      73734373 
 3353              	.LASF106:
 3354 0051 43617053 		.ascii	"CapSense_DpUpdateThresholds\000"
 3354      656E7365 
 3354      5F447055 
 3354      70646174 
 3354      65546872 
 3355              	.LASF124:
 3356 006d 736E7343 		.ascii	"snsCnt\000"
 3356      6E7400
 3357              	.LASF101:
 3358 0074 77646774 		.ascii	"wdgtId\000"
 3358      496400
 3359              	.LASF117:
 3360 007b 666C7472 		.ascii	"fltrHistV\000"
 3360      48697374 
 3360      5600
 3361              	.LASF75:
 3362 0085 736E7254 		.ascii	"snrTestWidgetId\000"
 3362      65737457 
 3362      69646765 
ARM GAS  C:\Users\Erik\AppData\Local\Temp\ccRdsmWm.s 			page 88


 3362      74496400 
 3363              	.LASF135:
 3364 0095 43617053 		.ascii	"CapSense_dsFlash\000"
 3364      656E7365 
 3364      5F647346 
 3364      6C617368 
 3364      00
 3365              	.LASF129:
 3366 00a6 43617053 		.ascii	"CapSense_DpProcessCsdWidgetStatus\000"
 3366      656E7365 
 3366      5F447050 
 3366      726F6365 
 3366      73734373 
 3367              	.LASF110:
 3368 00c8 70747254 		.ascii	"ptrThresholds\000"
 3368      68726573 
 3368      686F6C64 
 3368      7300
 3369              	.LASF8:
 3370 00d6 756E7369 		.ascii	"unsigned int\000"
 3370      676E6564 
 3370      20696E74 
 3370      00
 3371              	.LASF66:
 3372 00e3 7363616E 		.ascii	"scanCounter\000"
 3372      436F756E 
 3372      74657200 
 3373              	.LASF111:
 3374 00ef 43617053 		.ascii	"CapSense_DpUpdateDifferences\000"
 3374      656E7365 
 3374      5F447055 
 3374      70646174 
 3374      65446966 
 3375              	.LASF64:
 3376 010c 6877436C 		.ascii	"hwClock\000"
 3376      6F636B00 
 3377              	.LASF79:
 3378 0114 7363616E 		.ascii	"scanCsdISC\000"
 3378      43736449 
 3378      534300
 3379              	.LASF141:
 3380 011f 43794861 		.ascii	"CyHalt\000"
 3380      6C7400
 3381              	.LASF113:
 3382 0126 64696666 		.ascii	"diffValue\000"
 3382      56616C75 
 3382      6500
 3383              	.LASF121:
 3384 0130 6D6F6465 		.ascii	"mode\000"
 3384      00
 3385              	.LASF112:
 3386 0135 63757253 		.ascii	"curSnsPtr\000"
 3386      6E735074 
 3386      7200
 3387              	.LASF38:
 3388 013f 43617053 		.ascii	"CapSense_WD_TOUCHPAD_E\000"
 3388      656E7365 
ARM GAS  C:\Users\Erik\AppData\Local\Temp\ccRdsmWm.s 			page 89


 3388      5F57445F 
 3388      544F5543 
 3388      48504144 
 3389              	.LASF54:
 3390 0156 43617053 		.ascii	"CapSense_RAM_WD_LIST_STRUCT\000"
 3390      656E7365 
 3390      5F52414D 
 3390      5F57445F 
 3390      4C495354 
 3391              	.LASF144:
 3392 0172 453A5C68 		.ascii	"E:\\hardware\\cy8ckit-043-slider\\cy8ckit-043-slide"
 3392      61726477 
 3392      6172655C 
 3392      63793863 
 3392      6B69742D 
 3393 01a2 722E6379 		.ascii	"r.cydsn\000"
 3393      64736E00 
 3394              	.LASF137:
 3395 01aa 536D6172 		.ascii	"SmartSense_UpdateThresholds\000"
 3395      7453656E 
 3395      73655F55 
 3395      70646174 
 3395      65546872 
 3396              	.LASF116:
 3397 01c6 70747253 		.ascii	"ptrSnsTmp\000"
 3397      6E73546D 
 3397      7000
 3398              	.LASF46:
 3399 01d0 69646163 		.ascii	"idacGainIndex\000"
 3399      4761696E 
 3399      496E6465 
 3399      7800
 3400              	.LASF126:
 3401 01de 6E657753 		.ascii	"newStatus\000"
 3401      74617475 
 3401      7300
 3402              	.LASF13:
 3403 01e8 666C6F61 		.ascii	"float\000"
 3403      7400
 3404              	.LASF12:
 3405 01ee 696E7433 		.ascii	"int32\000"
 3405      3200
 3406              	.LASF105:
 3407 01f4 43617053 		.ascii	"CapSense_DpInitialize\000"
 3407      656E7365 
 3407      5F447049 
 3407      6E697469 
 3407      616C697A 
 3408              	.LASF140:
 3409 020a 43617053 		.ascii	"CapSense_FtUpdateBaseline\000"
 3409      656E7365 
 3409      5F467455 
 3409      70646174 
 3409      65426173 
 3410              	.LASF74:
 3411 0224 736E734C 		.ascii	"snsList\000"
 3411      69737400 
ARM GAS  C:\Users\Erik\AppData\Local\Temp\ccRdsmWm.s 			page 90


 3412              	.LASF114:
 3413 022c 72657375 		.ascii	"result\000"
 3413      6C7400
 3414              	.LASF7:
 3415 0233 6C6F6E67 		.ascii	"long long unsigned int\000"
 3415      206C6F6E 
 3415      6720756E 
 3415      7369676E 
 3415      65642069 
 3416              	.LASF37:
 3417 024a 43617053 		.ascii	"CapSense_WD_MATRIX_BUTTON_E\000"
 3417      656E7365 
 3417      5F57445F 
 3417      4D415452 
 3417      49585F42 
 3418              	.LASF99:
 3419 0266 70747252 		.ascii	"ptrRegular\000"
 3419      6567756C 
 3419      617200
 3420              	.LASF76:
 3421 0271 736E7254 		.ascii	"snrTestSensorId\000"
 3421      65737453 
 3421      656E736F 
 3421      72496400 
 3422              	.LASF91:
 3423 0281 70747232 		.ascii	"ptr2NoiseEnvlp\000"
 3423      4E6F6973 
 3423      65456E76 
 3423      6C7000
 3424              	.LASF89:
 3425 0290 77646774 		.ascii	"wdgtType\000"
 3425      54797065 
 3425      00
 3426              	.LASF138:
 3427 0299 43617053 		.ascii	"CapSense_FtRunEnabledFiltersInternal\000"
 3427      656E7365 
 3427      5F467452 
 3427      756E456E 
 3427      61626C65 
 3428              	.LASF100:
 3429 02be 43617053 		.ascii	"CapSense_PTR_FILTER_VARIANT\000"
 3429      656E7365 
 3429      5F505452 
 3429      5F46494C 
 3429      5445525F 
 3430              	.LASF142:
 3431 02da 474E5520 		.ascii	"GNU C11 5.4.1 20160609 (release) [ARM/embedded-5-br"
 3431      43313120 
 3431      352E342E 
 3431      31203230 
 3431      31363036 
 3432 030d 616E6368 		.ascii	"anch revision 237715] -mcpu=cortex-m0 -mthumb -g -O"
 3432      20726576 
 3432      6973696F 
 3432      6E203233 
 3432      37373135 
 3433 0340 67202D66 		.ascii	"g -ffunction-sections -ffat-lto-objects\000"
ARM GAS  C:\Users\Erik\AppData\Local\Temp\ccRdsmWm.s 			page 91


 3433      66756E63 
 3433      74696F6E 
 3433      2D736563 
 3433      74696F6E 
 3434              	.LASF97:
 3435 0368 72656775 		.ascii	"regularChannel\000"
 3435      6C617243 
 3435      68616E6E 
 3435      656C00
 3436              	.LASF72:
 3437 0377 6D6F6443 		.ascii	"modCsdClk\000"
 3437      7364436C 
 3437      6B00
 3438              	.LASF60:
 3439 0381 43617053 		.ascii	"CapSense_RAM_SNS_STRUCT\000"
 3439      656E7365 
 3439      5F52414D 
 3439      5F534E53 
 3439      5F535452 
 3440              	.LASF16:
 3441 0399 73697A65 		.ascii	"size_t\000"
 3441      5F7400
 3442              	.LASF50:
 3443 03a0 73696750 		.ascii	"sigPFC\000"
 3443      464300
 3444              	.LASF32:
 3445 03a7 68797374 		.ascii	"hysteresis\000"
 3445      65726573 
 3445      697300
 3446              	.LASF36:
 3447 03b2 43617053 		.ascii	"CapSense_WD_RADIAL_SLIDER_E\000"
 3447      656E7365 
 3447      5F57445F 
 3447      52414449 
 3447      414C5F53 
 3448              	.LASF92:
 3449 03ce 43617053 		.ascii	"CapSense_FLASH_WD_STRUCT\000"
 3449      656E7365 
 3449      5F464C41 
 3449      53485F57 
 3449      445F5354 
 3450              	.LASF44:
 3451 03e7 6C6F7742 		.ascii	"lowBslnRst\000"
 3451      736C6E52 
 3451      737400
 3452              	.LASF88:
 3453 03f2 746F7461 		.ascii	"totalNumSns\000"
 3453      6C4E756D 
 3453      536E7300 
 3454              	.LASF28:
 3455 03fe 534D4152 		.ascii	"SMARTSENSE_CSD_NOISE_ENVELOPE_STRUCT\000"
 3455      5453454E 
 3455      53455F43 
 3455      53445F4E 
 3455      4F495345 
 3456              	.LASF30:
 3457 0423 6E6F6973 		.ascii	"noiseTh\000"
ARM GAS  C:\Users\Erik\AppData\Local\Temp\ccRdsmWm.s 			page 92


 3457      65546800 
 3458              	.LASF15:
 3459 042b 63686172 		.ascii	"char\000"
 3459      00
 3460              	.LASF119:
 3461 0430 43617053 		.ascii	"CapSense_DpProcessCsdWidgetRawCounts\000"
 3461      656E7365 
 3461      5F447050 
 3461      726F6365 
 3461      73734373 
 3462              	.LASF139:
 3463 0455 536D6172 		.ascii	"SmartSense_RunNoiseEnvelope\000"
 3463      7453656E 
 3463      73655F52 
 3463      756E4E6F 
 3463      69736545 
 3464              	.LASF10:
 3465 0471 75696E74 		.ascii	"uint16\000"
 3465      313600
 3466              	.LASF42:
 3467 0478 7265736F 		.ascii	"resolution\000"
 3467      6C757469 
 3467      6F6E00
 3468              	.LASF67:
 3469 0483 73746174 		.ascii	"status\000"
 3469      757300
 3470              	.LASF143:
 3471 048a 47656E65 		.ascii	"Generated_Source\\PSoC4\\CapSense_Processing.c\000"
 3471      72617465 
 3471      645F536F 
 3471      75726365 
 3471      5C50536F 
 3472              	.LASF20:
 3473 04b7 43617053 		.ascii	"CapSense_LOW_BSLN_RST_TYPE\000"
 3473      656E7365 
 3473      5F4C4F57 
 3473      5F42534C 
 3473      4E5F5253 
 3474              	.LASF53:
 3475 04d2 736C6964 		.ascii	"slider\000"
 3475      657200
 3476              	.LASF122:
 3477 04d9 43617053 		.ascii	"CapSense_DpProcessButton\000"
 3477      656E7365 
 3477      5F447050 
 3477      726F6365 
 3477      73734275 
 3478              	.LASF59:
 3479 04f2 69646163 		.ascii	"idacComp\000"
 3479      436F6D70 
 3479      00
 3480              	.LASF6:
 3481 04fb 6C6F6E67 		.ascii	"long long int\000"
 3481      206C6F6E 
 3481      6720696E 
 3481      7400
 3482              	.LASF90:
ARM GAS  C:\Users\Erik\AppData\Local\Temp\ccRdsmWm.s 			page 93


 3483 0509 6E756D43 		.ascii	"numCols\000"
 3483      6F6C7300 
 3484              	.LASF43:
 3485 0511 6F6E4465 		.ascii	"onDebounce\000"
 3485      626F756E 
 3485      636500
 3486              	.LASF108:
 3487 051c 73746172 		.ascii	"startFlag\000"
 3487      74466C61 
 3487      6700
 3488              	.LASF73:
 3489 0526 77646774 		.ascii	"wdgtList\000"
 3489      4C697374 
 3489      00
 3490              	.LASF94:
 3491 052f 43617053 		.ascii	"CapSense_FLASH_STRUCT\000"
 3491      656E7365 
 3491      5F464C41 
 3491      53485F53 
 3491      54525543 
 3492              	.LASF134:
 3493 0545 43617053 		.ascii	"CapSense_dsRam\000"
 3493      656E7365 
 3493      5F647352 
 3493      616D00
 3494              	.LASF78:
 3495 0554 736E7254 		.ascii	"snrTestRawCount\000"
 3495      65737452 
 3495      6177436F 
 3495      756E7400 
 3496              	.LASF136:
 3497 0564 6D656D73 		.ascii	"memset\000"
 3497      657400
 3498              	.LASF31:
 3499 056b 6E4E6F69 		.ascii	"nNoiseTh\000"
 3499      73655468 
 3499      00
 3500              	.LASF71:
 3501 0574 63736430 		.ascii	"csd0Config\000"
 3501      436F6E66 
 3501      696700
 3502              	.LASF51:
 3503 057f 43617053 		.ascii	"CapSense_RAM_WD_BASE_STRUCT\000"
 3503      656E7365 
 3503      5F52414D 
 3503      5F57445F 
 3503      42415345 
 3504              	.LASF41:
 3505 059b 43617053 		.ascii	"CapSense_WD_TYPE_ENUM\000"
 3505      656E7365 
 3505      5F57445F 
 3505      54595045 
 3505      5F454E55 
 3506              	.LASF131:
 3507 05b1 73656E73 		.ascii	"sensorStatus\000"
 3507      6F725374 
 3507      61747573 
ARM GAS  C:\Users\Erik\AppData\Local\Temp\ccRdsmWm.s 			page 94


 3507      00
 3508              	.LASF11:
 3509 05be 75696E74 		.ascii	"uint32\000"
 3509      333200
 3510              	.LASF127:
 3511 05c5 746F7563 		.ascii	"touchTh\000"
 3511      68546800 
 3512              	.LASF85:
 3513 05cd 70747232 		.ascii	"ptr2FltrHistory\000"
 3513      466C7472 
 3513      48697374 
 3513      6F727900 
 3514              	.LASF35:
 3515 05dd 43617053 		.ascii	"CapSense_WD_LINEAR_SLIDER_E\000"
 3515      656E7365 
 3515      5F57445F 
 3515      4C494E45 
 3515      41525F53 
 3516              	.LASF132:
 3517 05f9 77645374 		.ascii	"wdStatusIndex\000"
 3517      61747573 
 3517      496E6465 
 3517      7800
 3518              	.LASF17:
 3519 0607 6C6F6E67 		.ascii	"long double\000"
 3519      20646F75 
 3519      626C6500 
 3520              	.LASF103:
 3521 0613 70747252 		.ascii	"ptrRamWdgt\000"
 3521      616D5764 
 3521      677400
 3522              	.LASF125:
 3523 061e 736E734D 		.ascii	"snsMask\000"
 3523      61736B00 
 3524              	.LASF77:
 3525 0626 736E7254 		.ascii	"snrTestScanCounter\000"
 3525      65737453 
 3525      63616E43 
 3525      6F756E74 
 3525      657200
 3526              	.LASF62:
 3527 0639 636F6E66 		.ascii	"configId\000"
 3527      69674964 
 3527      00
 3528              	.LASF84:
 3529 0642 70747232 		.ascii	"ptr2SnsRam\000"
 3529      536E7352 
 3529      616D00
 3530              	.LASF70:
 3531 064d 736E7353 		.ascii	"snsStatus\000"
 3531      74617475 
 3531      7300
 3532              	.LASF40:
 3533 0657 43617053 		.ascii	"CapSense_WD_ENCODERDIAL_E\000"
 3533      656E7365 
 3533      5F57445F 
 3533      454E434F 
ARM GAS  C:\Users\Erik\AppData\Local\Temp\ccRdsmWm.s 			page 95


 3533      44455244 
 3534              	.LASF48:
 3535 0671 736E7343 		.ascii	"snsClkSource\000"
 3535      6C6B536F 
 3535      75726365 
 3535      00
 3536              	.LASF2:
 3537 067e 73686F72 		.ascii	"short int\000"
 3537      7420696E 
 3537      7400
 3538              	.LASF81:
 3539 0688 43617053 		.ascii	"CapSense_RAM_STRUCT\000"
 3539      656E7365 
 3539      5F52414D 
 3539      5F535452 
 3539      55435400 
 3540              	.LASF98:
 3541 069c 43617053 		.ascii	"CapSense_REGULAR_FLTR_STRUCT\000"
 3541      656E7365 
 3541      5F524547 
 3541      554C4152 
 3541      5F464C54 
 3542              	.LASF4:
 3543 06b9 6C6F6E67 		.ascii	"long int\000"
 3543      20696E74 
 3543      00
 3544              	.LASF33:
 3545 06c2 534D4152 		.ascii	"SMARTSENSE_UPDATE_THRESHOLDS_STRUCT\000"
 3545      5453454E 
 3545      53455F55 
 3545      50444154 
 3545      455F5448 
 3546              	.LASF68:
 3547 06e6 77646774 		.ascii	"wdgtEnable\000"
 3547      456E6162 
 3547      6C6500
 3548              	.LASF57:
 3549 06f1 64696666 		.ascii	"diff\000"
 3549      00
 3550              	.LASF65:
 3551 06f6 74756E65 		.ascii	"tunerCmd\000"
 3551      72436D64 
 3551      00
 3552              	.LASF115:
 3553 06ff 736E7349 		.ascii	"snsId\000"
 3553      6400
 3554              	.LASF34:
 3555 0705 43617053 		.ascii	"CapSense_WD_BUTTON_E\000"
 3555      656E7365 
 3555      5F57445F 
 3555      42555454 
 3555      4F4E5F45 
 3556              	.LASF96:
 3557 071a 43617053 		.ascii	"CapSense_REGULAR_FLTR_CHANNEL_STRUCT\000"
 3557      656E7365 
 3557      5F524547 
 3557      554C4152 
ARM GAS  C:\Users\Erik\AppData\Local\Temp\ccRdsmWm.s 			page 96


 3557      5F464C54 
 3558              	.LASF109:
 3559 073f 74687265 		.ascii	"thresholds\000"
 3559      73686F6C 
 3559      647300
 3560              	.LASF128:
 3561 074a 70747244 		.ascii	"ptrDebounceCnt\000"
 3561      65626F75 
 3561      6E636543 
 3561      6E7400
 3562              	.LASF49:
 3563 0759 66696E67 		.ascii	"fingerCap\000"
 3563      65724361 
 3563      7000
 3564              	.LASF69:
 3565 0763 77646774 		.ascii	"wdgtStatus\000"
 3565      53746174 
 3565      757300
 3566              	.LASF18:
 3567 076e 73697A65 		.ascii	"sizetype\000"
 3567      74797065 
 3567      00
 3568              	.LASF5:
 3569 0777 6C6F6E67 		.ascii	"long unsigned int\000"
 3569      20756E73 
 3569      69676E65 
 3569      6420696E 
 3569      7400
 3570              	.LASF45:
 3571 0789 69646163 		.ascii	"idacMod\000"
 3571      4D6F6400 
 3572              	.LASF86:
 3573 0791 70747232 		.ascii	"ptr2DebounceArr\000"
 3573      4465626F 
 3573      756E6365 
 3573      41727200 
 3574              	.LASF29:
 3575 07a1 66696E67 		.ascii	"fingerTh\000"
 3575      65725468 
 3575      00
 3576              	.LASF56:
 3577 07aa 62736C6E 		.ascii	"bslnExt\000"
 3577      45787400 
 3578              	.LASF52:
 3579 07b2 43617053 		.ascii	"CapSense_RAM_WD_BUTTON_STRUCT\000"
 3579      656E7365 
 3579      5F52414D 
 3579      5F57445F 
 3579      42555454 
 3580              	.LASF1:
 3581 07d0 756E7369 		.ascii	"unsigned char\000"
 3581      676E6564 
 3581      20636861 
 3581      7200
 3582              	.LASF133:
 3583 07de 77645374 		.ascii	"wdStatusMask\000"
 3583      61747573 
ARM GAS  C:\Users\Erik\AppData\Local\Temp\ccRdsmWm.s 			page 97


 3583      4D61736B 
 3583      00
 3584              	.LASF118:
 3585 07eb 69735072 		.ascii	"isProxWdgt\000"
 3585      6F785764 
 3585      677400
 3586              	.LASF104:
 3587 07f6 70747246 		.ascii	"ptrFlashWdgt\000"
 3587      6C617368 
 3587      57646774 
 3587      00
 3588              	.LASF87:
 3589 0803 73746174 		.ascii	"staticConfig\000"
 3589      6963436F 
 3589      6E666967 
 3589      00
 3590              	.LASF80:
 3591 0810 7363616E 		.ascii	"scanCurrentISC\000"
 3591      43757272 
 3591      656E7449 
 3591      534300
 3592              	.LASF83:
 3593 081f 70747232 		.ascii	"ptr2WdgtRam\000"
 3593      57646774 
 3593      52616D00 
 3594              	.LASF19:
 3595 082b 43617053 		.ascii	"CapSense_THRESHOLD_TYPE\000"
 3595      656E7365 
 3595      5F544852 
 3595      4553484F 
 3595      4C445F54 
 3596              	.LASF95:
 3597 0843 69697248 		.ascii	"iirHistory\000"
 3597      6973746F 
 3597      727900
 3598              	.LASF123:
 3599 084e 63757272 		.ascii	"currStatus\000"
 3599      53746174 
 3599      757300
 3600              	.LASF47:
 3601 0859 736E7343 		.ascii	"snsClk\000"
 3601      6C6B00
 3602              	.LASF0:
 3603 0860 7369676E 		.ascii	"signed char\000"
 3603      65642063 
 3603      68617200 
 3604              	.LASF55:
 3605 086c 62736C6E 		.ascii	"bsln\000"
 3605      00
 3606              	.LASF3:
 3607 0871 73686F72 		.ascii	"short unsigned int\000"
 3607      7420756E 
 3607      7369676E 
 3607      65642069 
 3607      6E7400
 3608              	.LASF82:
 3609 0884 70747232 		.ascii	"ptr2SnsFlash\000"
ARM GAS  C:\Users\Erik\AppData\Local\Temp\ccRdsmWm.s 			page 98


 3609      536E7346 
 3609      6C617368 
 3609      00
 3610              	.LASF9:
 3611 0891 75696E74 		.ascii	"uint8\000"
 3611      3800
 3612              	.LASF14:
 3613 0897 646F7562 		.ascii	"double\000"
 3613      6C6500
 3614              	.LASF58:
 3615 089e 6E656742 		.ascii	"negBslnRstCnt\000"
 3615      736C6E52 
 3615      7374436E 
 3615      7400
 3616              	.LASF102:
 3617 08ac 77696467 		.ascii	"widgetType\000"
 3617      65745479 
 3617      706500
 3618              	.LASF21:
 3619 08b7 70617261 		.ascii	"param0\000"
 3619      6D3000
 3620              	.LASF22:
 3621 08be 70617261 		.ascii	"param1\000"
 3621      6D3100
 3622              	.LASF23:
 3623 08c5 70617261 		.ascii	"param2\000"
 3623      6D3200
 3624              	.LASF24:
 3625 08cc 70617261 		.ascii	"param3\000"
 3625      6D3300
 3626              	.LASF25:
 3627 08d3 70617261 		.ascii	"param4\000"
 3627      6D3400
 3628              	.LASF26:
 3629 08da 70617261 		.ascii	"param5\000"
 3629      6D3500
 3630              	.LASF27:
 3631 08e1 70617261 		.ascii	"param6\000"
 3631      6D3600
 3632              	.LASF63:
 3633 08e8 64657669 		.ascii	"deviceId\000"
 3633      63654964 
 3633      00
 3634              	.LASF130:
 3635 08f1 77696467 		.ascii	"widgetId\000"
 3635      65744964 
 3635      00
 3636              	.LASF61:
 3637 08fa 43617053 		.ascii	"CapSense_RAM_SNS_LIST_STRUCT\000"
 3637      656E7365 
 3637      5F52414D 
 3637      5F534E53 
 3637      5F4C4953 
 3638              	.LASF93:
 3639 0917 77646774 		.ascii	"wdgtArray\000"
 3639      41727261 
 3639      7900
ARM GAS  C:\Users\Erik\AppData\Local\Temp\ccRdsmWm.s 			page 99


 3640              		.ident	"GCC: (GNU Tools for ARM Embedded Processors) 5.4.1 20160609 (release) [ARM/embedded-5-bran
