ARM GAS  C:\Users\Erik\AppData\Local\Temp\ccYTRVJu.s 			page 1


   1              		.syntax unified
   2              		.cpu cortex-m0
   3              		.fpu softvfp
   4              		.eabi_attribute 20, 1
   5              		.eabi_attribute 21, 1
   6              		.eabi_attribute 23, 3
   7              		.eabi_attribute 24, 1
   8              		.eabi_attribute 25, 1
   9              		.eabi_attribute 26, 1
  10              		.eabi_attribute 30, 1
  11              		.eabi_attribute 34, 0
  12              		.eabi_attribute 18, 4
  13              		.thumb
  14              		.syntax unified
  15              		.file	"EZI2C_EZI2C.c"
  16              		.text
  17              	.Ltext0:
  18              		.cfi_sections	.debug_frame
  19              		.section	.text.EZI2C_EzI2CUpdateRxMatchReg,"ax",%progbits
  20              		.align	2
  21              		.code	16
  22              		.thumb_func
  23              		.type	EZI2C_EzI2CUpdateRxMatchReg, %function
  24              	EZI2C_EzI2CUpdateRxMatchReg:
  25              	.LFB8:
  26              		.file 1 "Generated_Source\\PSoC4\\EZI2C_EZI2C.c"
   1:Generated_Source\PSoC4/EZI2C_EZI2C.c **** /***************************************************************************//**
   2:Generated_Source\PSoC4/EZI2C_EZI2C.c **** * \file EZI2C_EZI2C.c
   3:Generated_Source\PSoC4/EZI2C_EZI2C.c **** * \version 4.0
   4:Generated_Source\PSoC4/EZI2C_EZI2C.c **** *
   5:Generated_Source\PSoC4/EZI2C_EZI2C.c **** * \brief
   6:Generated_Source\PSoC4/EZI2C_EZI2C.c **** *  This file provides the source code to the API for the SCB Component in
   7:Generated_Source\PSoC4/EZI2C_EZI2C.c **** *  EZI2C mode.
   8:Generated_Source\PSoC4/EZI2C_EZI2C.c **** *
   9:Generated_Source\PSoC4/EZI2C_EZI2C.c **** * Note:
  10:Generated_Source\PSoC4/EZI2C_EZI2C.c **** *
  11:Generated_Source\PSoC4/EZI2C_EZI2C.c **** *******************************************************************************
  12:Generated_Source\PSoC4/EZI2C_EZI2C.c **** * \copyright
  13:Generated_Source\PSoC4/EZI2C_EZI2C.c **** * Copyright 2013-2017, Cypress Semiconductor Corporation.  All rights reserved.
  14:Generated_Source\PSoC4/EZI2C_EZI2C.c **** * You may use this file only in accordance with the license, terms, conditions,
  15:Generated_Source\PSoC4/EZI2C_EZI2C.c **** * disclaimers, and limitations in the end user license agreement accompanying
  16:Generated_Source\PSoC4/EZI2C_EZI2C.c **** * the software package with which this file was provided.
  17:Generated_Source\PSoC4/EZI2C_EZI2C.c **** *******************************************************************************/
  18:Generated_Source\PSoC4/EZI2C_EZI2C.c **** 
  19:Generated_Source\PSoC4/EZI2C_EZI2C.c **** #include "EZI2C_PVT.h"
  20:Generated_Source\PSoC4/EZI2C_EZI2C.c **** #include "EZI2C_EZI2C_PVT.h"
  21:Generated_Source\PSoC4/EZI2C_EZI2C.c **** 
  22:Generated_Source\PSoC4/EZI2C_EZI2C.c **** 
  23:Generated_Source\PSoC4/EZI2C_EZI2C.c **** /***************************************
  24:Generated_Source\PSoC4/EZI2C_EZI2C.c **** *      EZI2C Private Vars
  25:Generated_Source\PSoC4/EZI2C_EZI2C.c **** ***************************************/
  26:Generated_Source\PSoC4/EZI2C_EZI2C.c **** 
  27:Generated_Source\PSoC4/EZI2C_EZI2C.c **** volatile uint8 EZI2C_curStatus; /* Status byte */
  28:Generated_Source\PSoC4/EZI2C_EZI2C.c **** uint8 EZI2C_fsmState;           /* FSM state   */
  29:Generated_Source\PSoC4/EZI2C_EZI2C.c **** 
  30:Generated_Source\PSoC4/EZI2C_EZI2C.c **** /* Variables intended to be used with Buffer 1: Primary slave address */
  31:Generated_Source\PSoC4/EZI2C_EZI2C.c **** volatile uint8 * EZI2C_dataBuffer1; /* Pointer to data buffer 1 */
ARM GAS  C:\Users\Erik\AppData\Local\Temp\ccYTRVJu.s 			page 2


  32:Generated_Source\PSoC4/EZI2C_EZI2C.c **** uint16 EZI2C_bufSizeBuf1;           /* Size of buffer 1 in bytes      */
  33:Generated_Source\PSoC4/EZI2C_EZI2C.c **** uint16 EZI2C_protectBuf1;           /* Start index of write protected area buffer 1 */
  34:Generated_Source\PSoC4/EZI2C_EZI2C.c **** uint16 EZI2C_offsetBuf1; /* Current offset within buffer 1 */
  35:Generated_Source\PSoC4/EZI2C_EZI2C.c **** uint16 EZI2C_indexBuf1;             /* Current index within buffer 1  */
  36:Generated_Source\PSoC4/EZI2C_EZI2C.c **** 
  37:Generated_Source\PSoC4/EZI2C_EZI2C.c **** #if(EZI2C_SECONDARY_ADDRESS_ENABLE_CONST)
  38:Generated_Source\PSoC4/EZI2C_EZI2C.c ****     uint8 EZI2C_addrBuf1; /* Primary slave address. Used for software comparison   */
  39:Generated_Source\PSoC4/EZI2C_EZI2C.c ****     uint8 EZI2C_addrBuf2; /* Secondary slave address. Used for software comparison */
  40:Generated_Source\PSoC4/EZI2C_EZI2C.c **** 
  41:Generated_Source\PSoC4/EZI2C_EZI2C.c ****     /* Variables intended to be used with Buffer 2: Primary slave address */
  42:Generated_Source\PSoC4/EZI2C_EZI2C.c ****     volatile uint8 * EZI2C_dataBuffer2; /* Pointer to data buffer 2 */
  43:Generated_Source\PSoC4/EZI2C_EZI2C.c ****     uint16 EZI2C_bufSizeBuf2;           /* Size of buffer 2 in bytes */
  44:Generated_Source\PSoC4/EZI2C_EZI2C.c ****     uint16 EZI2C_protectBuf2;           /* Start index of write protected area buffer 2 */
  45:Generated_Source\PSoC4/EZI2C_EZI2C.c ****     uint16 EZI2C_offsetBuf2; /* Current offset within buffer 2 */
  46:Generated_Source\PSoC4/EZI2C_EZI2C.c ****     uint16 EZI2C_indexBuf2;             /* Current index within buffer 2 */
  47:Generated_Source\PSoC4/EZI2C_EZI2C.c **** #endif /* (EZI2C_SECONDARY_ADDRESS_ENABLE_CONST) */
  48:Generated_Source\PSoC4/EZI2C_EZI2C.c **** 
  49:Generated_Source\PSoC4/EZI2C_EZI2C.c **** 
  50:Generated_Source\PSoC4/EZI2C_EZI2C.c **** /***************************************
  51:Generated_Source\PSoC4/EZI2C_EZI2C.c **** *      EZI2C Private Functions
  52:Generated_Source\PSoC4/EZI2C_EZI2C.c **** ***************************************/
  53:Generated_Source\PSoC4/EZI2C_EZI2C.c **** 
  54:Generated_Source\PSoC4/EZI2C_EZI2C.c **** #if(EZI2C_SECONDARY_ADDRESS_ENABLE_CONST)
  55:Generated_Source\PSoC4/EZI2C_EZI2C.c ****     static uint32 EZI2C_EzI2CUpdateRxMatchReg(uint32 addr1, uint32 addr2);
  56:Generated_Source\PSoC4/EZI2C_EZI2C.c **** #endif /* (EZI2C_SECONDARY_ADDRESS_ENABLE_CONST) */
  57:Generated_Source\PSoC4/EZI2C_EZI2C.c **** 
  58:Generated_Source\PSoC4/EZI2C_EZI2C.c **** #if(EZI2C_SCB_MODE_UNCONFIG_CONST_CFG)
  59:Generated_Source\PSoC4/EZI2C_EZI2C.c **** 
  60:Generated_Source\PSoC4/EZI2C_EZI2C.c ****     /***************************************
  61:Generated_Source\PSoC4/EZI2C_EZI2C.c ****     *  Configuration Structure Initialization
  62:Generated_Source\PSoC4/EZI2C_EZI2C.c ****     ***************************************/
  63:Generated_Source\PSoC4/EZI2C_EZI2C.c **** 
  64:Generated_Source\PSoC4/EZI2C_EZI2C.c ****     /* Constant configuration of EZI2C */
  65:Generated_Source\PSoC4/EZI2C_EZI2C.c ****     const EZI2C_EZI2C_INIT_STRUCT EZI2C_configEzI2C =
  66:Generated_Source\PSoC4/EZI2C_EZI2C.c ****     {
  67:Generated_Source\PSoC4/EZI2C_EZI2C.c ****         EZI2C_EZI2C_CLOCK_STRETCHING,
  68:Generated_Source\PSoC4/EZI2C_EZI2C.c ****         EZI2C_EZI2C_MEDIAN_FILTER_ENABLE,
  69:Generated_Source\PSoC4/EZI2C_EZI2C.c ****         EZI2C_EZI2C_NUMBER_OF_ADDRESSES,
  70:Generated_Source\PSoC4/EZI2C_EZI2C.c ****         EZI2C_EZI2C_PRIMARY_SLAVE_ADDRESS,
  71:Generated_Source\PSoC4/EZI2C_EZI2C.c ****         EZI2C_EZI2C_SECONDARY_SLAVE_ADDRESS,
  72:Generated_Source\PSoC4/EZI2C_EZI2C.c ****         EZI2C_EZI2C_SUB_ADDRESS_SIZE,
  73:Generated_Source\PSoC4/EZI2C_EZI2C.c ****         EZI2C_EZI2C_WAKE_ENABLE,
  74:Generated_Source\PSoC4/EZI2C_EZI2C.c ****         EZI2C_EZI2C_BYTE_MODE_ENABLE
  75:Generated_Source\PSoC4/EZI2C_EZI2C.c ****     };
  76:Generated_Source\PSoC4/EZI2C_EZI2C.c **** 
  77:Generated_Source\PSoC4/EZI2C_EZI2C.c ****     /*******************************************************************************
  78:Generated_Source\PSoC4/EZI2C_EZI2C.c ****     * Function Name: EZI2C_EzI2CInit
  79:Generated_Source\PSoC4/EZI2C_EZI2C.c ****     ****************************************************************************//**
  80:Generated_Source\PSoC4/EZI2C_EZI2C.c ****     *
  81:Generated_Source\PSoC4/EZI2C_EZI2C.c ****     *  Configures the EZI2C for EZI2C operation.
  82:Generated_Source\PSoC4/EZI2C_EZI2C.c ****     *
  83:Generated_Source\PSoC4/EZI2C_EZI2C.c ****     *  This function is intended specifically to be used when the EZI2C 
  84:Generated_Source\PSoC4/EZI2C_EZI2C.c ****     *  configuration is set to “Unconfigured EZI2C” in the customizer. 
  85:Generated_Source\PSoC4/EZI2C_EZI2C.c ****     *  After initializing the EZI2C in EZI2C mode using this function, 
  86:Generated_Source\PSoC4/EZI2C_EZI2C.c ****     *  the component can be enabled using the EZI2C_Start() or 
  87:Generated_Source\PSoC4/EZI2C_EZI2C.c ****     * EZI2C_Enable() function.
  88:Generated_Source\PSoC4/EZI2C_EZI2C.c ****     *  This function uses a pointer to a structure that provides the configuration 
ARM GAS  C:\Users\Erik\AppData\Local\Temp\ccYTRVJu.s 			page 3


  89:Generated_Source\PSoC4/EZI2C_EZI2C.c ****     *  settings. This structure contains the same information that would otherwise 
  90:Generated_Source\PSoC4/EZI2C_EZI2C.c ****     *  be provided by the customizer settings.
  91:Generated_Source\PSoC4/EZI2C_EZI2C.c ****     *
  92:Generated_Source\PSoC4/EZI2C_EZI2C.c ****     * \param config: pointer to a structure that contains the following list of 
  93:Generated_Source\PSoC4/EZI2C_EZI2C.c ****     *  fields. These fields match the selections available in the customizer. 
  94:Generated_Source\PSoC4/EZI2C_EZI2C.c ****     *  Refer to the customizer for further description of the settings.
  95:Generated_Source\PSoC4/EZI2C_EZI2C.c ****     *
  96:Generated_Source\PSoC4/EZI2C_EZI2C.c ****     *******************************************************************************/
  97:Generated_Source\PSoC4/EZI2C_EZI2C.c ****     void EZI2C_EzI2CInit(const EZI2C_EZI2C_INIT_STRUCT *config)
  98:Generated_Source\PSoC4/EZI2C_EZI2C.c ****     {
  99:Generated_Source\PSoC4/EZI2C_EZI2C.c ****         if(NULL == config)
 100:Generated_Source\PSoC4/EZI2C_EZI2C.c ****         {
 101:Generated_Source\PSoC4/EZI2C_EZI2C.c ****             CYASSERT(0u != 0u); /* Halt execution due to bad function parameter */
 102:Generated_Source\PSoC4/EZI2C_EZI2C.c ****         }
 103:Generated_Source\PSoC4/EZI2C_EZI2C.c ****         else
 104:Generated_Source\PSoC4/EZI2C_EZI2C.c ****         {
 105:Generated_Source\PSoC4/EZI2C_EZI2C.c ****             /* Configure pins */
 106:Generated_Source\PSoC4/EZI2C_EZI2C.c ****             EZI2C_SetPins(EZI2C_SCB_MODE_EZI2C, EZI2C_DUMMY_PARAM,
 107:Generated_Source\PSoC4/EZI2C_EZI2C.c ****                                                                       EZI2C_DUMMY_PARAM);
 108:Generated_Source\PSoC4/EZI2C_EZI2C.c **** 
 109:Generated_Source\PSoC4/EZI2C_EZI2C.c ****             /* Store internal configuration */
 110:Generated_Source\PSoC4/EZI2C_EZI2C.c ****             EZI2C_scbMode       = (uint8) EZI2C_SCB_MODE_EZI2C;
 111:Generated_Source\PSoC4/EZI2C_EZI2C.c ****             EZI2C_scbEnableWake = (uint8) config->enableWake;
 112:Generated_Source\PSoC4/EZI2C_EZI2C.c ****             EZI2C_scbEnableIntr = (uint8) EZI2C_SCB_IRQ_INTERNAL;
 113:Generated_Source\PSoC4/EZI2C_EZI2C.c **** 
 114:Generated_Source\PSoC4/EZI2C_EZI2C.c ****             EZI2C_numberOfAddr  = (uint8) config->numberOfAddresses;
 115:Generated_Source\PSoC4/EZI2C_EZI2C.c ****             EZI2C_subAddrSize   = (uint8) config->subAddrSize;
 116:Generated_Source\PSoC4/EZI2C_EZI2C.c **** 
 117:Generated_Source\PSoC4/EZI2C_EZI2C.c ****         #if (EZI2C_CY_SCBIP_V0)
 118:Generated_Source\PSoC4/EZI2C_EZI2C.c ****             /* Adjust SDA filter settings. Ticket ID#150521 */
 119:Generated_Source\PSoC4/EZI2C_EZI2C.c ****             EZI2C_SET_I2C_CFG_SDA_FILT_TRIM(EZI2C_EC_AM_I2C_CFG_SDA_FILT_TRIM);
 120:Generated_Source\PSoC4/EZI2C_EZI2C.c ****         #endif /* (EZI2C_CY_SCBIP_V0) */
 121:Generated_Source\PSoC4/EZI2C_EZI2C.c **** 
 122:Generated_Source\PSoC4/EZI2C_EZI2C.c ****             /* Adjust AF and DF filter settings, AF = 1, DF = 0. Ticket ID#176179 */
 123:Generated_Source\PSoC4/EZI2C_EZI2C.c ****             EZI2C_I2C_CFG_ANALOG_FITER_ENABLE;
 124:Generated_Source\PSoC4/EZI2C_EZI2C.c **** 
 125:Generated_Source\PSoC4/EZI2C_EZI2C.c ****             /* Configure I2C interface */
 126:Generated_Source\PSoC4/EZI2C_EZI2C.c ****             EZI2C_CTRL_REG     = EZI2C_GET_CTRL_BYTE_MODE  (config->enableByteMode)    |
 127:Generated_Source\PSoC4/EZI2C_EZI2C.c ****                                             EZI2C_GET_CTRL_ADDR_ACCEPT(config->numberOfAddresses) |
 128:Generated_Source\PSoC4/EZI2C_EZI2C.c ****                                             EZI2C_GET_CTRL_EC_AM_MODE (config->enableWake);
 129:Generated_Source\PSoC4/EZI2C_EZI2C.c **** 
 130:Generated_Source\PSoC4/EZI2C_EZI2C.c ****             EZI2C_I2C_CTRL_REG = EZI2C_EZI2C_CTRL;
 131:Generated_Source\PSoC4/EZI2C_EZI2C.c **** 
 132:Generated_Source\PSoC4/EZI2C_EZI2C.c ****             /* Configure RX direction */
 133:Generated_Source\PSoC4/EZI2C_EZI2C.c ****             EZI2C_RX_CTRL_REG = EZI2C_EZI2C_RX_CTRL |
 134:Generated_Source\PSoC4/EZI2C_EZI2C.c ****                                         EZI2C_GET_RX_CTRL_MEDIAN(EZI2C_DIGITAL_FILTER_DISABLE);
 135:Generated_Source\PSoC4/EZI2C_EZI2C.c ****                                                 ;
 136:Generated_Source\PSoC4/EZI2C_EZI2C.c ****             EZI2C_RX_FIFO_CTRL_REG = EZI2C_CLEAR_REG;
 137:Generated_Source\PSoC4/EZI2C_EZI2C.c **** 
 138:Generated_Source\PSoC4/EZI2C_EZI2C.c ****             /* Set default address and mask */
 139:Generated_Source\PSoC4/EZI2C_EZI2C.c ****             if(EZI2C_EZI2C_PRIMARY_ADDRESS == config->numberOfAddresses)
 140:Generated_Source\PSoC4/EZI2C_EZI2C.c ****             {
 141:Generated_Source\PSoC4/EZI2C_EZI2C.c ****                 EZI2C_RX_MATCH_REG = EZI2C_EzI2CUpdateRxMatchReg(config->primarySlaveAddr,
 142:Generated_Source\PSoC4/EZI2C_EZI2C.c ****                                                                                        config->prim
 143:Generated_Source\PSoC4/EZI2C_EZI2C.c ****             }
 144:Generated_Source\PSoC4/EZI2C_EZI2C.c ****             else
 145:Generated_Source\PSoC4/EZI2C_EZI2C.c ****             {
ARM GAS  C:\Users\Erik\AppData\Local\Temp\ccYTRVJu.s 			page 4


 146:Generated_Source\PSoC4/EZI2C_EZI2C.c ****                 EZI2C_RX_MATCH_REG = EZI2C_EzI2CUpdateRxMatchReg(config->primarySlaveAddr,
 147:Generated_Source\PSoC4/EZI2C_EZI2C.c ****                                                                                        config->seco
 148:Generated_Source\PSoC4/EZI2C_EZI2C.c ****             }
 149:Generated_Source\PSoC4/EZI2C_EZI2C.c **** 
 150:Generated_Source\PSoC4/EZI2C_EZI2C.c ****             /* Configure TX direction */
 151:Generated_Source\PSoC4/EZI2C_EZI2C.c ****             EZI2C_TX_CTRL_REG      = EZI2C_EZI2C_TX_CTRL;
 152:Generated_Source\PSoC4/EZI2C_EZI2C.c ****             EZI2C_TX_FIFO_CTRL_REG = ((0u != (config->enableClockStretch)) ?
 153:Generated_Source\PSoC4/EZI2C_EZI2C.c ****                                                  EZI2C_CLEAR_REG : EZI2C_EZI2C_TX_FIFO_CTRL);
 154:Generated_Source\PSoC4/EZI2C_EZI2C.c **** 
 155:Generated_Source\PSoC4/EZI2C_EZI2C.c ****             /* Configure interrupt sources */
 156:Generated_Source\PSoC4/EZI2C_EZI2C.c ****         #if (!EZI2C_CY_SCBIP_V1)
 157:Generated_Source\PSoC4/EZI2C_EZI2C.c ****            EZI2C_INTR_SPI_EC_MASK_REG = EZI2C_NO_INTR_SOURCES;
 158:Generated_Source\PSoC4/EZI2C_EZI2C.c ****         #endif /* (!EZI2C_CY_SCBIP_V1) */
 159:Generated_Source\PSoC4/EZI2C_EZI2C.c **** 
 160:Generated_Source\PSoC4/EZI2C_EZI2C.c ****             EZI2C_INTR_I2C_EC_MASK_REG = EZI2C_NO_INTR_SOURCES;
 161:Generated_Source\PSoC4/EZI2C_EZI2C.c ****             EZI2C_INTR_MASTER_MASK_REG = EZI2C_NO_INTR_SOURCES;
 162:Generated_Source\PSoC4/EZI2C_EZI2C.c ****             EZI2C_INTR_SLAVE_MASK_REG  = EZI2C_EZI2C_INTR_SLAVE_MASK;
 163:Generated_Source\PSoC4/EZI2C_EZI2C.c ****             EZI2C_INTR_TX_MASK_REG     = EZI2C_NO_INTR_SOURCES;
 164:Generated_Source\PSoC4/EZI2C_EZI2C.c **** 
 165:Generated_Source\PSoC4/EZI2C_EZI2C.c ****             /* Configure interrupt with EZI2C handler but do not enable it */
 166:Generated_Source\PSoC4/EZI2C_EZI2C.c ****             CyIntDisable    (EZI2C_ISR_NUMBER);
 167:Generated_Source\PSoC4/EZI2C_EZI2C.c ****             CyIntSetPriority(EZI2C_ISR_NUMBER, EZI2C_ISR_PRIORITY);
 168:Generated_Source\PSoC4/EZI2C_EZI2C.c ****             (void) CyIntSetVector(EZI2C_ISR_NUMBER, (0u != (config->enableClockStretch)) ?
 169:Generated_Source\PSoC4/EZI2C_EZI2C.c ****                                                                       (&EZI2C_EZI2C_STRETCH_ISR) :
 170:Generated_Source\PSoC4/EZI2C_EZI2C.c ****                                                                       (&EZI2C_EZI2C_NO_STRETCH_ISR)
 171:Generated_Source\PSoC4/EZI2C_EZI2C.c **** 
 172:Generated_Source\PSoC4/EZI2C_EZI2C.c ****             if(0u != (config->enableClockStretch))
 173:Generated_Source\PSoC4/EZI2C_EZI2C.c ****             {
 174:Generated_Source\PSoC4/EZI2C_EZI2C.c ****                 /* Configure interrupt sources */
 175:Generated_Source\PSoC4/EZI2C_EZI2C.c ****                 EZI2C_INTR_SLAVE_MASK_REG |= EZI2C_INTR_SLAVE_I2C_ADDR_MATCH;
 176:Generated_Source\PSoC4/EZI2C_EZI2C.c ****                 EZI2C_INTR_RX_MASK_REG     = EZI2C_NO_INTR_SOURCES;
 177:Generated_Source\PSoC4/EZI2C_EZI2C.c ****             }
 178:Generated_Source\PSoC4/EZI2C_EZI2C.c ****             else
 179:Generated_Source\PSoC4/EZI2C_EZI2C.c ****             {
 180:Generated_Source\PSoC4/EZI2C_EZI2C.c ****                 /* Enable Auto ACK/NACK features */
 181:Generated_Source\PSoC4/EZI2C_EZI2C.c ****                 EZI2C_I2C_CTRL_REG |= EZI2C_EZI2C_CTRL_AUTO;
 182:Generated_Source\PSoC4/EZI2C_EZI2C.c **** 
 183:Generated_Source\PSoC4/EZI2C_EZI2C.c ****                 /* Configure RX interrupt source */
 184:Generated_Source\PSoC4/EZI2C_EZI2C.c ****                 EZI2C_INTR_SLAVE_MASK_REG |= EZI2C_INTR_SLAVE_I2C_START;
 185:Generated_Source\PSoC4/EZI2C_EZI2C.c ****                 EZI2C_INTR_RX_MASK_REG     = EZI2C_INTR_RX_NOT_EMPTY;
 186:Generated_Source\PSoC4/EZI2C_EZI2C.c ****             }
 187:Generated_Source\PSoC4/EZI2C_EZI2C.c **** 
 188:Generated_Source\PSoC4/EZI2C_EZI2C.c ****             /* Configure global variables */
 189:Generated_Source\PSoC4/EZI2C_EZI2C.c ****             EZI2C_fsmState = EZI2C_EZI2C_FSM_IDLE;
 190:Generated_Source\PSoC4/EZI2C_EZI2C.c **** 
 191:Generated_Source\PSoC4/EZI2C_EZI2C.c ****             EZI2C_curStatus  = 0u;
 192:Generated_Source\PSoC4/EZI2C_EZI2C.c ****             EZI2C_indexBuf1  = 0u;
 193:Generated_Source\PSoC4/EZI2C_EZI2C.c ****             EZI2C_offsetBuf1 = 0u;
 194:Generated_Source\PSoC4/EZI2C_EZI2C.c ****             EZI2C_indexBuf2  = 0u;
 195:Generated_Source\PSoC4/EZI2C_EZI2C.c ****             EZI2C_offsetBuf2 = 0u;
 196:Generated_Source\PSoC4/EZI2C_EZI2C.c **** 
 197:Generated_Source\PSoC4/EZI2C_EZI2C.c ****             EZI2C_addrBuf1 = (uint8) config->primarySlaveAddr;
 198:Generated_Source\PSoC4/EZI2C_EZI2C.c ****             EZI2C_addrBuf2 = (uint8) config->secondarySlaveAddr;
 199:Generated_Source\PSoC4/EZI2C_EZI2C.c ****         }
 200:Generated_Source\PSoC4/EZI2C_EZI2C.c ****     }
 201:Generated_Source\PSoC4/EZI2C_EZI2C.c **** 
 202:Generated_Source\PSoC4/EZI2C_EZI2C.c **** #else
ARM GAS  C:\Users\Erik\AppData\Local\Temp\ccYTRVJu.s 			page 5


 203:Generated_Source\PSoC4/EZI2C_EZI2C.c **** 
 204:Generated_Source\PSoC4/EZI2C_EZI2C.c ****     /*******************************************************************************
 205:Generated_Source\PSoC4/EZI2C_EZI2C.c ****     * Function Name: EZI2C_EzI2CInit
 206:Generated_Source\PSoC4/EZI2C_EZI2C.c ****     ****************************************************************************//**
 207:Generated_Source\PSoC4/EZI2C_EZI2C.c ****     *
 208:Generated_Source\PSoC4/EZI2C_EZI2C.c ****     *  Configures the SCB for the EZI2C operation.
 209:Generated_Source\PSoC4/EZI2C_EZI2C.c ****     *
 210:Generated_Source\PSoC4/EZI2C_EZI2C.c ****     *******************************************************************************/
 211:Generated_Source\PSoC4/EZI2C_EZI2C.c ****     void EZI2C_EzI2CInit(void)
 212:Generated_Source\PSoC4/EZI2C_EZI2C.c ****     {
 213:Generated_Source\PSoC4/EZI2C_EZI2C.c ****         /* Configure I2C interface */
 214:Generated_Source\PSoC4/EZI2C_EZI2C.c ****         EZI2C_CTRL_REG     = EZI2C_EZI2C_DEFAULT_CTRL;
 215:Generated_Source\PSoC4/EZI2C_EZI2C.c ****         EZI2C_I2C_CTRL_REG = EZI2C_EZI2C_DEFAULT_I2C_CTRL;
 216:Generated_Source\PSoC4/EZI2C_EZI2C.c **** 
 217:Generated_Source\PSoC4/EZI2C_EZI2C.c ****     #if (EZI2C_CY_SCBIP_V0)
 218:Generated_Source\PSoC4/EZI2C_EZI2C.c ****         /* Adjust SDA filter settings. Ticket ID#150521 */
 219:Generated_Source\PSoC4/EZI2C_EZI2C.c ****         EZI2C_SET_I2C_CFG_SDA_FILT_TRIM(EZI2C_EC_AM_I2C_CFG_SDA_FILT_TRIM);
 220:Generated_Source\PSoC4/EZI2C_EZI2C.c ****     #endif /* (EZI2C_CY_SCBIP_V0) */
 221:Generated_Source\PSoC4/EZI2C_EZI2C.c **** 
 222:Generated_Source\PSoC4/EZI2C_EZI2C.c ****         /* Configure RX direction */
 223:Generated_Source\PSoC4/EZI2C_EZI2C.c ****         EZI2C_RX_CTRL_REG      = EZI2C_EZI2C_DEFAULT_RX_CTRL;
 224:Generated_Source\PSoC4/EZI2C_EZI2C.c ****         EZI2C_RX_FIFO_CTRL_REG = EZI2C_EZI2C_DEFAULT_RX_FIFO_CTRL;
 225:Generated_Source\PSoC4/EZI2C_EZI2C.c **** 
 226:Generated_Source\PSoC4/EZI2C_EZI2C.c ****         /* Set default address and mask */
 227:Generated_Source\PSoC4/EZI2C_EZI2C.c ****         EZI2C_RX_MATCH_REG     = EZI2C_EZI2C_DEFAULT_RX_MATCH;
 228:Generated_Source\PSoC4/EZI2C_EZI2C.c **** 
 229:Generated_Source\PSoC4/EZI2C_EZI2C.c ****         /* Configure TX direction */
 230:Generated_Source\PSoC4/EZI2C_EZI2C.c ****         EZI2C_TX_CTRL_REG      = EZI2C_EZI2C_DEFAULT_TX_CTRL;
 231:Generated_Source\PSoC4/EZI2C_EZI2C.c ****         EZI2C_TX_FIFO_CTRL_REG = EZI2C_EZI2C_DEFAULT_TX_FIFO_CTRL;
 232:Generated_Source\PSoC4/EZI2C_EZI2C.c **** 
 233:Generated_Source\PSoC4/EZI2C_EZI2C.c ****         /* Configure interrupt with EZI2C handler but do not enable it */
 234:Generated_Source\PSoC4/EZI2C_EZI2C.c ****     #if !defined (CY_EXTERNAL_INTERRUPT_CONFIG)
 235:Generated_Source\PSoC4/EZI2C_EZI2C.c ****         CyIntDisable    (EZI2C_ISR_NUMBER);
 236:Generated_Source\PSoC4/EZI2C_EZI2C.c ****         CyIntSetPriority(EZI2C_ISR_NUMBER, EZI2C_ISR_PRIORITY);
 237:Generated_Source\PSoC4/EZI2C_EZI2C.c **** 
 238:Generated_Source\PSoC4/EZI2C_EZI2C.c ****     #if (EZI2C_EZI2C_SCL_STRETCH_ENABLE_CONST)
 239:Generated_Source\PSoC4/EZI2C_EZI2C.c ****         (void) CyIntSetVector(EZI2C_ISR_NUMBER, &EZI2C_EZI2C_STRETCH_ISR);
 240:Generated_Source\PSoC4/EZI2C_EZI2C.c ****     #else
 241:Generated_Source\PSoC4/EZI2C_EZI2C.c ****         (void) CyIntSetVector(EZI2C_ISR_NUMBER, &EZI2C_EZI2C_NO_STRETCH_ISR);
 242:Generated_Source\PSoC4/EZI2C_EZI2C.c ****     #endif /* (EZI2C_EZI2C_SCL_STRETCH_ENABLE_CONST) */
 243:Generated_Source\PSoC4/EZI2C_EZI2C.c **** 
 244:Generated_Source\PSoC4/EZI2C_EZI2C.c ****     #endif /* !defined (CY_EXTERNAL_INTERRUPT_CONFIG) */
 245:Generated_Source\PSoC4/EZI2C_EZI2C.c **** 
 246:Generated_Source\PSoC4/EZI2C_EZI2C.c ****         /* Configure interrupt sources */
 247:Generated_Source\PSoC4/EZI2C_EZI2C.c ****     #if (!EZI2C_CY_SCBIP_V1)
 248:Generated_Source\PSoC4/EZI2C_EZI2C.c ****         EZI2C_INTR_SPI_EC_MASK_REG = EZI2C_EZI2C_DEFAULT_INTR_SPI_EC_MASK;
 249:Generated_Source\PSoC4/EZI2C_EZI2C.c ****     #endif /* (!EZI2C_CY_SCBIP_V1) */
 250:Generated_Source\PSoC4/EZI2C_EZI2C.c **** 
 251:Generated_Source\PSoC4/EZI2C_EZI2C.c ****         EZI2C_INTR_I2C_EC_MASK_REG = EZI2C_EZI2C_DEFAULT_INTR_I2C_EC_MASK;
 252:Generated_Source\PSoC4/EZI2C_EZI2C.c ****         EZI2C_INTR_SLAVE_MASK_REG  = EZI2C_EZI2C_DEFAULT_INTR_SLAVE_MASK;
 253:Generated_Source\PSoC4/EZI2C_EZI2C.c ****         EZI2C_INTR_MASTER_MASK_REG = EZI2C_EZI2C_DEFAULT_INTR_MASTER_MASK;
 254:Generated_Source\PSoC4/EZI2C_EZI2C.c ****         EZI2C_INTR_RX_MASK_REG     = EZI2C_EZI2C_DEFAULT_INTR_RX_MASK;
 255:Generated_Source\PSoC4/EZI2C_EZI2C.c ****         EZI2C_INTR_TX_MASK_REG     = EZI2C_EZI2C_DEFAULT_INTR_TX_MASK;
 256:Generated_Source\PSoC4/EZI2C_EZI2C.c **** 
 257:Generated_Source\PSoC4/EZI2C_EZI2C.c ****         /* Configure global variables */
 258:Generated_Source\PSoC4/EZI2C_EZI2C.c ****         EZI2C_fsmState = EZI2C_EZI2C_FSM_IDLE;
 259:Generated_Source\PSoC4/EZI2C_EZI2C.c **** 
ARM GAS  C:\Users\Erik\AppData\Local\Temp\ccYTRVJu.s 			page 6


 260:Generated_Source\PSoC4/EZI2C_EZI2C.c ****         EZI2C_curStatus  = 0u;
 261:Generated_Source\PSoC4/EZI2C_EZI2C.c ****         EZI2C_indexBuf1  = 0u;
 262:Generated_Source\PSoC4/EZI2C_EZI2C.c ****         EZI2C_offsetBuf1 = 0u;
 263:Generated_Source\PSoC4/EZI2C_EZI2C.c **** 
 264:Generated_Source\PSoC4/EZI2C_EZI2C.c ****     #if(EZI2C_SECONDARY_ADDRESS_ENABLE_CONST)
 265:Generated_Source\PSoC4/EZI2C_EZI2C.c ****         EZI2C_indexBuf2  = 0u;
 266:Generated_Source\PSoC4/EZI2C_EZI2C.c ****         EZI2C_offsetBuf2 = 0u;
 267:Generated_Source\PSoC4/EZI2C_EZI2C.c **** 
 268:Generated_Source\PSoC4/EZI2C_EZI2C.c ****         EZI2C_addrBuf1 = EZI2C_EZI2C_PRIMARY_SLAVE_ADDRESS;
 269:Generated_Source\PSoC4/EZI2C_EZI2C.c ****         EZI2C_addrBuf2 = EZI2C_EZI2C_SECONDARY_SLAVE_ADDRESS;
 270:Generated_Source\PSoC4/EZI2C_EZI2C.c ****     #endif /* (EZI2C_SECONDARY_ADDRESS_ENABLE_CONST) */
 271:Generated_Source\PSoC4/EZI2C_EZI2C.c ****     }
 272:Generated_Source\PSoC4/EZI2C_EZI2C.c **** #endif /* (EZI2C_SCB_MODE_UNCONFIG_CONST_CFG) */
 273:Generated_Source\PSoC4/EZI2C_EZI2C.c **** 
 274:Generated_Source\PSoC4/EZI2C_EZI2C.c **** 
 275:Generated_Source\PSoC4/EZI2C_EZI2C.c **** /*******************************************************************************
 276:Generated_Source\PSoC4/EZI2C_EZI2C.c **** * Function Name: EZI2C_EzI2CStop
 277:Generated_Source\PSoC4/EZI2C_EZI2C.c **** ****************************************************************************//**
 278:Generated_Source\PSoC4/EZI2C_EZI2C.c **** *
 279:Generated_Source\PSoC4/EZI2C_EZI2C.c **** *  Resets the EZI2C FSM into the default state.
 280:Generated_Source\PSoC4/EZI2C_EZI2C.c **** *
 281:Generated_Source\PSoC4/EZI2C_EZI2C.c **** *******************************************************************************/
 282:Generated_Source\PSoC4/EZI2C_EZI2C.c **** void EZI2C_EzI2CStop(void)
 283:Generated_Source\PSoC4/EZI2C_EZI2C.c **** {
 284:Generated_Source\PSoC4/EZI2C_EZI2C.c ****     EZI2C_fsmState = EZI2C_EZI2C_FSM_IDLE;
 285:Generated_Source\PSoC4/EZI2C_EZI2C.c **** }
 286:Generated_Source\PSoC4/EZI2C_EZI2C.c **** 
 287:Generated_Source\PSoC4/EZI2C_EZI2C.c **** 
 288:Generated_Source\PSoC4/EZI2C_EZI2C.c **** /*******************************************************************************
 289:Generated_Source\PSoC4/EZI2C_EZI2C.c **** * Function Name: EZI2C_EzI2CGetActivity
 290:Generated_Source\PSoC4/EZI2C_EZI2C.c **** ****************************************************************************//**
 291:Generated_Source\PSoC4/EZI2C_EZI2C.c **** *
 292:Generated_Source\PSoC4/EZI2C_EZI2C.c **** *  Returns the EZI2C slave status.
 293:Generated_Source\PSoC4/EZI2C_EZI2C.c **** *  The read, write and error status flags reset to zero after this function
 294:Generated_Source\PSoC4/EZI2C_EZI2C.c **** *  call. The busy status flag is cleared when the transaction intended for
 295:Generated_Source\PSoC4/EZI2C_EZI2C.c **** *  the EZI2C slave completes.
 296:Generated_Source\PSoC4/EZI2C_EZI2C.c **** *
 297:Generated_Source\PSoC4/EZI2C_EZI2C.c **** * \return
 298:Generated_Source\PSoC4/EZI2C_EZI2C.c **** *  Returns the status of the EZI2C Slave activity.
 299:Generated_Source\PSoC4/EZI2C_EZI2C.c **** *  - EZI2C_EZI2C_STATUS_READ1 - Read transfer complete. The transfer 
 300:Generated_Source\PSoC4/EZI2C_EZI2C.c **** *    used the primary slave address. The error condition status bit must be 
 301:Generated_Source\PSoC4/EZI2C_EZI2C.c **** *    checked to ensure that read transfer was completed successfully.
 302:Generated_Source\PSoC4/EZI2C_EZI2C.c **** *  - EZI2C_EZI2C_STATUS_WRITE1 - Write transfer complete. The buffer 
 303:Generated_Source\PSoC4/EZI2C_EZI2C.c **** *    content was modified. The transfer used the primary slave address. 
 304:Generated_Source\PSoC4/EZI2C_EZI2C.c **** *    The error condition status bit must be checked to ensure that write 
 305:Generated_Source\PSoC4/EZI2C_EZI2C.c **** *    transfer was completed successfully.
 306:Generated_Source\PSoC4/EZI2C_EZI2C.c **** *  - EZI2C_EZI2C_STATUS_READ2 - Read transfer complete. The transfer
 307:Generated_Source\PSoC4/EZI2C_EZI2C.c **** *    used the secondary slave address. The error condition status bit must be 
 308:Generated_Source\PSoC4/EZI2C_EZI2C.c **** *    checked to ensure that read transfer was completed successfully.
 309:Generated_Source\PSoC4/EZI2C_EZI2C.c **** *  - EZI2C_EZI2C_STATUS_WRITE2 - Write transfer complete. The buffer
 310:Generated_Source\PSoC4/EZI2C_EZI2C.c **** *    content was modified. The transfer used the secondary slave address. 
 311:Generated_Source\PSoC4/EZI2C_EZI2C.c **** *    The error condition status bit must be checked to ensure that write 
 312:Generated_Source\PSoC4/EZI2C_EZI2C.c **** *    transfer was completed successfully.
 313:Generated_Source\PSoC4/EZI2C_EZI2C.c **** *  - EZI2C_EZI2C_STATUS_BUSY - A transfer intended for the primary 
 314:Generated_Source\PSoC4/EZI2C_EZI2C.c **** *    or secondary address is in progress. The status bit is set after an 
 315:Generated_Source\PSoC4/EZI2C_EZI2C.c **** *    address match and cleared on a Stop or ReStart condition.
 316:Generated_Source\PSoC4/EZI2C_EZI2C.c **** *  - EZI2C_EZI2C_STATUS_ERR - An error occurred during a transfer 
ARM GAS  C:\Users\Erik\AppData\Local\Temp\ccYTRVJu.s 			page 7


 317:Generated_Source\PSoC4/EZI2C_EZI2C.c **** *    intended for the primary or secondary slave address. The sources of error
 318:Generated_Source\PSoC4/EZI2C_EZI2C.c **** *    are: misplaced Start or Stop condition or lost arbitration while slave 
 319:Generated_Source\PSoC4/EZI2C_EZI2C.c **** *    drives SDA.
 320:Generated_Source\PSoC4/EZI2C_EZI2C.c **** *    The write buffer may contain invalid byte or part of the transaction when 
 321:Generated_Source\PSoC4/EZI2C_EZI2C.c **** *    EZI2C_EZI2C_STATUS_ERR and EZI2C_EZI2C_STATUS_WRITE1/2 
 322:Generated_Source\PSoC4/EZI2C_EZI2C.c **** *    is set. It is recommended to discard buffer content in this case.
 323:Generated_Source\PSoC4/EZI2C_EZI2C.c **** *
 324:Generated_Source\PSoC4/EZI2C_EZI2C.c **** * \globalvars
 325:Generated_Source\PSoC4/EZI2C_EZI2C.c **** *  EZI2C_curStatus - used to store the current status of the EZI2C 
 326:Generated_Source\PSoC4/EZI2C_EZI2C.c **** *  slave.
 327:Generated_Source\PSoC4/EZI2C_EZI2C.c **** *
 328:Generated_Source\PSoC4/EZI2C_EZI2C.c **** *******************************************************************************/
 329:Generated_Source\PSoC4/EZI2C_EZI2C.c **** uint32 EZI2C_EzI2CGetActivity(void)
 330:Generated_Source\PSoC4/EZI2C_EZI2C.c **** {
 331:Generated_Source\PSoC4/EZI2C_EZI2C.c ****     uint32 status;
 332:Generated_Source\PSoC4/EZI2C_EZI2C.c **** 
 333:Generated_Source\PSoC4/EZI2C_EZI2C.c ****     EZI2C_DisableInt();  /* Lock from interruption */
 334:Generated_Source\PSoC4/EZI2C_EZI2C.c **** 
 335:Generated_Source\PSoC4/EZI2C_EZI2C.c ****     status = EZI2C_curStatus;
 336:Generated_Source\PSoC4/EZI2C_EZI2C.c **** 
 337:Generated_Source\PSoC4/EZI2C_EZI2C.c ****     /* Relay on address match event from HW as bus busy status */
 338:Generated_Source\PSoC4/EZI2C_EZI2C.c ****     #if(EZI2C_EZI2C_SCL_STRETCH_DISABLE)
 339:Generated_Source\PSoC4/EZI2C_EZI2C.c ****     {
 340:Generated_Source\PSoC4/EZI2C_EZI2C.c ****         /* For EZI2C_CY_SCBIP_V0 the wake is prohibited by customizer */
 341:Generated_Source\PSoC4/EZI2C_EZI2C.c ****         #if(EZI2C_EZI2C_EC_AM_ENABLE)
 342:Generated_Source\PSoC4/EZI2C_EZI2C.c ****         {
 343:Generated_Source\PSoC4/EZI2C_EZI2C.c ****             status |= EZI2C_CHECK_INTR_I2C_EC(EZI2C_INTR_I2C_EC_WAKE_UP) ?
 344:Generated_Source\PSoC4/EZI2C_EZI2C.c ****                         EZI2C_EZI2C_STATUS_BUSY : 0u;
 345:Generated_Source\PSoC4/EZI2C_EZI2C.c ****         }
 346:Generated_Source\PSoC4/EZI2C_EZI2C.c ****         #else
 347:Generated_Source\PSoC4/EZI2C_EZI2C.c ****         {
 348:Generated_Source\PSoC4/EZI2C_EZI2C.c ****             status |= EZI2C_CHECK_INTR_SLAVE(EZI2C_INTR_SLAVE_I2C_ADDR_MATCH) ?
 349:Generated_Source\PSoC4/EZI2C_EZI2C.c ****                         EZI2C_EZI2C_STATUS_BUSY : 0u;
 350:Generated_Source\PSoC4/EZI2C_EZI2C.c ****         }
 351:Generated_Source\PSoC4/EZI2C_EZI2C.c ****         #endif
 352:Generated_Source\PSoC4/EZI2C_EZI2C.c ****     }
 353:Generated_Source\PSoC4/EZI2C_EZI2C.c ****     #endif
 354:Generated_Source\PSoC4/EZI2C_EZI2C.c **** 
 355:Generated_Source\PSoC4/EZI2C_EZI2C.c ****     EZI2C_curStatus &= ((uint8) ~EZI2C_EZI2C_CLEAR_STATUS);
 356:Generated_Source\PSoC4/EZI2C_EZI2C.c **** 
 357:Generated_Source\PSoC4/EZI2C_EZI2C.c ****     EZI2C_EnableInt();   /* Release lock */
 358:Generated_Source\PSoC4/EZI2C_EZI2C.c **** 
 359:Generated_Source\PSoC4/EZI2C_EZI2C.c ****     return(status);
 360:Generated_Source\PSoC4/EZI2C_EZI2C.c **** }
 361:Generated_Source\PSoC4/EZI2C_EZI2C.c **** 
 362:Generated_Source\PSoC4/EZI2C_EZI2C.c **** 
 363:Generated_Source\PSoC4/EZI2C_EZI2C.c **** /*******************************************************************************
 364:Generated_Source\PSoC4/EZI2C_EZI2C.c **** * Function Name: EZI2C_EzI2CSetAddress1
 365:Generated_Source\PSoC4/EZI2C_EZI2C.c **** ****************************************************************************//**
 366:Generated_Source\PSoC4/EZI2C_EZI2C.c **** *
 367:Generated_Source\PSoC4/EZI2C_EZI2C.c **** *  Sets the primary EZI2C slave address.
 368:Generated_Source\PSoC4/EZI2C_EZI2C.c **** *
 369:Generated_Source\PSoC4/EZI2C_EZI2C.c **** * \param address: I2C slave address for the secondary device.
 370:Generated_Source\PSoC4/EZI2C_EZI2C.c **** *  This address is the 7-bit right-justified slave address and does not 
 371:Generated_Source\PSoC4/EZI2C_EZI2C.c **** *   include the R/W bit.
 372:Generated_Source\PSoC4/EZI2C_EZI2C.c **** *
 373:Generated_Source\PSoC4/EZI2C_EZI2C.c **** *  The address value is not checked to see if it violates the I2C spec. 
ARM GAS  C:\Users\Erik\AppData\Local\Temp\ccYTRVJu.s 			page 8


 374:Generated_Source\PSoC4/EZI2C_EZI2C.c **** *  The preferred addresses are in the range between 8 and 120 (0x08 to 0x78).
 375:Generated_Source\PSoC4/EZI2C_EZI2C.c **** *
 376:Generated_Source\PSoC4/EZI2C_EZI2C.c **** * \globalvars
 377:Generated_Source\PSoC4/EZI2C_EZI2C.c **** *  EZI2C_addrBuf1 - used to store the primary 7-bit slave address 
 378:Generated_Source\PSoC4/EZI2C_EZI2C.c **** *  value.
 379:Generated_Source\PSoC4/EZI2C_EZI2C.c **** *
 380:Generated_Source\PSoC4/EZI2C_EZI2C.c **** *******************************************************************************/
 381:Generated_Source\PSoC4/EZI2C_EZI2C.c **** void EZI2C_EzI2CSetAddress1(uint32 address)
 382:Generated_Source\PSoC4/EZI2C_EZI2C.c **** {
 383:Generated_Source\PSoC4/EZI2C_EZI2C.c ****     #if(EZI2C_SECONDARY_ADDRESS_ENABLE)
 384:Generated_Source\PSoC4/EZI2C_EZI2C.c ****     {
 385:Generated_Source\PSoC4/EZI2C_EZI2C.c ****         EZI2C_addrBuf1 = (uint8) address;
 386:Generated_Source\PSoC4/EZI2C_EZI2C.c **** 
 387:Generated_Source\PSoC4/EZI2C_EZI2C.c ****         EZI2C_RX_MATCH_REG = 
 388:Generated_Source\PSoC4/EZI2C_EZI2C.c ****                         EZI2C_EzI2CUpdateRxMatchReg(address, (uint32) EZI2C_addrBuf2);
 389:Generated_Source\PSoC4/EZI2C_EZI2C.c ****     }
 390:Generated_Source\PSoC4/EZI2C_EZI2C.c ****     #else
 391:Generated_Source\PSoC4/EZI2C_EZI2C.c ****     {
 392:Generated_Source\PSoC4/EZI2C_EZI2C.c ****         uint32 matchReg;
 393:Generated_Source\PSoC4/EZI2C_EZI2C.c **** 
 394:Generated_Source\PSoC4/EZI2C_EZI2C.c ****         matchReg = EZI2C_RX_MATCH_REG;
 395:Generated_Source\PSoC4/EZI2C_EZI2C.c **** 
 396:Generated_Source\PSoC4/EZI2C_EZI2C.c ****         /* Set address. */
 397:Generated_Source\PSoC4/EZI2C_EZI2C.c ****         matchReg &= (uint32) ~EZI2C_RX_MATCH_ADDR_MASK;
 398:Generated_Source\PSoC4/EZI2C_EZI2C.c ****         matchReg |= (uint32)  EZI2C_GET_I2C_8BIT_ADDRESS(address);
 399:Generated_Source\PSoC4/EZI2C_EZI2C.c **** 
 400:Generated_Source\PSoC4/EZI2C_EZI2C.c ****         EZI2C_RX_MATCH_REG = matchReg;
 401:Generated_Source\PSoC4/EZI2C_EZI2C.c ****     }
 402:Generated_Source\PSoC4/EZI2C_EZI2C.c ****     #endif
 403:Generated_Source\PSoC4/EZI2C_EZI2C.c **** }
 404:Generated_Source\PSoC4/EZI2C_EZI2C.c **** 
 405:Generated_Source\PSoC4/EZI2C_EZI2C.c **** 
 406:Generated_Source\PSoC4/EZI2C_EZI2C.c **** /*******************************************************************************
 407:Generated_Source\PSoC4/EZI2C_EZI2C.c **** * Function Name: EZI2C_EzI2CGetAddress1
 408:Generated_Source\PSoC4/EZI2C_EZI2C.c **** ****************************************************************************//**
 409:Generated_Source\PSoC4/EZI2C_EZI2C.c **** *
 410:Generated_Source\PSoC4/EZI2C_EZI2C.c **** *  Returns primary the EZ I2C slave address.
 411:Generated_Source\PSoC4/EZI2C_EZI2C.c **** *  This address is the 7-bit right-justified slave address and does not include 
 412:Generated_Source\PSoC4/EZI2C_EZI2C.c **** *  the R/W bit.
 413:Generated_Source\PSoC4/EZI2C_EZI2C.c **** *
 414:Generated_Source\PSoC4/EZI2C_EZI2C.c **** * \return
 415:Generated_Source\PSoC4/EZI2C_EZI2C.c **** *  Primary EZI2C slave address.
 416:Generated_Source\PSoC4/EZI2C_EZI2C.c **** *
 417:Generated_Source\PSoC4/EZI2C_EZI2C.c **** * \globalvars
 418:Generated_Source\PSoC4/EZI2C_EZI2C.c **** *  EZI2C_addrBuf1 - used to store the primary 7-bit slave address 
 419:Generated_Source\PSoC4/EZI2C_EZI2C.c **** *  value.
 420:Generated_Source\PSoC4/EZI2C_EZI2C.c **** *
 421:Generated_Source\PSoC4/EZI2C_EZI2C.c **** *******************************************************************************/
 422:Generated_Source\PSoC4/EZI2C_EZI2C.c **** uint32 EZI2C_EzI2CGetAddress1(void)
 423:Generated_Source\PSoC4/EZI2C_EZI2C.c **** {
 424:Generated_Source\PSoC4/EZI2C_EZI2C.c ****     uint32 address;
 425:Generated_Source\PSoC4/EZI2C_EZI2C.c **** 
 426:Generated_Source\PSoC4/EZI2C_EZI2C.c ****     #if(EZI2C_SECONDARY_ADDRESS_ENABLE)
 427:Generated_Source\PSoC4/EZI2C_EZI2C.c ****     {
 428:Generated_Source\PSoC4/EZI2C_EZI2C.c ****         address = (uint32) EZI2C_addrBuf1;
 429:Generated_Source\PSoC4/EZI2C_EZI2C.c ****     }
 430:Generated_Source\PSoC4/EZI2C_EZI2C.c ****     #else
ARM GAS  C:\Users\Erik\AppData\Local\Temp\ccYTRVJu.s 			page 9


 431:Generated_Source\PSoC4/EZI2C_EZI2C.c ****     {
 432:Generated_Source\PSoC4/EZI2C_EZI2C.c ****         address = (EZI2C_GET_RX_MATCH_ADDR(EZI2C_RX_MATCH_REG) >>
 433:Generated_Source\PSoC4/EZI2C_EZI2C.c ****                    EZI2C_I2C_SLAVE_ADDR_POS);
 434:Generated_Source\PSoC4/EZI2C_EZI2C.c ****     }
 435:Generated_Source\PSoC4/EZI2C_EZI2C.c ****     #endif
 436:Generated_Source\PSoC4/EZI2C_EZI2C.c **** 
 437:Generated_Source\PSoC4/EZI2C_EZI2C.c ****     return(address);
 438:Generated_Source\PSoC4/EZI2C_EZI2C.c **** }
 439:Generated_Source\PSoC4/EZI2C_EZI2C.c **** 
 440:Generated_Source\PSoC4/EZI2C_EZI2C.c **** 
 441:Generated_Source\PSoC4/EZI2C_EZI2C.c **** /*******************************************************************************
 442:Generated_Source\PSoC4/EZI2C_EZI2C.c **** * Function Name: EZI2C_EzI2CSetBuffer1
 443:Generated_Source\PSoC4/EZI2C_EZI2C.c **** ****************************************************************************//**
 444:Generated_Source\PSoC4/EZI2C_EZI2C.c **** *
 445:Generated_Source\PSoC4/EZI2C_EZI2C.c **** *  Sets up the data buffer to be exposed to the I2C master on a primary slave
 446:Generated_Source\PSoC4/EZI2C_EZI2C.c **** *  address request.
 447:Generated_Source\PSoC4/EZI2C_EZI2C.c **** *
 448:Generated_Source\PSoC4/EZI2C_EZI2C.c **** * \param bufSize: Size of the buffer in bytes.
 449:Generated_Source\PSoC4/EZI2C_EZI2C.c **** * \param rwBoundary: Number of data bytes starting from the beginning of the 
 450:Generated_Source\PSoC4/EZI2C_EZI2C.c **** *  buffer with read and write access. Data bytes located at offset rwBoundary 
 451:Generated_Source\PSoC4/EZI2C_EZI2C.c **** *  or greater are read only.
 452:Generated_Source\PSoC4/EZI2C_EZI2C.c **** *  This value must be less than or equal to the buffer size.
 453:Generated_Source\PSoC4/EZI2C_EZI2C.c **** * \param buffer: Pointer to the data buffer.
 454:Generated_Source\PSoC4/EZI2C_EZI2C.c **** *
 455:Generated_Source\PSoC4/EZI2C_EZI2C.c **** * \sideeffect
 456:Generated_Source\PSoC4/EZI2C_EZI2C.c **** *  Calling this function in the middle of a transaction intended for the 
 457:Generated_Source\PSoC4/EZI2C_EZI2C.c **** *  primary slave address leads to unexpected behavior.
 458:Generated_Source\PSoC4/EZI2C_EZI2C.c **** *
 459:Generated_Source\PSoC4/EZI2C_EZI2C.c **** * \globalvars
 460:Generated_Source\PSoC4/EZI2C_EZI2C.c **** *  EZI2C_dataBuffer1 – the pointer to the buffer to be exposed to the
 461:Generated_Source\PSoC4/EZI2C_EZI2C.c **** *  master on a primary address.
 462:Generated_Source\PSoC4/EZI2C_EZI2C.c **** *  EZI2C_bufSizeBuf1 - the size of the buffer to be exposed to the 
 463:Generated_Source\PSoC4/EZI2C_EZI2C.c **** *  master on a primary address.
 464:Generated_Source\PSoC4/EZI2C_EZI2C.c **** *  EZI2C_protectBuf1 - the start index of the read-only region in the
 465:Generated_Source\PSoC4/EZI2C_EZI2C.c **** *  buffer to be exposed to the master on a primary address. The read-only region
 466:Generated_Source\PSoC4/EZI2C_EZI2C.c **** *  continues up to the end the buffer.
 467:Generated_Source\PSoC4/EZI2C_EZI2C.c **** *
 468:Generated_Source\PSoC4/EZI2C_EZI2C.c **** *******************************************************************************/
 469:Generated_Source\PSoC4/EZI2C_EZI2C.c **** void EZI2C_EzI2CSetBuffer1(uint32 bufSize, uint32 rwBoundary, volatile uint8 * buffer)
 470:Generated_Source\PSoC4/EZI2C_EZI2C.c **** {
 471:Generated_Source\PSoC4/EZI2C_EZI2C.c ****     if (NULL != buffer)
 472:Generated_Source\PSoC4/EZI2C_EZI2C.c ****     {
 473:Generated_Source\PSoC4/EZI2C_EZI2C.c ****         EZI2C_DisableInt();  /* Lock from interruption */
 474:Generated_Source\PSoC4/EZI2C_EZI2C.c **** 
 475:Generated_Source\PSoC4/EZI2C_EZI2C.c ****         EZI2C_dataBuffer1 =  buffer;
 476:Generated_Source\PSoC4/EZI2C_EZI2C.c ****         EZI2C_bufSizeBuf1 = (uint16) bufSize;
 477:Generated_Source\PSoC4/EZI2C_EZI2C.c ****         EZI2C_protectBuf1 = (uint16) rwBoundary;
 478:Generated_Source\PSoC4/EZI2C_EZI2C.c **** 
 479:Generated_Source\PSoC4/EZI2C_EZI2C.c ****         EZI2C_EnableInt();   /* Release lock */
 480:Generated_Source\PSoC4/EZI2C_EZI2C.c ****     }
 481:Generated_Source\PSoC4/EZI2C_EZI2C.c **** }
 482:Generated_Source\PSoC4/EZI2C_EZI2C.c **** 
 483:Generated_Source\PSoC4/EZI2C_EZI2C.c **** 
 484:Generated_Source\PSoC4/EZI2C_EZI2C.c **** /*******************************************************************************
 485:Generated_Source\PSoC4/EZI2C_EZI2C.c **** * Function Name: EZI2C_EzI2CSetReadBoundaryBuffer1
 486:Generated_Source\PSoC4/EZI2C_EZI2C.c **** ****************************************************************************//**
 487:Generated_Source\PSoC4/EZI2C_EZI2C.c **** *
ARM GAS  C:\Users\Erik\AppData\Local\Temp\ccYTRVJu.s 			page 10


 488:Generated_Source\PSoC4/EZI2C_EZI2C.c **** *  Sets the read only boundary in the data buffer to be exposed to the I2C
 489:Generated_Source\PSoC4/EZI2C_EZI2C.c **** *  master on a primary slave address request.
 490:Generated_Source\PSoC4/EZI2C_EZI2C.c **** *
 491:Generated_Source\PSoC4/EZI2C_EZI2C.c **** * \param rwBoundry: Number of data bytes starting from the beginning of the 
 492:Generated_Source\PSoC4/EZI2C_EZI2C.c **** *  buffer with read and write access. Data bytes located at offset rwBoundary 
 493:Generated_Source\PSoC4/EZI2C_EZI2C.c **** *  or greater are read only.
 494:Generated_Source\PSoC4/EZI2C_EZI2C.c **** *  This value must be less than or equal to the buffer size.
 495:Generated_Source\PSoC4/EZI2C_EZI2C.c **** *
 496:Generated_Source\PSoC4/EZI2C_EZI2C.c **** * \sideeffect
 497:Generated_Source\PSoC4/EZI2C_EZI2C.c **** *  Calling this function in the middle of a transaction intended for the 
 498:Generated_Source\PSoC4/EZI2C_EZI2C.c **** *  primary slave address leads to unexpected behavior.
 499:Generated_Source\PSoC4/EZI2C_EZI2C.c **** *
 500:Generated_Source\PSoC4/EZI2C_EZI2C.c **** * \globalvars
 501:Generated_Source\PSoC4/EZI2C_EZI2C.c **** *  EZI2C_protectBuf1 - the start index of the read-only region in the
 502:Generated_Source\PSoC4/EZI2C_EZI2C.c **** *  buffer to be exposed to the master on a primary address. The read-only region
 503:Generated_Source\PSoC4/EZI2C_EZI2C.c **** *  continues up to the end the buffer.
 504:Generated_Source\PSoC4/EZI2C_EZI2C.c **** *
 505:Generated_Source\PSoC4/EZI2C_EZI2C.c **** *******************************************************************************/
 506:Generated_Source\PSoC4/EZI2C_EZI2C.c **** void EZI2C_EzI2CSetReadBoundaryBuffer1(uint32 rwBoundary)
 507:Generated_Source\PSoC4/EZI2C_EZI2C.c **** {
 508:Generated_Source\PSoC4/EZI2C_EZI2C.c ****     EZI2C_protectBuf1 = (uint16) rwBoundary;
 509:Generated_Source\PSoC4/EZI2C_EZI2C.c **** }
 510:Generated_Source\PSoC4/EZI2C_EZI2C.c **** 
 511:Generated_Source\PSoC4/EZI2C_EZI2C.c **** 
 512:Generated_Source\PSoC4/EZI2C_EZI2C.c **** #if(EZI2C_SECONDARY_ADDRESS_ENABLE_CONST)
 513:Generated_Source\PSoC4/EZI2C_EZI2C.c ****     /*******************************************************************************
 514:Generated_Source\PSoC4/EZI2C_EZI2C.c ****     * Function Name: EZI2C_EzI2CUpdateRxMatchReg
 515:Generated_Source\PSoC4/EZI2C_EZI2C.c ****     ****************************************************************************//**
 516:Generated_Source\PSoC4/EZI2C_EZI2C.c ****     *
 517:Generated_Source\PSoC4/EZI2C_EZI2C.c ****     *  Returns the value of the RX MATCH register for addr1 and addr2. The addr1 is
 518:Generated_Source\PSoC4/EZI2C_EZI2C.c ****     *  accepted as the primary address and it is written to RX_MATCH.ADDRESS
 519:Generated_Source\PSoC4/EZI2C_EZI2C.c ****     *  (addr1 << 0x01).
 520:Generated_Source\PSoC4/EZI2C_EZI2C.c ****     *  The RX_MATCH.MASK is set as follow: addr1 and addr2 equal bits set to 1
 521:Generated_Source\PSoC4/EZI2C_EZI2C.c ****     *  otherwise 0.
 522:Generated_Source\PSoC4/EZI2C_EZI2C.c ****     *
 523:Generated_Source\PSoC4/EZI2C_EZI2C.c ****     * \param addr1: I2C slave address for the primary device.
 524:Generated_Source\PSoC4/EZI2C_EZI2C.c ****     * \param addr2: I2C slave address for the secondary device.
 525:Generated_Source\PSoC4/EZI2C_EZI2C.c ****     *  This address is the 7-bit right-justified slave address and does
 526:Generated_Source\PSoC4/EZI2C_EZI2C.c ****     *  not include the R/W bit.
 527:Generated_Source\PSoC4/EZI2C_EZI2C.c ****     *
 528:Generated_Source\PSoC4/EZI2C_EZI2C.c ****     * \return
 529:Generated_Source\PSoC4/EZI2C_EZI2C.c ****     *  Value of RX MATCH register.
 530:Generated_Source\PSoC4/EZI2C_EZI2C.c ****     *
 531:Generated_Source\PSoC4/EZI2C_EZI2C.c ****     *******************************************************************************/
 532:Generated_Source\PSoC4/EZI2C_EZI2C.c ****     static uint32 EZI2C_EzI2CUpdateRxMatchReg(uint32 addr1, uint32 addr2)
 533:Generated_Source\PSoC4/EZI2C_EZI2C.c ****     {
  27              		.loc 1 533 0
  28              		.cfi_startproc
  29              		@ args = 0, pretend = 0, frame = 0
  30              		@ frame_needed = 0, uses_anonymous_args = 0
  31              		@ link register save eliminated.
  32              	.LVL0:
 534:Generated_Source\PSoC4/EZI2C_EZI2C.c ****         uint32 matchReg;
 535:Generated_Source\PSoC4/EZI2C_EZI2C.c **** 
 536:Generated_Source\PSoC4/EZI2C_EZI2C.c ****         matchReg  = ~(addr1 ^ addr2); /* If (addr1 and addr2) bit matches - mask bit equals 1, in o
  33              		.loc 1 536 0
  34 0000 4140     		eors	r1, r0
ARM GAS  C:\Users\Erik\AppData\Local\Temp\ccYTRVJu.s 			page 11


  35              	.LVL1:
  36 0002 C943     		mvns	r1, r1
  37              	.LVL2:
 537:Generated_Source\PSoC4/EZI2C_EZI2C.c **** 
 538:Generated_Source\PSoC4/EZI2C_EZI2C.c ****         matchReg  = (uint32) (EZI2C_GET_I2C_8BIT_ADDRESS(matchReg) << EZI2C_RX_MATCH_MASK_POS);
  38              		.loc 1 538 0
  39 0004 4904     		lsls	r1, r1, #17
  40              	.LVL3:
  41 0006 FF23     		movs	r3, #255
  42 0008 1B04     		lsls	r3, r3, #16
  43 000a 1940     		ands	r1, r3
  44              	.LVL4:
 539:Generated_Source\PSoC4/EZI2C_EZI2C.c ****         matchReg |= EZI2C_GET_I2C_8BIT_ADDRESS(addr1);
  45              		.loc 1 539 0
  46 000c 4300     		lsls	r3, r0, #1
  47 000e FF20     		movs	r0, #255
  48              	.LVL5:
  49 0010 1840     		ands	r0, r3
  50 0012 0843     		orrs	r0, r1
  51              	.LVL6:
 540:Generated_Source\PSoC4/EZI2C_EZI2C.c **** 
 541:Generated_Source\PSoC4/EZI2C_EZI2C.c ****         return(matchReg);
 542:Generated_Source\PSoC4/EZI2C_EZI2C.c ****     }
  52              		.loc 1 542 0
  53              		@ sp needed
  54 0014 7047     		bx	lr
  55              		.cfi_endproc
  56              	.LFE8:
  57              		.size	EZI2C_EzI2CUpdateRxMatchReg, .-EZI2C_EzI2CUpdateRxMatchReg
  58 0016 C046     		.section	.text.EZI2C_EzI2CInit,"ax",%progbits
  59              		.align	2
  60              		.global	EZI2C_EzI2CInit
  61              		.code	16
  62              		.thumb_func
  63              		.type	EZI2C_EzI2CInit, %function
  64              	EZI2C_EzI2CInit:
  65              	.LFB1:
 212:Generated_Source\PSoC4/EZI2C_EZI2C.c ****         /* Configure I2C interface */
  66              		.loc 1 212 0
  67              		.cfi_startproc
  68              		@ args = 0, pretend = 0, frame = 0
  69              		@ frame_needed = 0, uses_anonymous_args = 0
  70 0000 10B5     		push	{r4, lr}
  71              		.cfi_def_cfa_offset 8
  72              		.cfi_offset 4, -8
  73              		.cfi_offset 14, -4
 214:Generated_Source\PSoC4/EZI2C_EZI2C.c ****         EZI2C_I2C_CTRL_REG = EZI2C_EZI2C_DEFAULT_I2C_CTRL;
  74              		.loc 1 214 0
  75 0002 8022     		movs	r2, #128
  76 0004 5202     		lsls	r2, r2, #9
  77 0006 204B     		ldr	r3, .L3
  78 0008 1A60     		str	r2, [r3]
 215:Generated_Source\PSoC4/EZI2C_EZI2C.c **** 
  79              		.loc 1 215 0
  80 000a 204A     		ldr	r2, .L3+4
  81 000c 204B     		ldr	r3, .L3+8
  82 000e 1A60     		str	r2, [r3]
ARM GAS  C:\Users\Erik\AppData\Local\Temp\ccYTRVJu.s 			page 12


 223:Generated_Source\PSoC4/EZI2C_EZI2C.c ****         EZI2C_RX_FIFO_CTRL_REG = EZI2C_EZI2C_DEFAULT_RX_FIFO_CTRL;
  83              		.loc 1 223 0
  84 0010 204B     		ldr	r3, .L3+12
  85 0012 214A     		ldr	r2, .L3+16
  86 0014 1360     		str	r3, [r2]
 224:Generated_Source\PSoC4/EZI2C_EZI2C.c **** 
  87              		.loc 1 224 0
  88 0016 0024     		movs	r4, #0
  89 0018 204A     		ldr	r2, .L3+20
  90 001a 1460     		str	r4, [r2]
 227:Generated_Source\PSoC4/EZI2C_EZI2C.c **** 
  91              		.loc 1 227 0
  92 001c 2049     		ldr	r1, .L3+24
  93 001e 214A     		ldr	r2, .L3+28
  94 0020 1160     		str	r1, [r2]
 230:Generated_Source\PSoC4/EZI2C_EZI2C.c ****         EZI2C_TX_FIFO_CTRL_REG = EZI2C_EZI2C_DEFAULT_TX_FIFO_CTRL;
  95              		.loc 1 230 0
  96 0022 214A     		ldr	r2, .L3+32
  97 0024 1360     		str	r3, [r2]
 231:Generated_Source\PSoC4/EZI2C_EZI2C.c **** 
  98              		.loc 1 231 0
  99 0026 214B     		ldr	r3, .L3+36
 100 0028 1C60     		str	r4, [r3]
 235:Generated_Source\PSoC4/EZI2C_EZI2C.c ****         CyIntSetPriority(EZI2C_ISR_NUMBER, EZI2C_ISR_PRIORITY);
 101              		.loc 1 235 0
 102 002a 0820     		movs	r0, #8
 103 002c FFF7FEFF 		bl	CyIntDisable
 104              	.LVL7:
 236:Generated_Source\PSoC4/EZI2C_EZI2C.c **** 
 105              		.loc 1 236 0
 106 0030 0321     		movs	r1, #3
 107 0032 0820     		movs	r0, #8
 108 0034 FFF7FEFF 		bl	CyIntSetPriority
 109              	.LVL8:
 239:Generated_Source\PSoC4/EZI2C_EZI2C.c ****     #else
 110              		.loc 1 239 0
 111 0038 1D49     		ldr	r1, .L3+40
 112 003a 0820     		movs	r0, #8
 113 003c FFF7FEFF 		bl	CyIntSetVector
 114              	.LVL9:
 248:Generated_Source\PSoC4/EZI2C_EZI2C.c ****     #endif /* (!EZI2C_CY_SCBIP_V1) */
 115              		.loc 1 248 0
 116 0040 1C4B     		ldr	r3, .L3+44
 117 0042 1C60     		str	r4, [r3]
 251:Generated_Source\PSoC4/EZI2C_EZI2C.c ****         EZI2C_INTR_SLAVE_MASK_REG  = EZI2C_EZI2C_DEFAULT_INTR_SLAVE_MASK;
 118              		.loc 1 251 0
 119 0044 1C4B     		ldr	r3, .L3+48
 120 0046 1C60     		str	r4, [r3]
 252:Generated_Source\PSoC4/EZI2C_EZI2C.c ****         EZI2C_INTR_MASTER_MASK_REG = EZI2C_EZI2C_DEFAULT_INTR_MASTER_MASK;
 121              		.loc 1 252 0
 122 0048 5222     		movs	r2, #82
 123 004a FF32     		adds	r2, r2, #255
 124 004c 1B4B     		ldr	r3, .L3+52
 125 004e 1A60     		str	r2, [r3]
 253:Generated_Source\PSoC4/EZI2C_EZI2C.c ****         EZI2C_INTR_RX_MASK_REG     = EZI2C_EZI2C_DEFAULT_INTR_RX_MASK;
 126              		.loc 1 253 0
 127 0050 1B4B     		ldr	r3, .L3+56
ARM GAS  C:\Users\Erik\AppData\Local\Temp\ccYTRVJu.s 			page 13


 128 0052 1C60     		str	r4, [r3]
 254:Generated_Source\PSoC4/EZI2C_EZI2C.c ****         EZI2C_INTR_TX_MASK_REG     = EZI2C_EZI2C_DEFAULT_INTR_TX_MASK;
 129              		.loc 1 254 0
 130 0054 1B4B     		ldr	r3, .L3+60
 131 0056 1C60     		str	r4, [r3]
 255:Generated_Source\PSoC4/EZI2C_EZI2C.c **** 
 132              		.loc 1 255 0
 133 0058 1B4B     		ldr	r3, .L3+64
 134 005a 1C60     		str	r4, [r3]
 258:Generated_Source\PSoC4/EZI2C_EZI2C.c **** 
 135              		.loc 1 258 0
 136 005c 503A     		subs	r2, r2, #80
 137 005e FF3A     		subs	r2, r2, #255
 138 0060 1A4B     		ldr	r3, .L3+68
 139 0062 1A70     		strb	r2, [r3]
 260:Generated_Source\PSoC4/EZI2C_EZI2C.c ****         EZI2C_indexBuf1  = 0u;
 140              		.loc 1 260 0
 141 0064 1A4B     		ldr	r3, .L3+72
 142 0066 1C70     		strb	r4, [r3]
 261:Generated_Source\PSoC4/EZI2C_EZI2C.c ****         EZI2C_offsetBuf1 = 0u;
 143              		.loc 1 261 0
 144 0068 1A4B     		ldr	r3, .L3+76
 145 006a 1C80     		strh	r4, [r3]
 262:Generated_Source\PSoC4/EZI2C_EZI2C.c **** 
 146              		.loc 1 262 0
 147 006c 1A4B     		ldr	r3, .L3+80
 148 006e 1C80     		strh	r4, [r3]
 265:Generated_Source\PSoC4/EZI2C_EZI2C.c ****         EZI2C_offsetBuf2 = 0u;
 149              		.loc 1 265 0
 150 0070 1A4B     		ldr	r3, .L3+84
 151 0072 1C80     		strh	r4, [r3]
 266:Generated_Source\PSoC4/EZI2C_EZI2C.c **** 
 152              		.loc 1 266 0
 153 0074 1A4B     		ldr	r3, .L3+88
 154 0076 1C80     		strh	r4, [r3]
 268:Generated_Source\PSoC4/EZI2C_EZI2C.c ****         EZI2C_addrBuf2 = EZI2C_EZI2C_SECONDARY_SLAVE_ADDRESS;
 155              		.loc 1 268 0
 156 0078 0632     		adds	r2, r2, #6
 157 007a 1A4B     		ldr	r3, .L3+92
 158 007c 1A70     		strb	r2, [r3]
 269:Generated_Source\PSoC4/EZI2C_EZI2C.c ****     #endif /* (EZI2C_SECONDARY_ADDRESS_ENABLE_CONST) */
 159              		.loc 1 269 0
 160 007e 0132     		adds	r2, r2, #1
 161 0080 194B     		ldr	r3, .L3+96
 162 0082 1A70     		strb	r2, [r3]
 271:Generated_Source\PSoC4/EZI2C_EZI2C.c **** #endif /* (EZI2C_SCB_MODE_UNCONFIG_CONST_CFG) */
 163              		.loc 1 271 0
 164              		@ sp needed
 165 0084 10BD     		pop	{r4, pc}
 166              	.L4:
 167 0086 C046     		.align	2
 168              	.L3:
 169 0088 00002440 		.word	1076101120
 170 008c 00080040 		.word	1073743872
 171 0090 60002440 		.word	1076101216
 172 0094 07010080 		.word	-2147483385
 173 0098 00032440 		.word	1076101888
ARM GAS  C:\Users\Erik\AppData\Local\Temp\ccYTRVJu.s 			page 14


 174 009c 04032440 		.word	1076101892
 175 00a0 1000FC00 		.word	16515088
 176 00a4 10032440 		.word	1076101904
 177 00a8 00022440 		.word	1076101632
 178 00ac 04022440 		.word	1076101636
 179 00b0 00000000 		.word	EZI2C_EZI2C_STRETCH_ISR
 180 00b4 C80E2440 		.word	1076104904
 181 00b8 880E2440 		.word	1076104840
 182 00bc 480F2440 		.word	1076105032
 183 00c0 080F2440 		.word	1076104968
 184 00c4 C80F2440 		.word	1076105160
 185 00c8 880F2440 		.word	1076105096
 186 00cc 00000000 		.word	EZI2C_fsmState
 187 00d0 00000000 		.word	EZI2C_curStatus
 188 00d4 00000000 		.word	EZI2C_indexBuf1
 189 00d8 00000000 		.word	EZI2C_offsetBuf1
 190 00dc 00000000 		.word	EZI2C_indexBuf2
 191 00e0 00000000 		.word	EZI2C_offsetBuf2
 192 00e4 00000000 		.word	EZI2C_addrBuf1
 193 00e8 00000000 		.word	EZI2C_addrBuf2
 194              		.cfi_endproc
 195              	.LFE1:
 196              		.size	EZI2C_EzI2CInit, .-EZI2C_EzI2CInit
 197              		.section	.text.EZI2C_EzI2CStop,"ax",%progbits
 198              		.align	2
 199              		.global	EZI2C_EzI2CStop
 200              		.code	16
 201              		.thumb_func
 202              		.type	EZI2C_EzI2CStop, %function
 203              	EZI2C_EzI2CStop:
 204              	.LFB2:
 283:Generated_Source\PSoC4/EZI2C_EZI2C.c ****     EZI2C_fsmState = EZI2C_EZI2C_FSM_IDLE;
 205              		.loc 1 283 0
 206              		.cfi_startproc
 207              		@ args = 0, pretend = 0, frame = 0
 208              		@ frame_needed = 0, uses_anonymous_args = 0
 209              		@ link register save eliminated.
 284:Generated_Source\PSoC4/EZI2C_EZI2C.c **** }
 210              		.loc 1 284 0
 211 0000 0222     		movs	r2, #2
 212 0002 014B     		ldr	r3, .L6
 213 0004 1A70     		strb	r2, [r3]
 285:Generated_Source\PSoC4/EZI2C_EZI2C.c **** 
 214              		.loc 1 285 0
 215              		@ sp needed
 216 0006 7047     		bx	lr
 217              	.L7:
 218              		.align	2
 219              	.L6:
 220 0008 00000000 		.word	EZI2C_fsmState
 221              		.cfi_endproc
 222              	.LFE2:
 223              		.size	EZI2C_EzI2CStop, .-EZI2C_EzI2CStop
 224              		.section	.text.EZI2C_EzI2CGetActivity,"ax",%progbits
 225              		.align	2
 226              		.global	EZI2C_EzI2CGetActivity
 227              		.code	16
ARM GAS  C:\Users\Erik\AppData\Local\Temp\ccYTRVJu.s 			page 15


 228              		.thumb_func
 229              		.type	EZI2C_EzI2CGetActivity, %function
 230              	EZI2C_EzI2CGetActivity:
 231              	.LFB3:
 330:Generated_Source\PSoC4/EZI2C_EZI2C.c ****     uint32 status;
 232              		.loc 1 330 0
 233              		.cfi_startproc
 234              		@ args = 0, pretend = 0, frame = 0
 235              		@ frame_needed = 0, uses_anonymous_args = 0
 236 0000 10B5     		push	{r4, lr}
 237              		.cfi_def_cfa_offset 8
 238              		.cfi_offset 4, -8
 239              		.cfi_offset 14, -4
 333:Generated_Source\PSoC4/EZI2C_EZI2C.c **** 
 240              		.loc 1 333 0
 241 0002 0820     		movs	r0, #8
 242 0004 FFF7FEFF 		bl	CyIntDisable
 243              	.LVL10:
 335:Generated_Source\PSoC4/EZI2C_EZI2C.c **** 
 244              		.loc 1 335 0
 245 0008 054B     		ldr	r3, .L9
 246 000a 1C78     		ldrb	r4, [r3]
 247 000c E4B2     		uxtb	r4, r4
 248              	.LVL11:
 355:Generated_Source\PSoC4/EZI2C_EZI2C.c **** 
 249              		.loc 1 355 0
 250 000e 1A78     		ldrb	r2, [r3]
 251 0010 1F21     		movs	r1, #31
 252 0012 8A43     		bics	r2, r1
 253 0014 1A70     		strb	r2, [r3]
 357:Generated_Source\PSoC4/EZI2C_EZI2C.c **** 
 254              		.loc 1 357 0
 255 0016 0820     		movs	r0, #8
 256 0018 FFF7FEFF 		bl	CyIntEnable
 257              	.LVL12:
 360:Generated_Source\PSoC4/EZI2C_EZI2C.c **** 
 258              		.loc 1 360 0
 259 001c 2000     		movs	r0, r4
 260              		@ sp needed
 261              	.LVL13:
 262 001e 10BD     		pop	{r4, pc}
 263              	.L10:
 264              		.align	2
 265              	.L9:
 266 0020 00000000 		.word	EZI2C_curStatus
 267              		.cfi_endproc
 268              	.LFE3:
 269              		.size	EZI2C_EzI2CGetActivity, .-EZI2C_EzI2CGetActivity
 270              		.section	.text.EZI2C_EzI2CSetAddress1,"ax",%progbits
 271              		.align	2
 272              		.global	EZI2C_EzI2CSetAddress1
 273              		.code	16
 274              		.thumb_func
 275              		.type	EZI2C_EzI2CSetAddress1, %function
 276              	EZI2C_EzI2CSetAddress1:
 277              	.LFB4:
 382:Generated_Source\PSoC4/EZI2C_EZI2C.c ****     #if(EZI2C_SECONDARY_ADDRESS_ENABLE)
ARM GAS  C:\Users\Erik\AppData\Local\Temp\ccYTRVJu.s 			page 16


 278              		.loc 1 382 0
 279              		.cfi_startproc
 280              		@ args = 0, pretend = 0, frame = 0
 281              		@ frame_needed = 0, uses_anonymous_args = 0
 282              	.LVL14:
 283 0000 10B5     		push	{r4, lr}
 284              		.cfi_def_cfa_offset 8
 285              		.cfi_offset 4, -8
 286              		.cfi_offset 14, -4
 385:Generated_Source\PSoC4/EZI2C_EZI2C.c **** 
 287              		.loc 1 385 0
 288 0002 044B     		ldr	r3, .L12
 289 0004 1870     		strb	r0, [r3]
 388:Generated_Source\PSoC4/EZI2C_EZI2C.c ****     }
 290              		.loc 1 388 0
 291 0006 044B     		ldr	r3, .L12+4
 292 0008 1978     		ldrb	r1, [r3]
 293 000a FFF7FEFF 		bl	EZI2C_EzI2CUpdateRxMatchReg
 294              	.LVL15:
 387:Generated_Source\PSoC4/EZI2C_EZI2C.c ****                         EZI2C_EzI2CUpdateRxMatchReg(address, (uint32) EZI2C_addrBuf2);
 295              		.loc 1 387 0
 296 000e 034B     		ldr	r3, .L12+8
 297 0010 1860     		str	r0, [r3]
 403:Generated_Source\PSoC4/EZI2C_EZI2C.c **** 
 298              		.loc 1 403 0
 299              		@ sp needed
 300 0012 10BD     		pop	{r4, pc}
 301              	.L13:
 302              		.align	2
 303              	.L12:
 304 0014 00000000 		.word	EZI2C_addrBuf1
 305 0018 00000000 		.word	EZI2C_addrBuf2
 306 001c 10032440 		.word	1076101904
 307              		.cfi_endproc
 308              	.LFE4:
 309              		.size	EZI2C_EzI2CSetAddress1, .-EZI2C_EzI2CSetAddress1
 310              		.section	.text.EZI2C_EzI2CGetAddress1,"ax",%progbits
 311              		.align	2
 312              		.global	EZI2C_EzI2CGetAddress1
 313              		.code	16
 314              		.thumb_func
 315              		.type	EZI2C_EzI2CGetAddress1, %function
 316              	EZI2C_EzI2CGetAddress1:
 317              	.LFB5:
 423:Generated_Source\PSoC4/EZI2C_EZI2C.c ****     uint32 address;
 318              		.loc 1 423 0
 319              		.cfi_startproc
 320              		@ args = 0, pretend = 0, frame = 0
 321              		@ frame_needed = 0, uses_anonymous_args = 0
 322              		@ link register save eliminated.
 428:Generated_Source\PSoC4/EZI2C_EZI2C.c ****     }
 323              		.loc 1 428 0
 324 0000 014B     		ldr	r3, .L15
 325 0002 1878     		ldrb	r0, [r3]
 326              	.LVL16:
 438:Generated_Source\PSoC4/EZI2C_EZI2C.c **** 
 327              		.loc 1 438 0
ARM GAS  C:\Users\Erik\AppData\Local\Temp\ccYTRVJu.s 			page 17


 328              		@ sp needed
 329 0004 7047     		bx	lr
 330              	.L16:
 331 0006 C046     		.align	2
 332              	.L15:
 333 0008 00000000 		.word	EZI2C_addrBuf1
 334              		.cfi_endproc
 335              	.LFE5:
 336              		.size	EZI2C_EzI2CGetAddress1, .-EZI2C_EzI2CGetAddress1
 337              		.section	.text.EZI2C_EzI2CSetBuffer1,"ax",%progbits
 338              		.align	2
 339              		.global	EZI2C_EzI2CSetBuffer1
 340              		.code	16
 341              		.thumb_func
 342              		.type	EZI2C_EzI2CSetBuffer1, %function
 343              	EZI2C_EzI2CSetBuffer1:
 344              	.LFB6:
 470:Generated_Source\PSoC4/EZI2C_EZI2C.c ****     if (NULL != buffer)
 345              		.loc 1 470 0
 346              		.cfi_startproc
 347              		@ args = 0, pretend = 0, frame = 0
 348              		@ frame_needed = 0, uses_anonymous_args = 0
 349              	.LVL17:
 350 0000 70B5     		push	{r4, r5, r6, lr}
 351              		.cfi_def_cfa_offset 16
 352              		.cfi_offset 4, -16
 353              		.cfi_offset 5, -12
 354              		.cfi_offset 6, -8
 355              		.cfi_offset 14, -4
 356 0002 0600     		movs	r6, r0
 357 0004 0D00     		movs	r5, r1
 358 0006 141E     		subs	r4, r2, #0
 471:Generated_Source\PSoC4/EZI2C_EZI2C.c ****     {
 359              		.loc 1 471 0
 360 0008 0BD0     		beq	.L17
 473:Generated_Source\PSoC4/EZI2C_EZI2C.c **** 
 361              		.loc 1 473 0
 362 000a 0820     		movs	r0, #8
 363              	.LVL18:
 364 000c FFF7FEFF 		bl	CyIntDisable
 365              	.LVL19:
 475:Generated_Source\PSoC4/EZI2C_EZI2C.c ****         EZI2C_bufSizeBuf1 = (uint16) bufSize;
 366              		.loc 1 475 0
 367 0010 044B     		ldr	r3, .L19
 368 0012 1C60     		str	r4, [r3]
 476:Generated_Source\PSoC4/EZI2C_EZI2C.c ****         EZI2C_protectBuf1 = (uint16) rwBoundary;
 369              		.loc 1 476 0
 370 0014 044B     		ldr	r3, .L19+4
 371 0016 1E80     		strh	r6, [r3]
 477:Generated_Source\PSoC4/EZI2C_EZI2C.c **** 
 372              		.loc 1 477 0
 373 0018 044B     		ldr	r3, .L19+8
 374 001a 1D80     		strh	r5, [r3]
 479:Generated_Source\PSoC4/EZI2C_EZI2C.c ****     }
 375              		.loc 1 479 0
 376 001c 0820     		movs	r0, #8
 377 001e FFF7FEFF 		bl	CyIntEnable
ARM GAS  C:\Users\Erik\AppData\Local\Temp\ccYTRVJu.s 			page 18


 378              	.LVL20:
 379              	.L17:
 481:Generated_Source\PSoC4/EZI2C_EZI2C.c **** 
 380              		.loc 1 481 0
 381              		@ sp needed
 382              	.LVL21:
 383              	.LVL22:
 384              	.LVL23:
 385 0022 70BD     		pop	{r4, r5, r6, pc}
 386              	.L20:
 387              		.align	2
 388              	.L19:
 389 0024 00000000 		.word	EZI2C_dataBuffer1
 390 0028 00000000 		.word	EZI2C_bufSizeBuf1
 391 002c 00000000 		.word	EZI2C_protectBuf1
 392              		.cfi_endproc
 393              	.LFE6:
 394              		.size	EZI2C_EzI2CSetBuffer1, .-EZI2C_EzI2CSetBuffer1
 395              		.section	.text.EZI2C_EzI2CSetReadBoundaryBuffer1,"ax",%progbits
 396              		.align	2
 397              		.global	EZI2C_EzI2CSetReadBoundaryBuffer1
 398              		.code	16
 399              		.thumb_func
 400              		.type	EZI2C_EzI2CSetReadBoundaryBuffer1, %function
 401              	EZI2C_EzI2CSetReadBoundaryBuffer1:
 402              	.LFB7:
 507:Generated_Source\PSoC4/EZI2C_EZI2C.c ****     EZI2C_protectBuf1 = (uint16) rwBoundary;
 403              		.loc 1 507 0
 404              		.cfi_startproc
 405              		@ args = 0, pretend = 0, frame = 0
 406              		@ frame_needed = 0, uses_anonymous_args = 0
 407              		@ link register save eliminated.
 408              	.LVL24:
 508:Generated_Source\PSoC4/EZI2C_EZI2C.c **** }
 409              		.loc 1 508 0
 410 0000 014B     		ldr	r3, .L22
 411 0002 1880     		strh	r0, [r3]
 509:Generated_Source\PSoC4/EZI2C_EZI2C.c **** 
 412              		.loc 1 509 0
 413              		@ sp needed
 414 0004 7047     		bx	lr
 415              	.L23:
 416 0006 C046     		.align	2
 417              	.L22:
 418 0008 00000000 		.word	EZI2C_protectBuf1
 419              		.cfi_endproc
 420              	.LFE7:
 421              		.size	EZI2C_EzI2CSetReadBoundaryBuffer1, .-EZI2C_EzI2CSetReadBoundaryBuffer1
 422              		.section	.text.EZI2C_EzI2CSetAddress2,"ax",%progbits
 423              		.align	2
 424              		.global	EZI2C_EzI2CSetAddress2
 425              		.code	16
 426              		.thumb_func
 427              		.type	EZI2C_EzI2CSetAddress2, %function
 428              	EZI2C_EzI2CSetAddress2:
 429              	.LFB9:
 543:Generated_Source\PSoC4/EZI2C_EZI2C.c **** 
ARM GAS  C:\Users\Erik\AppData\Local\Temp\ccYTRVJu.s 			page 19


 544:Generated_Source\PSoC4/EZI2C_EZI2C.c ****     /*******************************************************************************
 545:Generated_Source\PSoC4/EZI2C_EZI2C.c ****     * Function Name: EZI2C_EzI2CSetAddress2
 546:Generated_Source\PSoC4/EZI2C_EZI2C.c ****     ****************************************************************************//**
 547:Generated_Source\PSoC4/EZI2C_EZI2C.c ****     *
 548:Generated_Source\PSoC4/EZI2C_EZI2C.c ****     *  Sets the secondary EZI2C slave address.
 549:Generated_Source\PSoC4/EZI2C_EZI2C.c ****     *
 550:Generated_Source\PSoC4/EZI2C_EZI2C.c ****     * \param address: secondary I2C slave address.
 551:Generated_Source\PSoC4/EZI2C_EZI2C.c ****     *  This address is the 7-bit right-justified slave address and does not 
 552:Generated_Source\PSoC4/EZI2C_EZI2C.c ****     *  include the R/W bit.
 553:Generated_Source\PSoC4/EZI2C_EZI2C.c ****     *  The address value is not checked to see if it violates the I2C spec. 
 554:Generated_Source\PSoC4/EZI2C_EZI2C.c ****     *  The preferred addresses are in the range between 8 and 120 (0x08 to 0x78).
 555:Generated_Source\PSoC4/EZI2C_EZI2C.c ****     *
 556:Generated_Source\PSoC4/EZI2C_EZI2C.c ****     * \globalvars
 557:Generated_Source\PSoC4/EZI2C_EZI2C.c ****     *  EZI2C_addrBuf2 - used to store the secondary 7-bit slave address 
 558:Generated_Source\PSoC4/EZI2C_EZI2C.c ****     *  value.
 559:Generated_Source\PSoC4/EZI2C_EZI2C.c ****     *
 560:Generated_Source\PSoC4/EZI2C_EZI2C.c ****     *******************************************************************************/
 561:Generated_Source\PSoC4/EZI2C_EZI2C.c ****     void EZI2C_EzI2CSetAddress2(uint32 address)
 562:Generated_Source\PSoC4/EZI2C_EZI2C.c ****     {
 430              		.loc 1 562 0
 431              		.cfi_startproc
 432              		@ args = 0, pretend = 0, frame = 0
 433              		@ frame_needed = 0, uses_anonymous_args = 0
 434              	.LVL25:
 435 0000 10B5     		push	{r4, lr}
 436              		.cfi_def_cfa_offset 8
 437              		.cfi_offset 4, -8
 438              		.cfi_offset 14, -4
 439 0002 0100     		movs	r1, r0
 563:Generated_Source\PSoC4/EZI2C_EZI2C.c ****         EZI2C_addrBuf2 = (uint8) address;
 440              		.loc 1 563 0
 441 0004 044B     		ldr	r3, .L25
 442 0006 1870     		strb	r0, [r3]
 564:Generated_Source\PSoC4/EZI2C_EZI2C.c **** 
 565:Generated_Source\PSoC4/EZI2C_EZI2C.c ****         EZI2C_RX_MATCH_REG = 
 566:Generated_Source\PSoC4/EZI2C_EZI2C.c ****                         EZI2C_EzI2CUpdateRxMatchReg((uint32) EZI2C_addrBuf1, address);
 443              		.loc 1 566 0
 444 0008 044B     		ldr	r3, .L25+4
 445 000a 1878     		ldrb	r0, [r3]
 446              	.LVL26:
 447 000c FFF7FEFF 		bl	EZI2C_EzI2CUpdateRxMatchReg
 448              	.LVL27:
 565:Generated_Source\PSoC4/EZI2C_EZI2C.c ****                         EZI2C_EzI2CUpdateRxMatchReg((uint32) EZI2C_addrBuf1, address);
 449              		.loc 1 565 0
 450 0010 034B     		ldr	r3, .L25+8
 451 0012 1860     		str	r0, [r3]
 567:Generated_Source\PSoC4/EZI2C_EZI2C.c ****     }
 452              		.loc 1 567 0
 453              		@ sp needed
 454 0014 10BD     		pop	{r4, pc}
 455              	.L26:
 456 0016 C046     		.align	2
 457              	.L25:
 458 0018 00000000 		.word	EZI2C_addrBuf2
 459 001c 00000000 		.word	EZI2C_addrBuf1
 460 0020 10032440 		.word	1076101904
 461              		.cfi_endproc
ARM GAS  C:\Users\Erik\AppData\Local\Temp\ccYTRVJu.s 			page 20


 462              	.LFE9:
 463              		.size	EZI2C_EzI2CSetAddress2, .-EZI2C_EzI2CSetAddress2
 464              		.section	.text.EZI2C_EzI2CGetAddress2,"ax",%progbits
 465              		.align	2
 466              		.global	EZI2C_EzI2CGetAddress2
 467              		.code	16
 468              		.thumb_func
 469              		.type	EZI2C_EzI2CGetAddress2, %function
 470              	EZI2C_EzI2CGetAddress2:
 471              	.LFB10:
 568:Generated_Source\PSoC4/EZI2C_EZI2C.c **** 
 569:Generated_Source\PSoC4/EZI2C_EZI2C.c **** 
 570:Generated_Source\PSoC4/EZI2C_EZI2C.c ****     /*******************************************************************************
 571:Generated_Source\PSoC4/EZI2C_EZI2C.c ****     * Function Name: EZI2C_EzI2CGetAddress2
 572:Generated_Source\PSoC4/EZI2C_EZI2C.c ****     ****************************************************************************//**
 573:Generated_Source\PSoC4/EZI2C_EZI2C.c ****     *
 574:Generated_Source\PSoC4/EZI2C_EZI2C.c ****     *  Returns the secondary EZ I2C slave address.
 575:Generated_Source\PSoC4/EZI2C_EZI2C.c ****     *  This address is the 7-bit right-justified slave address and does not include 
 576:Generated_Source\PSoC4/EZI2C_EZI2C.c ****     *  the R/W bit.
 577:Generated_Source\PSoC4/EZI2C_EZI2C.c ****     *
 578:Generated_Source\PSoC4/EZI2C_EZI2C.c ****     * \return
 579:Generated_Source\PSoC4/EZI2C_EZI2C.c ****     *  Secondary I2C slave address.
 580:Generated_Source\PSoC4/EZI2C_EZI2C.c ****     *
 581:Generated_Source\PSoC4/EZI2C_EZI2C.c ****     * \globalvars
 582:Generated_Source\PSoC4/EZI2C_EZI2C.c ****     *  EZI2C_addrBuf2 - used to store the secondary 7-bit slave address 
 583:Generated_Source\PSoC4/EZI2C_EZI2C.c ****     *  value.
 584:Generated_Source\PSoC4/EZI2C_EZI2C.c ****     *
 585:Generated_Source\PSoC4/EZI2C_EZI2C.c ****     *******************************************************************************/
 586:Generated_Source\PSoC4/EZI2C_EZI2C.c ****     uint32 EZI2C_EzI2CGetAddress2(void)
 587:Generated_Source\PSoC4/EZI2C_EZI2C.c ****     {
 472              		.loc 1 587 0
 473              		.cfi_startproc
 474              		@ args = 0, pretend = 0, frame = 0
 475              		@ frame_needed = 0, uses_anonymous_args = 0
 476              		@ link register save eliminated.
 588:Generated_Source\PSoC4/EZI2C_EZI2C.c ****         return((uint32) EZI2C_addrBuf2);
 477              		.loc 1 588 0
 478 0000 014B     		ldr	r3, .L28
 479 0002 1878     		ldrb	r0, [r3]
 589:Generated_Source\PSoC4/EZI2C_EZI2C.c ****     }
 480              		.loc 1 589 0
 481              		@ sp needed
 482 0004 7047     		bx	lr
 483              	.L29:
 484 0006 C046     		.align	2
 485              	.L28:
 486 0008 00000000 		.word	EZI2C_addrBuf2
 487              		.cfi_endproc
 488              	.LFE10:
 489              		.size	EZI2C_EzI2CGetAddress2, .-EZI2C_EzI2CGetAddress2
 490              		.section	.text.EZI2C_EzI2CSetBuffer2,"ax",%progbits
 491              		.align	2
 492              		.global	EZI2C_EzI2CSetBuffer2
 493              		.code	16
 494              		.thumb_func
 495              		.type	EZI2C_EzI2CSetBuffer2, %function
 496              	EZI2C_EzI2CSetBuffer2:
ARM GAS  C:\Users\Erik\AppData\Local\Temp\ccYTRVJu.s 			page 21


 497              	.LFB11:
 590:Generated_Source\PSoC4/EZI2C_EZI2C.c **** 
 591:Generated_Source\PSoC4/EZI2C_EZI2C.c **** 
 592:Generated_Source\PSoC4/EZI2C_EZI2C.c ****     /*******************************************************************************
 593:Generated_Source\PSoC4/EZI2C_EZI2C.c ****     * Function Name: EZI2C_EzI2CSetBuffer2
 594:Generated_Source\PSoC4/EZI2C_EZI2C.c ****     ****************************************************************************//**
 595:Generated_Source\PSoC4/EZI2C_EZI2C.c ****     *
 596:Generated_Source\PSoC4/EZI2C_EZI2C.c ****     *  Sets up the data buffer to be exposed to the I2C master on a secondary slave
 597:Generated_Source\PSoC4/EZI2C_EZI2C.c ****     *  address request.
 598:Generated_Source\PSoC4/EZI2C_EZI2C.c ****     *
 599:Generated_Source\PSoC4/EZI2C_EZI2C.c ****     * \param bufSize: Size of the buffer in bytes.
 600:Generated_Source\PSoC4/EZI2C_EZI2C.c ****     * \param rwBoundary: Number of data bytes starting from the beginning of the 
 601:Generated_Source\PSoC4/EZI2C_EZI2C.c ****     *  buffer with read and write access. Data bytes located at offset rwBoundary 
 602:Generated_Source\PSoC4/EZI2C_EZI2C.c ****     *  or greater are read only.
 603:Generated_Source\PSoC4/EZI2C_EZI2C.c ****     *  This value must be less than or equal to the buffer size.
 604:Generated_Source\PSoC4/EZI2C_EZI2C.c ****     * \param buffer: Pointer to the data buffer.
 605:Generated_Source\PSoC4/EZI2C_EZI2C.c ****     *
 606:Generated_Source\PSoC4/EZI2C_EZI2C.c ****     * \sideeffects
 607:Generated_Source\PSoC4/EZI2C_EZI2C.c ****     *  Calling this function in the middle of a transaction intended for the 
 608:Generated_Source\PSoC4/EZI2C_EZI2C.c ****     *  secondary slave address leads to unexpected behavior.
 609:Generated_Source\PSoC4/EZI2C_EZI2C.c ****     *
 610:Generated_Source\PSoC4/EZI2C_EZI2C.c ****     * \globalvars
 611:Generated_Source\PSoC4/EZI2C_EZI2C.c ****     *  EZI2C_dataBuffer2 – the pointer to the buffer to be exposed to the
 612:Generated_Source\PSoC4/EZI2C_EZI2C.c ****     *  master on a secondary address.
 613:Generated_Source\PSoC4/EZI2C_EZI2C.c ****     *  EZI2C_bufSizeBuf2 - the size of the buffer to be exposed to the 
 614:Generated_Source\PSoC4/EZI2C_EZI2C.c ****     *  master on a secondary address.
 615:Generated_Source\PSoC4/EZI2C_EZI2C.c ****     *  EZI2C_protectBuf2 - the start index of the read-only region in the
 616:Generated_Source\PSoC4/EZI2C_EZI2C.c ****     *  buffer to be exposed to the master on a secondary address. The read-only 
 617:Generated_Source\PSoC4/EZI2C_EZI2C.c ****     *  region continues up to the end the buffer.
 618:Generated_Source\PSoC4/EZI2C_EZI2C.c ****     *
 619:Generated_Source\PSoC4/EZI2C_EZI2C.c ****     *******************************************************************************/
 620:Generated_Source\PSoC4/EZI2C_EZI2C.c ****     void EZI2C_EzI2CSetBuffer2(uint32 bufSize, uint32 rwBoundary, volatile uint8 * buffer)
 621:Generated_Source\PSoC4/EZI2C_EZI2C.c ****     {
 498              		.loc 1 621 0
 499              		.cfi_startproc
 500              		@ args = 0, pretend = 0, frame = 0
 501              		@ frame_needed = 0, uses_anonymous_args = 0
 502              	.LVL28:
 503 0000 70B5     		push	{r4, r5, r6, lr}
 504              		.cfi_def_cfa_offset 16
 505              		.cfi_offset 4, -16
 506              		.cfi_offset 5, -12
 507              		.cfi_offset 6, -8
 508              		.cfi_offset 14, -4
 509 0002 0600     		movs	r6, r0
 510 0004 0D00     		movs	r5, r1
 511 0006 141E     		subs	r4, r2, #0
 622:Generated_Source\PSoC4/EZI2C_EZI2C.c ****         if (NULL != buffer)
 512              		.loc 1 622 0
 513 0008 0BD0     		beq	.L30
 623:Generated_Source\PSoC4/EZI2C_EZI2C.c ****         {
 624:Generated_Source\PSoC4/EZI2C_EZI2C.c ****             EZI2C_DisableInt();  /* Lock from interruption */
 514              		.loc 1 624 0
 515 000a 0820     		movs	r0, #8
 516              	.LVL29:
 517 000c FFF7FEFF 		bl	CyIntDisable
 518              	.LVL30:
ARM GAS  C:\Users\Erik\AppData\Local\Temp\ccYTRVJu.s 			page 22


 625:Generated_Source\PSoC4/EZI2C_EZI2C.c **** 
 626:Generated_Source\PSoC4/EZI2C_EZI2C.c ****             EZI2C_dataBuffer2 =  buffer;
 519              		.loc 1 626 0
 520 0010 044B     		ldr	r3, .L32
 521 0012 1C60     		str	r4, [r3]
 627:Generated_Source\PSoC4/EZI2C_EZI2C.c ****             EZI2C_bufSizeBuf2 = (uint16) bufSize;
 522              		.loc 1 627 0
 523 0014 044B     		ldr	r3, .L32+4
 524 0016 1E80     		strh	r6, [r3]
 628:Generated_Source\PSoC4/EZI2C_EZI2C.c ****             EZI2C_protectBuf2 = (uint16) rwBoundary;
 525              		.loc 1 628 0
 526 0018 044B     		ldr	r3, .L32+8
 527 001a 1D80     		strh	r5, [r3]
 629:Generated_Source\PSoC4/EZI2C_EZI2C.c **** 
 630:Generated_Source\PSoC4/EZI2C_EZI2C.c ****             EZI2C_EnableInt();   /* Release lock */
 528              		.loc 1 630 0
 529 001c 0820     		movs	r0, #8
 530 001e FFF7FEFF 		bl	CyIntEnable
 531              	.LVL31:
 532              	.L30:
 631:Generated_Source\PSoC4/EZI2C_EZI2C.c ****         }
 632:Generated_Source\PSoC4/EZI2C_EZI2C.c ****     }
 533              		.loc 1 632 0
 534              		@ sp needed
 535              	.LVL32:
 536              	.LVL33:
 537              	.LVL34:
 538 0022 70BD     		pop	{r4, r5, r6, pc}
 539              	.L33:
 540              		.align	2
 541              	.L32:
 542 0024 00000000 		.word	EZI2C_dataBuffer2
 543 0028 00000000 		.word	EZI2C_bufSizeBuf2
 544 002c 00000000 		.word	EZI2C_protectBuf2
 545              		.cfi_endproc
 546              	.LFE11:
 547              		.size	EZI2C_EzI2CSetBuffer2, .-EZI2C_EzI2CSetBuffer2
 548              		.section	.text.EZI2C_EzI2CSetReadBoundaryBuffer2,"ax",%progbits
 549              		.align	2
 550              		.global	EZI2C_EzI2CSetReadBoundaryBuffer2
 551              		.code	16
 552              		.thumb_func
 553              		.type	EZI2C_EzI2CSetReadBoundaryBuffer2, %function
 554              	EZI2C_EzI2CSetReadBoundaryBuffer2:
 555              	.LFB12:
 633:Generated_Source\PSoC4/EZI2C_EZI2C.c **** 
 634:Generated_Source\PSoC4/EZI2C_EZI2C.c **** 
 635:Generated_Source\PSoC4/EZI2C_EZI2C.c ****     /*******************************************************************************
 636:Generated_Source\PSoC4/EZI2C_EZI2C.c ****     * Function Name: EZI2C_EzI2CSetReadBoundaryBuffer2
 637:Generated_Source\PSoC4/EZI2C_EZI2C.c ****     ****************************************************************************//**
 638:Generated_Source\PSoC4/EZI2C_EZI2C.c ****     *
 639:Generated_Source\PSoC4/EZI2C_EZI2C.c ****     *  Sets the read only boundary in the data buffer to be exposed to the I2C
 640:Generated_Source\PSoC4/EZI2C_EZI2C.c ****     *  master on a secondary address request.
 641:Generated_Source\PSoC4/EZI2C_EZI2C.c ****     *
 642:Generated_Source\PSoC4/EZI2C_EZI2C.c ****     *  \param rwBoundary: Number of data bytes starting from the beginning of the
 643:Generated_Source\PSoC4/EZI2C_EZI2C.c ****     *   buffer with read and write access. Data bytes located at offset rwBoundary 
 644:Generated_Source\PSoC4/EZI2C_EZI2C.c ****     *   or greater are read only.
ARM GAS  C:\Users\Erik\AppData\Local\Temp\ccYTRVJu.s 			page 23


 645:Generated_Source\PSoC4/EZI2C_EZI2C.c ****     *   This value must be less than or equal to the buffer size.
 646:Generated_Source\PSoC4/EZI2C_EZI2C.c ****     *
 647:Generated_Source\PSoC4/EZI2C_EZI2C.c ****     *  \sideeffect
 648:Generated_Source\PSoC4/EZI2C_EZI2C.c ****     *   Calling this function in the middle of a transaction intended for the 
 649:Generated_Source\PSoC4/EZI2C_EZI2C.c ****     *   secondary slave address leads to unexpected behavior.
 650:Generated_Source\PSoC4/EZI2C_EZI2C.c ****     *
 651:Generated_Source\PSoC4/EZI2C_EZI2C.c ****     * \globalvars
 652:Generated_Source\PSoC4/EZI2C_EZI2C.c ****     *  EZI2C_protectBuf2 - the start index of the read-only region in the
 653:Generated_Source\PSoC4/EZI2C_EZI2C.c ****     *  buffer to be exposed to the master on a secondary address. The read-only 
 654:Generated_Source\PSoC4/EZI2C_EZI2C.c ****     *  region continues up to the end the buffe
 655:Generated_Source\PSoC4/EZI2C_EZI2C.c ****     *
 656:Generated_Source\PSoC4/EZI2C_EZI2C.c ****     *******************************************************************************/
 657:Generated_Source\PSoC4/EZI2C_EZI2C.c ****     void EZI2C_EzI2CSetReadBoundaryBuffer2(uint32 rwBoundary)
 658:Generated_Source\PSoC4/EZI2C_EZI2C.c ****     {
 556              		.loc 1 658 0
 557              		.cfi_startproc
 558              		@ args = 0, pretend = 0, frame = 0
 559              		@ frame_needed = 0, uses_anonymous_args = 0
 560              		@ link register save eliminated.
 561              	.LVL35:
 659:Generated_Source\PSoC4/EZI2C_EZI2C.c ****         EZI2C_protectBuf2 = (uint16) rwBoundary;
 562              		.loc 1 659 0
 563 0000 014B     		ldr	r3, .L35
 564 0002 1880     		strh	r0, [r3]
 660:Generated_Source\PSoC4/EZI2C_EZI2C.c ****     }
 565              		.loc 1 660 0
 566              		@ sp needed
 567 0004 7047     		bx	lr
 568              	.L36:
 569 0006 C046     		.align	2
 570              	.L35:
 571 0008 00000000 		.word	EZI2C_protectBuf2
 572              		.cfi_endproc
 573              	.LFE12:
 574              		.size	EZI2C_EzI2CSetReadBoundaryBuffer2, .-EZI2C_EzI2CSetReadBoundaryBuffer2
 575              		.comm	EZI2C_indexBuf2,2,2
 576              		.comm	EZI2C_offsetBuf2,2,2
 577              		.comm	EZI2C_protectBuf2,2,2
 578              		.comm	EZI2C_bufSizeBuf2,2,2
 579              		.comm	EZI2C_dataBuffer2,4,4
 580              		.comm	EZI2C_addrBuf2,1,1
 581              		.comm	EZI2C_addrBuf1,1,1
 582              		.comm	EZI2C_indexBuf1,2,2
 583              		.comm	EZI2C_offsetBuf1,2,2
 584              		.comm	EZI2C_protectBuf1,2,2
 585              		.comm	EZI2C_bufSizeBuf1,2,2
 586              		.comm	EZI2C_dataBuffer1,4,4
 587              		.comm	EZI2C_fsmState,1,1
 588              		.comm	EZI2C_curStatus,1,1
 589              		.text
 590              	.Letext0:
 591              		.file 2 "Generated_Source\\PSoC4/cytypes.h"
 592              		.file 3 "Generated_Source\\PSoC4/CyLib.h"